

Microchip Technology PIC LITE Macro Assembler V1.45 build -152302408 
                                                                                               Wed Jan 30 16:05:51 2019

Microchip Technology Omniscient Code Generator v1.45 (Free mode) build 201711160504
     1                           	processor	16F1526
     2                           	opt	pw 120
     3                           	opt	lm
     4                           	psect	idataCOMMON,global,class=CODE,delta=2
     5                           	psect	idataBANK0,global,class=CODE,delta=2
     6                           	psect	idataBANK1,global,class=CODE,delta=2
     7                           	psect	idataBANK2,global,class=CODE,delta=2
     8                           	psect	stringtext1,global,class=STRCODE,delta=2
     9                           	psect	stringtext2,global,class=STRCODE,delta=2
    10                           	psect	stringtext3,global,class=STRCODE,delta=2
    11                           	psect	stringtext4,global,class=STRCODE,delta=2
    12                           	psect	cinit,global,class=CODE,merge=1,delta=2
    13                           	psect	bssCOMMON,global,class=COMMON,space=1,delta=1
    14                           	psect	dataCOMMON,global,class=COMMON,space=1,delta=1
    15                           	psect	bssBANK0,global,class=BANK0,space=1,delta=1
    16                           	psect	dataBANK0,global,class=BANK0,space=1,delta=1
    17                           	psect	dataBANK1,global,class=BANK1,space=1,delta=1
    18                           	psect	dataBANK2,global,class=BANK2,space=1,delta=1
    19                           	psect	inittext,global,class=CODE,delta=2
    20                           	psect	clrtext,global,class=CODE,delta=2
    21                           	psect	cstackBANK1,global,class=BANK1,space=1,delta=1
    22                           	psect	cstackCOMMON,global,class=COMMON,space=1,delta=1
    23                           	psect	cstackBANK0,global,class=BANK0,space=1,delta=1
    24                           	psect	maintext,global,class=CODE,merge=1,split=1,delta=2
    25                           	psect	text1,local,class=CODE,merge=1,delta=2
    26                           	psect	text2,local,class=CODE,merge=1,delta=2
    27                           	psect	text3,local,class=CODE,merge=1,delta=2
    28                           	psect	swtext1,local,class=CONST,delta=2
    29                           	psect	text4,local,class=CODE,merge=1,delta=2
    30                           	psect	text5,local,class=CODE,merge=1,delta=2,group=1
    31                           	psect	text6,local,class=CODE,merge=1,delta=2,group=1
    32                           	psect	text7,local,class=CODE,merge=1,delta=2,group=1
    33                           	psect	text8,local,class=CODE,merge=1,delta=2
    34                           	psect	text9,local,class=CODE,merge=1,delta=2
    35                           	psect	text10,local,class=CODE,merge=1,delta=2
    36                           	psect	text11,local,class=CODE,merge=1,delta=2
    37                           	psect	text12,local,class=CODE,merge=1,delta=2
    38                           	psect	text13,local,class=CODE,merge=1,delta=2
    39                           	psect	text14,local,class=CODE,merge=1,delta=2
    40                           	psect	text15,local,class=CODE,merge=1,delta=2
    41                           	psect	text16,local,class=CODE,merge=1,delta=2
    42                           	psect	text17,local,class=CODE,merge=1,delta=2
    43                           	psect	text18,local,class=CODE,merge=1,delta=2
    44                           	psect	text19,local,class=CODE,merge=1,delta=2
    45                           	psect	text20,local,class=CODE,merge=1,delta=2
    46                           	psect	text21,local,class=CODE,merge=1,delta=2
    47                           	psect	text22,local,class=CODE,merge=1,delta=2
    48                           	psect	text23,local,class=CODE,merge=1,delta=2
    49                           	psect	text24,local,class=CODE,merge=1,delta=2
    50                           	psect	text25,local,class=CODE,merge=1,delta=2
    51                           	psect	text26,local,class=CODE,merge=1,delta=2
    52                           	psect	text27,local,class=CODE,merge=1,delta=2
    53                           	psect	text28,local,class=CODE,merge=1,delta=2
    54                           	psect	intentry,global,class=CODE,delta=2
    55                           	psect	swtext2,local,class=CONST,delta=2
    56                           	psect	swtext3,local,class=CONST,delta=2
    57                           	psect	swtext4,local,class=CONST,delta=2
    58                           	psect	swtext5,local,class=CONST,delta=2
    59                           	psect	swtext6,local,class=CONST,delta=2
    60                           	psect	swtext7,local,class=CONST,delta=2
    61                           	psect	swtext8,local,class=CONST,delta=2
    62                           	psect	swtext9,local,class=CONST,delta=2
    63                           	psect	swtext10,local,class=CONST,delta=2
    64                           	psect	swtext11,local,class=CONST,delta=2
    65                           	psect	swtext12,local,class=CONST,delta=2
    66                           	psect	text30,local,class=CODE,merge=1,delta=2
    67                           	dabs	1,0x7E,2
    68  0000                     
    69                           ; Version 1.45
    70                           ; Generated 16/11/2017 GMT
    71                           ; 
    72                           ; Copyright © 2017, Microchip Technology Inc. and its subsidiaries ("Microchip")
    73                           ; All rights reserved.
    74                           ; 
    75                           ; This software is developed by Microchip Technology Inc. and its subsidiaries ("Microch
      +                          ip").
    76                           ; 
    77                           ; Redistribution and use in source and binary forms, with or without modification, are
    78                           ; permitted provided that the following conditions are met:
    79                           ; 
    80                           ;     1. Redistributions of source code must retain the above copyright notice, this lis
      +                          t of
    81                           ;        conditions and the following disclaimer.
    82                           ; 
    83                           ;     2. Redistributions in binary form must reproduce the above copyright notice, this 
      +                          list
    84                           ;        of conditions and the following disclaimer in the documentation and/or other
    85                           ;        materials provided with the distribution.
    86                           ; 
    87                           ;     3. Microchip's name may not be used to endorse or promote products derived from th
      +                          is
    88                           ;        software without specific prior written permission.
    89                           ; 
    90                           ; THIS SOFTWARE IS PROVIDED BY MICROCHIP "AS IS" AND ANY EXPRESS OR IMPLIED WARRANTIES,
    91                           ; INCLUDING, BUT NOT LIMITED TO, THE IMPLIED WARRANTIES OF MERCHANTABILITY AND FITNESS F
      +                          OR
    92                           ; PURPOSE ARE DISCLAIMED.  IN NO EVENT SHALL MICROCHIP BE LIABLE FOR ANY DIRECT, INDIREC
      +                          T,
    93                           ; INCIDENTAL, SPECIAL, EXEMPLARY, OR CONSEQUENTIAL DAMAGES (INCLUDING BUT NOT LIMITED TO
    94                           ; PROCUREMENT OF SUBSTITUTE GOODS OR SERVICES; LOSS OF USE, DATA OR PROFITS; OR BUSINESS
    95                           ; INTERRUPTION) HOWSOEVER CAUSED AND ON ANY THEORY OF LIABILITY, WHETHER IN CONTRACT, ST
      +                          RICT
    96                           ; LIABILITY, OR TORT (INCLUDING NEGLIGENCE OR OTHERWISE) ARISING IN ANY WAY OUT OF THE U
      +                          SE OF
    97                           ; THIS SOFTWARE, EVEN IF ADVISED OF THE POSSIBILITY OF SUCH DAMAGE.
    98                           ; 
    99                           ; 
   100                           ; Code-generator required, PIC16F1526 Definitions
   101                           ; 
   102                           ; SFR Addresses
   103  0000                     	;# 
   104  0001                     	;# 
   105  0002                     	;# 
   106  0003                     	;# 
   107  0004                     	;# 
   108  0005                     	;# 
   109  0006                     	;# 
   110  0007                     	;# 
   111  0008                     	;# 
   112  0009                     	;# 
   113  000A                     	;# 
   114  000B                     	;# 
   115  000C                     	;# 
   116  000D                     	;# 
   117  000E                     	;# 
   118  000F                     	;# 
   119  0010                     	;# 
   120  0011                     	;# 
   121  0012                     	;# 
   122  0013                     	;# 
   123  0014                     	;# 
   124  0015                     	;# 
   125  0016                     	;# 
   126  0016                     	;# 
   127  0017                     	;# 
   128  0018                     	;# 
   129  0019                     	;# 
   130  001A                     	;# 
   131  001B                     	;# 
   132  001C                     	;# 
   133  008C                     	;# 
   134  008D                     	;# 
   135  008E                     	;# 
   136  008F                     	;# 
   137  0090                     	;# 
   138  0091                     	;# 
   139  0092                     	;# 
   140  0093                     	;# 
   141  0094                     	;# 
   142  0095                     	;# 
   143  0096                     	;# 
   144  0097                     	;# 
   145  0099                     	;# 
   146  009A                     	;# 
   147  009B                     	;# 
   148  009B                     	;# 
   149  009C                     	;# 
   150  009D                     	;# 
   151  009E                     	;# 
   152  010C                     	;# 
   153  010D                     	;# 
   154  010E                     	;# 
   155  010F                     	;# 
   156  0110                     	;# 
   157  0116                     	;# 
   158  0117                     	;# 
   159  011D                     	;# 
   160  018C                     	;# 
   161  018D                     	;# 
   162  018F                     	;# 
   163  0190                     	;# 
   164  0191                     	;# 
   165  0191                     	;# 
   166  0192                     	;# 
   167  0193                     	;# 
   168  0193                     	;# 
   169  0194                     	;# 
   170  0195                     	;# 
   171  0196                     	;# 
   172  0197                     	;# 
   173  0199                     	;# 
   174  0199                     	;# 
   175  0199                     	;# 
   176  019A                     	;# 
   177  019A                     	;# 
   178  019A                     	;# 
   179  019B                     	;# 
   180  019B                     	;# 
   181  019B                     	;# 
   182  019B                     	;# 
   183  019B                     	;# 
   184  019C                     	;# 
   185  019C                     	;# 
   186  019C                     	;# 
   187  019D                     	;# 
   188  019D                     	;# 
   189  019D                     	;# 
   190  019E                     	;# 
   191  019E                     	;# 
   192  019E                     	;# 
   193  019F                     	;# 
   194  019F                     	;# 
   195  019F                     	;# 
   196  020D                     	;# 
   197  020F                     	;# 
   198  0210                     	;# 
   199  0211                     	;# 
   200  0211                     	;# 
   201  0212                     	;# 
   202  0212                     	;# 
   203  0213                     	;# 
   204  0213                     	;# 
   205  0214                     	;# 
   206  0214                     	;# 
   207  0215                     	;# 
   208  0215                     	;# 
   209  0215                     	;# 
   210  0216                     	;# 
   211  0216                     	;# 
   212  0217                     	;# 
   213  0217                     	;# 
   214  0219                     	;# 
   215  021A                     	;# 
   216  021B                     	;# 
   217  021C                     	;# 
   218  021D                     	;# 
   219  021E                     	;# 
   220  021F                     	;# 
   221  028C                     	;# 
   222  028D                     	;# 
   223  0291                     	;# 
   224  0291                     	;# 
   225  0292                     	;# 
   226  0293                     	;# 
   227  0298                     	;# 
   228  0298                     	;# 
   229  0299                     	;# 
   230  029A                     	;# 
   231  029D                     	;# 
   232  029E                     	;# 
   233  029F                     	;# 
   234  030C                     	;# 
   235  030D                     	;# 
   236  0311                     	;# 
   237  0311                     	;# 
   238  0312                     	;# 
   239  0313                     	;# 
   240  0318                     	;# 
   241  0318                     	;# 
   242  0319                     	;# 
   243  031A                     	;# 
   244  031C                     	;# 
   245  031C                     	;# 
   246  031D                     	;# 
   247  031E                     	;# 
   248  038C                     	;# 
   249  038D                     	;# 
   250  0394                     	;# 
   251  0395                     	;# 
   252  0396                     	;# 
   253  040C                     	;# 
   254  040D                     	;# 
   255  0411                     	;# 
   256  0411                     	;# 
   257  0412                     	;# 
   258  0413                     	;# 
   259  0414                     	;# 
   260  0415                     	;# 
   261  0416                     	;# 
   262  0417                     	;# 
   263  0418                     	;# 
   264  0418                     	;# 
   265  0419                     	;# 
   266  041A                     	;# 
   267  041B                     	;# 
   268  041C                     	;# 
   269  041D                     	;# 
   270  041E                     	;# 
   271  048D                     	;# 
   272  0491                     	;# 
   273  0491                     	;# 
   274  0492                     	;# 
   275  0492                     	;# 
   276  0493                     	;# 
   277  0493                     	;# 
   278  0493                     	;# 
   279  0494                     	;# 
   280  0494                     	;# 
   281  0495                     	;# 
   282  0495                     	;# 
   283  0496                     	;# 
   284  0496                     	;# 
   285  0497                     	;# 
   286  0497                     	;# 
   287  0595                     	;# 
   288  0596                     	;# 
   289  0597                     	;# 
   290  059C                     	;# 
   291  059D                     	;# 
   292  059E                     	;# 
   293  0611                     	;# 
   294  0611                     	;# 
   295  0612                     	;# 
   296  0613                     	;# 
   297  0614                     	;# 
   298  0614                     	;# 
   299  0615                     	;# 
   300  0616                     	;# 
   301  0617                     	;# 
   302  0617                     	;# 
   303  0618                     	;# 
   304  0619                     	;# 
   305  061A                     	;# 
   306  061A                     	;# 
   307  061B                     	;# 
   308  061C                     	;# 
   309  061D                     	;# 
   310  061D                     	;# 
   311  061E                     	;# 
   312  061F                     	;# 
   313  0FE4                     	;# 
   314  0FE5                     	;# 
   315  0FE6                     	;# 
   316  0FE7                     	;# 
   317  0FE8                     	;# 
   318  0FE9                     	;# 
   319  0FEA                     	;# 
   320  0FEB                     	;# 
   321  0FED                     	;# 
   322  0FEE                     	;# 
   323  0FEF                     	;# 
   324                           
   325                           	psect	idataCOMMON
   326  07FE                     __pidataCOMMON:	
   327                           
   328                           ;initializer for _levelofDimmer_LSB
   329  07FE  3430               	retlw	48
   330                           
   331                           ;initializer for _levelofDimmer_MSB
   332  07FF  3430               	retlw	48
   333                           
   334                           	psect	idataBANK0
   335  0EF3                     __pidataBANK0:	
   336                           
   337                           ;initializer for _tempReceivedDataBuffer
   338  0EF3  3423               	retlw	35
   339  0EF4  3400               	retlw	0
   340  0EF5  3400               	retlw	0
   341  0EF6  3400               	retlw	0
   342  0EF7  3400               	retlw	0
   343  0EF8  3400               	retlw	0
   344  0EF9  3400               	retlw	0
   345  0EFA  3400               	retlw	0
   346  0EFB  3400               	retlw	0
   347  0EFC  3400               	retlw	0
   348                           
   349                           ;initializer for applianceControl@F3736
   350  0EFD  3423               	retlw	35
   351  0EFE  3400               	retlw	0
   352                           
   353                           ;initializer for applianceControl@F3734
   354  0EFF  3423               	retlw	35
   355  0F00  3400               	retlw	0
   356                           
   357                           	psect	idataBANK1
   358  07A4                     __pidataBANK1:	
   359                           
   360                           ;initializer for _mainReceivedDataBuffer
   361  07A4  3423               	retlw	35
   362  07A5  3400               	retlw	0
   363  07A6  3400               	retlw	0
   364  07A7  3400               	retlw	0
   365  07A8  3400               	retlw	0
   366  07A9  3400               	retlw	0
   367  07AA  3400               	retlw	0
   368  07AB  3400               	retlw	0
   369  07AC  3400               	retlw	0
   370  07AD  3400               	retlw	0
   371  07AE  3400               	retlw	0
   372  07AF  3400               	retlw	0
   373  07B0  3400               	retlw	0
   374  07B1  3400               	retlw	0
   375  07B2  3400               	retlw	0
   376  07B3  3400               	retlw	0
   377  07B4  3400               	retlw	0
   378  07B5  3400               	retlw	0
   379                           
   380                           ;initializer for _copy_parentalLockBuffer
   381  07B6  3430               	retlw	48
   382  07B7  3430               	retlw	48
   383  07B8  3430               	retlw	48
   384  07B9  3430               	retlw	48
   385  07BA  3430               	retlw	48
   386  07BB  3430               	retlw	48
   387  07BC  3430               	retlw	48
   388  07BD  3430               	retlw	48
   389  07BE  3430               	retlw	48
   390  07BF  3430               	retlw	48
   391  07C0  3430               	retlw	48
   392  07C1  3430               	retlw	48
   393  07C2  3400               	retlw	0
   394  07C3  3400               	retlw	0
   395                           
   396                           ;initializer for _parentalLockBuffer
   397  07C4  3430               	retlw	48
   398  07C5  3430               	retlw	48
   399  07C6  3430               	retlw	48
   400  07C7  3430               	retlw	48
   401  07C8  3430               	retlw	48
   402  07C9  3430               	retlw	48
   403  07CA  3430               	retlw	48
   404  07CB  3430               	retlw	48
   405  07CC  3430               	retlw	48
   406  07CD  3430               	retlw	48
   407  07CE  3430               	retlw	48
   408  07CF  3430               	retlw	48
   409  07D0  3400               	retlw	0
   410  07D1  3400               	retlw	0
   411                           
   412                           	psect	idataBANK2
   413  06D3                     __pidataBANK2:	
   414                           
   415                           ;initializer for _currentStateBuffer
   416  06D3  3423               	retlw	35
   417  06D4  3400               	retlw	0
   418  06D5  3400               	retlw	0
   419  06D6  3400               	retlw	0
   420  06D7  3400               	retlw	0
   421  06D8  3400               	retlw	0
   422  06D9  3400               	retlw	0
   423  06DA  3400               	retlw	0
   424  06DB  3400               	retlw	0
   425  06DC  3400               	retlw	0
   426  06DD  3400               	retlw	0
   427  06DE  3400               	retlw	0
   428  06DF  3400               	retlw	0
   429  06E0  3400               	retlw	0
   430  06E1  3400               	retlw	0
   431  06E2  3400               	retlw	0
   432  06E3  3400               	retlw	0
   433  06E4  3400               	retlw	0
   434  06E5  3400               	retlw	0
   435  06E6  3400               	retlw	0
   436  06E7  3400               	retlw	0
   437  06E8  3400               	retlw	0
   438  06E9  3400               	retlw	0
   439  06EA  3400               	retlw	0
   440  06EB  3400               	retlw	0
   441  06EC  3400               	retlw	0
   442  06ED  3400               	retlw	0
   443  06EE  3400               	retlw	0
   444  06EF  3400               	retlw	0
   445  06F0  3400               	retlw	0
   446  06F1  3400               	retlw	0
   447  06F2  3400               	retlw	0
   448  06F3  3400               	retlw	0
   449  06F4  3400               	retlw	0
   450  06F5  3400               	retlw	0
   451  06F6  3400               	retlw	0
   452  06F7  3400               	retlw	0
   453  06F8  3400               	retlw	0
   454  06F9  3400               	retlw	0
   455  06FA  3400               	retlw	0
   456  06FB  3400               	retlw	0
   457  06FC  3400               	retlw	0
   458  06FD  3400               	retlw	0
   459  06FE  3400               	retlw	0
   460  06FF  3400               	retlw	0
   461  0700  3400               	retlw	0
   462  0701  3400               	retlw	0
   463  0702  3400               	retlw	0
   464  0703  3400               	retlw	0
   465  0704  3400               	retlw	0
   466  0705  3400               	retlw	0
   467  0706  3400               	retlw	0
   468  0707  3400               	retlw	0
   469  0708  3400               	retlw	0
   470  0709  3400               	retlw	0
   471  070A  3400               	retlw	0
   472  070B  3400               	retlw	0
   473  070C  3400               	retlw	0
   474  0012                     _PIR2bits	set	18
   475  001A                     _TMR2	set	26
   476  001C                     _T2CON	set	28
   477  0013                     _PIR3bits	set	19
   478  0019                     _T1GCON	set	25
   479  0018                     _T1CON	set	24
   480  000D                     _PORTBbits	set	13
   481  0010                     _PORTEbits	set	16
   482  000F                     _PORTDbits	set	15
   483  0016                     _TMR1L	set	22
   484  0017                     _TMR1H	set	23
   485  0014                     _PIR4bits	set	20
   486  0018                     _T1CONbits	set	24
   487  001B                     _PR2	set	27
   488  001C                     _T2CONbits	set	28
   489  0011                     _PIR1bits	set	17
   490  005E                     _PEIE	set	94
   491  005F                     _GIE	set	95
   492  00A7                     _CCP10IF	set	167
   493  008D                     _RC1IF	set	141
   494  0094                     _PIE4bits	set	148
   495  0092                     _PIE2bits	set	146
   496  0093                     _PIE3bits	set	147
   497  008E                     _TRISCbits	set	142
   498  0090                     _TRISEbits	set	144
   499  008D                     _TRISBbits	set	141
   500  008F                     _TRISDbits	set	143
   501  0091                     _PIE1bits	set	145
   502  018C                     _ANSELA	set	396
   503  018D                     _ANSELB	set	397
   504  018F                     _ANSELD	set	399
   505  0190                     _ANSELE	set	400
   506  019A                     _TX1REG	set	410
   507  019E                     _TX1STAbits	set	414
   508  019C                     _SP1BRGH	set	412
   509  019B                     _SP1BRGL	set	411
   510  019E                     _TX1STA	set	414
   511  019D                     _RC1STA	set	413
   512  019F                     _BAUD1CON	set	415
   513  0199                     _RC1REG	set	409
   514  019D                     _RC1STAbits	set	413
   515  020D                     _WPUB	set	525
   516  020F                     _WPUD	set	527
   517  0210                     _WPUE	set	528
   518  028D                     _PORTGbits	set	653
   519  028C                     _PORTFbits	set	652
   520  030C                     _TRISFbits	set	780
   521  030D                     _TRISGbits	set	781
   522  040C                     _ANSELF	set	1036
   523  040D                     _ANSELG	set	1037
   524  041C                     _TMR6	set	1052
   525  041E                     _T6CON	set	1054
   526  0415                     _TMR4	set	1045
   527  0417                     _T4CON	set	1047
   528  0418                     _TMR5L	set	1048
   529  0419                     _TMR5H	set	1049
   530  041B                     _T5GCON	set	1051
   531  041A                     _T5CON	set	1050
   532  0411                     _TMR3L	set	1041
   533  0412                     _TMR3H	set	1042
   534  0414                     _T3GCON	set	1044
   535  0413                     _T3CON	set	1043
   536  048D                     _WPUG	set	1165
   537  059C                     _TMR10	set	1436
   538  059E                     _T10CON	set	1438
   539  0595                     _TMR8	set	1429
   540  0597                     _T8CON	set	1431
   541  0617                     _CCPR8L	set	1559
   542  0618                     _CCPR8H	set	1560
   543  0614                     _CCPR7L	set	1556
   544  0615                     _CCPR7H	set	1557
   545  0616                     _CCP7CON	set	1558
   546  061D                     _CCPR10L	set	1565
   547  061E                     _CCPR10H	set	1566
   548  061F                     _CCP10CON	set	1567
   549  061A                     _CCPR9L	set	1562
   550  061B                     _CCPR9H	set	1563
   551  061C                     _CCP9CON	set	1564
   552                           
   553                           	psect	stringtext1
   554  1000                     __pstringtext1:	
   555  1000                     STR_3:	
   556  1000  3445               	retlw	69	;'E'
   557  1001  3452               	retlw	82	;'R'
   558  1002  344C               	retlw	76	;'L'
   559  1003  3453               	retlw	83	;'S'
   560  1004  3400               	retlw	0
   561                           
   562                           	psect	stringtext2
   563  1005                     __pstringtext2:	
   564  1005                     STR_1:	
   565  1005  3445               	retlw	69	;'E'
   566  1006  3452               	retlw	82	;'R'
   567  1007  344F               	retlw	79	;'O'
   568  1008  3456               	retlw	86	;'V'
   569  1009  3400               	retlw	0
   570                           
   571                           	psect	stringtext3
   572  100A                     __pstringtext3:	
   573  100A                     STR_2:	
   574  100A  3445               	retlw	69	;'E'
   575  100B  3452               	retlw	82	;'R'
   576  100C  3452               	retlw	82	;'R'
   577  100D  3458               	retlw	88	;'X'
   578  100E  3400               	retlw	0
   579                           
   580                           	psect	stringtext4
   581  0000                     __pstringtext4:	
   582                           
   583                           ; #config settings
   584  0000                     
   585                           	psect	cinit
   586  021B                     start_initialization:	
   587  021B                     __initialization:	
   588                           
   589                           ; Initialize objects allocated to COMMON
   590  021B  3187  27FE  3182   	fcall	__pidataCOMMON	;fetch initializer
   591  021E  00F7               	movwf	__pdataCOMMON& (0+127)
   592  021F  3187  27FF  3182   	fcall	__pidataCOMMON+1	;fetch initializer
   593  0222  00F8               	movwf	(__pdataCOMMON+1)& (0+127)
   594                           
   595                           ; Initialize objects allocated to BANK0
   596  0223  30F3               	movlw	low __pidataBANK0
   597  0224  0084               	movwf	4
   598  0225  308E               	movlw	(high __pidataBANK0)| (0+128)
   599  0226  0085               	movwf	5
   600  0227  305F               	movlw	low __pdataBANK0
   601  0228  0086               	movwf	6
   602  0229  3000               	movlw	high __pdataBANK0
   603  022A  0087               	movwf	7
   604  022B  300E               	movlw	14
   605  022C  318E  2674  3182   	fcall	init_ram
   606                           
   607                           ; Initialize objects allocated to BANK1
   608  022F  30A4               	movlw	low __pidataBANK1
   609  0230  0084               	movwf	4
   610  0231  3087               	movlw	(high __pidataBANK1)| (0+128)
   611  0232  0085               	movwf	5
   612  0233  30A0               	movlw	low __pdataBANK1
   613  0234  0086               	movwf	6
   614  0235  3000               	movlw	high __pdataBANK1
   615  0236  0087               	movwf	7
   616  0237  302E               	movlw	46
   617  0238  318E  2674  3182   	fcall	init_ram
   618                           
   619                           ; Initialize objects allocated to BANK2
   620  023B  30D3               	movlw	low __pidataBANK2
   621  023C  0084               	movwf	4
   622  023D  3086               	movlw	(high __pidataBANK2)| (0+128)
   623  023E  0085               	movwf	5
   624  023F  3020               	movlw	low __pdataBANK2
   625  0240  0086               	movwf	6
   626  0241  3001               	movlw	high __pdataBANK2
   627  0242  0087               	movwf	7
   628  0243  303A               	movlw	58
   629  0244  318E  2674  3182   	fcall	init_ram
   630                           
   631                           ; Clear objects allocated to COMMON
   632  0247  01F5               	clrf	__pbssCOMMON& (0+127)
   633  0248  01F6               	clrf	(__pbssCOMMON+1)& (0+127)
   634                           
   635                           ; Clear objects allocated to BANK0
   636  0249  3049               	movlw	low __pbssBANK0
   637  024A  0084               	movwf	4
   638  024B  3000               	movlw	high __pbssBANK0
   639  024C  0085               	movwf	5
   640  024D  3016               	movlw	22
   641  024E  318E  266E         	fcall	clear_ram0
   642  0250                     end_of_initialization:	
   643                           ;End of C runtime variable initialization code
   644                           
   645  0250                     __end_of__initialization:	
   646  0250  107E               	bcf	int$flags,0	;clear compiler interrupt flag (level 1)
   647  0251  0020               	movlb	0
   648  0252  3182  2A54         	ljmp	_main	;jump to C main() function
   649                           
   650                           	psect	bssCOMMON
   651  0075                     __pbssCOMMON:	
   652  0075                     _mainReceivedDataPosition:	
   653  0075                     	ds	2
   654                           
   655                           	psect	dataCOMMON
   656  0077                     __pdataCOMMON:	
   657  0077                     _levelofDimmer_LSB:	
   658  0077                     	ds	1
   659  0078                     _levelofDimmer_MSB:	
   660  0078                     	ds	1
   661                           
   662                           	psect	bssBANK0
   663  0049                     __pbssBANK0:	
   664  0049                     _start_PWM_Generation_in_ISR_FLAG:	
   665  0049                     	ds	2
   666  004B                     _M9:	
   667  004B                     	ds	2
   668  004D                     _M8:	
   669  004D                     	ds	2
   670  004F                     _M7:	
   671  004F                     	ds	2
   672  0051                     _M6:	
   673  0051                     	ds	2
   674  0053                     _M5:	
   675  0053                     	ds	2
   676  0055                     _M4:	
   677  0055                     	ds	2
   678  0057                     _M3:	
   679  0057                     	ds	2
   680  0059                     _M2:	
   681  0059                     	ds	2
   682  005B                     _M1:	
   683  005B                     	ds	2
   684  005D                     _mainDataReceived:	
   685  005D                     	ds	2
   686                           
   687                           	psect	dataBANK0
   688  005F                     __pdataBANK0:	
   689  005F                     _tempReceivedDataBuffer:	
   690  005F                     	ds	10
   691  0069                     applianceControl@F3736:	
   692  0069                     	ds	2
   693  006B                     applianceControl@F3734:	
   694  006B                     	ds	2
   695                           
   696                           	psect	dataBANK1
   697  00A0                     __pdataBANK1:	
   698  00A0                     _mainReceivedDataBuffer:	
   699  00A0                     	ds	18
   700  00B2                     _copy_parentalLockBuffer:	
   701  00B2                     	ds	14
   702  00C0                     _parentalLockBuffer:	
   703  00C0                     	ds	14
   704                           
   705                           	psect	dataBANK2
   706  0120                     __pdataBANK2:	
   707  0120                     _currentStateBuffer:	
   708  0120                     	ds	58
   709                           
   710                           	psect	inittext
   711  0E74                     init_ram:	
   712  0E74  00FE               	movwf	126
   713  0E75                     initloop:	
   714  0E75  0012               	moviw fsr0++
   715  0E76  001E               	movwi fsr1++
   716  0E77  0BFE               	decfsz	126,f
   717  0E78  2E75               	goto	initloop
   718  0E79  3400               	retlw	0
   719                           
   720                           	psect	clrtext
   721  0E6E                     clear_ram0:	
   722                           ;	Called with FSR0 containing the base address, and
   723                           ;	WREG with the size to clear
   724                           
   725  0E6E  0064               	clrwdt	;clear the watchdog before getting into this loop
   726  0E6F                     clrloop0:	
   727  0E6F  0180               	clrf	0	;clear RAM location pointed to by FSR
   728  0E70  3101               	addfsr 0,1
   729  0E71  0B89               	decfsz	9,f	;Have we reached the end of clearing yet?
   730  0E72  2E6F               	goto	clrloop0	;have we reached the end yet?
   731  0E73  3400               	retlw	0	;all done for this memory range, return
   732                           
   733                           	psect	cstackBANK1
   734  00CE                     __pcstackBANK1:	
   735  00CE                     main@dataBufferCounter:	
   736                           
   737                           ; 2 bytes @ 0x0
   738  00CE                     	ds	2
   739  00D0                     main@man:	
   740                           
   741                           ; 2 bytes @ 0x2
   742  00D0                     	ds	2
   743                           
   744                           	psect	cstackCOMMON
   745  0070                     __pcstackCOMMON:	
   746  0070                     ?_isdigit:	
   747  0070                     ?_errorsISR:	
   748                           ; 1 bit 
   749                           
   750  0070                     ?_GPIO_pin_Initialize:	
   751                           ; 1 bytes @ 0x0
   752                           
   753  0070                     ?_allPeripheralInit:	
   754                           ; 1 bytes @ 0x0
   755                           
   756  0070                     ?_ReceivingIndicationLedBlinking:	
   757                           ; 1 bytes @ 0x0
   758                           
   759  0070                     ?_copyReceivedDataBuffer:	
   760                           ; 1 bytes @ 0x0
   761                           
   762  0070                     ?_SwitchOnStatustToGatway:	
   763                           ; 1 bytes @ 0x0
   764                           
   765  0070                     ?_TransmissionIndicationLedBlinking:	
   766                           ; 1 bytes @ 0x0
   767                           
   768  0070                     ?_SwitchOffStatustToGatway:	
   769                           ; 1 bytes @ 0x0
   770                           
   771  0070                     ?_sendAcknowledgment:	
   772                           ; 1 bytes @ 0x0
   773                           
   774  0070                     ?_clearAllPorts:	
   775                           ; 1 bytes @ 0x0
   776                           
   777  0070                     ?_pinINIT_extra:	
   778                           ; 1 bytes @ 0x0
   779                           
   780  0070                     ?_EUSART_Initialize:	
   781                           ; 1 bytes @ 0x0
   782                           
   783  0070                     ?_TMR1_Initialize:	
   784                           ; 1 bytes @ 0x0
   785                           
   786  0070                     ?_TMR2_Initialize:	
   787                           ; 1 bytes @ 0x0
   788                           
   789  0070                     ?_TMR3_Initialize:	
   790                           ; 1 bytes @ 0x0
   791                           
   792  0070                     ?_TMR4_Initialize:	
   793                           ; 1 bytes @ 0x0
   794                           
   795  0070                     ?_TMR5_Initialize:	
   796                           ; 1 bytes @ 0x0
   797                           
   798  0070                     ?_TMR6_Initialize:	
   799                           ; 1 bytes @ 0x0
   800                           
   801  0070                     ?_TMR8_Initialize:	
   802                           ; 1 bytes @ 0x0
   803                           
   804  0070                     ?_TMR10_Initialize:	
   805                           ; 1 bytes @ 0x0
   806                           
   807  0070                     ?_CCP9_Initialize:	
   808                           ; 1 bytes @ 0x0
   809                           
   810  0070                     ?_CCP8_Initialize:	
   811                           ; 1 bytes @ 0x0
   812                           
   813  0070                     ?_CCP7_Initialize:	
   814                           ; 1 bytes @ 0x0
   815                           
   816  0070                     ?_CCP10_Initialize:	
   817                           ; 1 bytes @ 0x0
   818                           
   819  0070                     ?_isr:	
   820                           ; 1 bytes @ 0x0
   821                           
   822  0070                     ?_main:	
   823                           ; 1 bytes @ 0x0
   824                           
   825  0070                     errorsISR@errNum:	
   826                           ; 2 bytes @ 0x0
   827                           
   828                           
   829                           ; 2 bytes @ 0x0
   830  0070                     	ds	2
   831  0072                     ??_errorsISR:	
   832                           
   833                           ; 1 bytes @ 0x2
   834  0072                     	ds	1
   835  0073                     ??_isr:	
   836                           
   837                           ; 1 bytes @ 0x3
   838  0073                     	ds	2
   839  0075                     ??_GPIO_pin_Initialize:	
   840  0075                     ??_allPeripheralInit:	
   841                           ; 1 bytes @ 0x5
   842                           
   843  0075                     ??_clearAllPorts:	
   844                           ; 1 bytes @ 0x5
   845                           
   846  0075                     ??_pinINIT_extra:	
   847                           ; 1 bytes @ 0x5
   848                           
   849  0075                     ??_EUSART_Initialize:	
   850                           ; 1 bytes @ 0x5
   851                           
   852  0075                     ??_TMR1_Initialize:	
   853                           ; 1 bytes @ 0x5
   854                           
   855  0075                     ??_TMR2_Initialize:	
   856                           ; 1 bytes @ 0x5
   857                           
   858  0075                     ??_TMR3_Initialize:	
   859                           ; 1 bytes @ 0x5
   860                           
   861  0075                     ??_TMR4_Initialize:	
   862                           ; 1 bytes @ 0x5
   863                           
   864  0075                     ??_TMR5_Initialize:	
   865                           ; 1 bytes @ 0x5
   866                           
   867  0075                     ??_TMR6_Initialize:	
   868                           ; 1 bytes @ 0x5
   869                           
   870  0075                     ??_TMR8_Initialize:	
   871                           ; 1 bytes @ 0x5
   872                           
   873  0075                     ??_TMR10_Initialize:	
   874                           ; 1 bytes @ 0x5
   875                           
   876  0075                     ??_CCP9_Initialize:	
   877                           ; 1 bytes @ 0x5
   878                           
   879  0075                     ??_CCP8_Initialize:	
   880                           ; 1 bytes @ 0x5
   881                           
   882  0075                     ??_CCP7_Initialize:	
   883                           ; 1 bytes @ 0x5
   884                           
   885  0075                     ??_CCP10_Initialize:	
   886                           ; 1 bytes @ 0x5
   887                           
   888  0075                     ??_isdigit:	
   889                           ; 1 bytes @ 0x5
   890                           
   891  0075                     ??___wmul:	
   892                           ; 1 bytes @ 0x5
   893                           
   894                           
   895                           	psect	cstackBANK0
   896  0020                     __pcstackBANK0:	
   897                           ; 1 bytes @ 0x5
   898                           
   899  0020                     ??_ReceivingIndicationLedBlinking:	
   900  0020                     ??_copyReceivedDataBuffer:	
   901                           ; 1 bytes @ 0x0
   902                           
   903  0020                     ?_errorsMain:	
   904                           ; 1 bytes @ 0x0
   905                           
   906  0020                     ??_SwitchOnStatustToGatway:	
   907                           ; 1 bytes @ 0x0
   908                           
   909  0020                     ??_TransmissionIndicationLedBlinking:	
   910                           ; 1 bytes @ 0x0
   911                           
   912  0020                     ??_SwitchOffStatustToGatway:	
   913                           ; 1 bytes @ 0x0
   914                           
   915  0020                     ??_sendAcknowledgment:	
   916                           ; 1 bytes @ 0x0
   917                           
   918  0020                     ?___wmul:	
   919                           ; 1 bytes @ 0x0
   920                           
   921  0020                     _isdigit$1120:	
   922                           ; 2 bytes @ 0x0
   923                           
   924  0020                     errorsMain@errNum:	
   925                           ; 1 bytes @ 0x0
   926                           
   927  0020                     ___wmul@multiplier:	
   928                           ; 2 bytes @ 0x0
   929                           
   930                           
   931                           ; 2 bytes @ 0x0
   932  0020                     	ds	1
   933  0021                     SwitchOffStatustToGatway@SwitchOffNumber:	
   934  0021                     SwitchOnStatustToGatway@SwitchOnNumber:	
   935                           ; 1 bytes @ 0x1
   936                           
   937  0021                     isdigit@c:	
   938                           ; 1 bytes @ 0x1
   939                           
   940  0021                     sendAcknowledgment@Tx_count:	
   941                           ; 1 bytes @ 0x1
   942                           
   943  0021                     copyReceivedDataBuffer@dataBufferCounter:	
   944                           ; 2 bytes @ 0x1
   945                           
   946                           
   947                           ; 2 bytes @ 0x1
   948  0021                     	ds	1
   949  0022                     ??_errorsMain:	
   950  0022                     ___wmul@multiplicand:	
   951                           ; 1 bytes @ 0x2
   952                           
   953                           
   954                           ; 2 bytes @ 0x2
   955  0022                     	ds	1
   956  0023                     sendAcknowledgment@currentStateBuffer:	
   957                           
   958                           ; 1 bytes @ 0x3
   959  0023                     	ds	1
   960  0024                     ___wmul@product:	
   961                           
   962                           ; 2 bytes @ 0x4
   963  0024                     	ds	2
   964  0026                     ?_atoi:	
   965                           
   966                           ; 2 bytes @ 0x6
   967  0026                     	ds	2
   968  0028                     ??_atoi:	
   969                           
   970                           ; 1 bytes @ 0x8
   971  0028                     	ds	2
   972  002A                     atoi@sign:	
   973                           
   974                           ; 1 bytes @ 0xA
   975  002A                     	ds	1
   976  002B                     atoi@a:	
   977                           
   978                           ; 2 bytes @ 0xB
   979  002B                     	ds	2
   980  002D                     atoi@s:	
   981                           
   982                           ; 1 bytes @ 0xD
   983  002D                     	ds	1
   984  002E                     ?_applianceControl:	
   985  002E                     applianceControl@charSwitchLSB:	
   986                           ; 1 bytes @ 0xE
   987                           
   988                           
   989                           ; 1 bytes @ 0xE
   990  002E                     	ds	1
   991  002F                     applianceControl@charSwitchSTATE:	
   992                           
   993                           ; 1 bytes @ 0xF
   994  002F                     	ds	1
   995  0030                     applianceControl@chDimmerSpeedMSB:	
   996                           
   997                           ; 1 bytes @ 0x10
   998  0030                     	ds	1
   999  0031                     applianceControl@chDimmerSpeedLSB:	
  1000                           
  1001                           ; 1 bytes @ 0x11
  1002  0031                     	ds	1
  1003  0032                     applianceControl@charParentalControl:	
  1004                           
  1005                           ; 1 bytes @ 0x12
  1006  0032                     	ds	1
  1007  0033                     applianceControl@charFinalFrameState:	
  1008                           
  1009                           ; 1 bytes @ 0x13
  1010  0033                     	ds	1
  1011  0034                     ??_applianceControl:	
  1012                           
  1013                           ; 1 bytes @ 0x14
  1014  0034                     	ds	2
  1015  0036                     applianceControl@integerSpeed:	
  1016                           
  1017                           ; 2 bytes @ 0x16
  1018  0036                     	ds	2
  1019  0038                     applianceControl@charSwitchMSB:	
  1020                           
  1021                           ; 1 bytes @ 0x18
  1022  0038                     	ds	1
  1023  0039                     applianceControl@switchNumberStringBuffer:	
  1024                           
  1025                           ; 2 bytes @ 0x19
  1026  0039                     	ds	2
  1027  003B                     applianceControl@dimmerSpeedStringBuffer:	
  1028                           
  1029                           ; 2 bytes @ 0x1B
  1030  003B                     	ds	2
  1031  003D                     applianceControl@integerSwitchNumber:	
  1032                           
  1033                           ; 2 bytes @ 0x1D
  1034  003D                     	ds	2
  1035  003F                     applianceControl@currentStateBufferPositions:	
  1036                           
  1037                           ; 2 bytes @ 0x1F
  1038  003F                     	ds	2
  1039  0041                     applianceControl@integerSwitchState:	
  1040                           
  1041                           ; 2 bytes @ 0x21
  1042  0041                     	ds	2
  1043  0043                     ??_main:	
  1044                           
  1045                           ; 1 bytes @ 0x23
  1046  0043                     	ds	6
  1047                           
  1048                           	psect	maintext
  1049  0254                     __pmaintext:	
  1050 ;;
  1051 ;;Main: autosize = 0, tempsize = 6, incstack = 0, save=0
  1052 ;;
  1053 ;; *************** function _main *****************
  1054 ;; Defined at:
  1055 ;;		line 871 in file "megaonoff.c"
  1056 ;; Parameters:    Size  Location     Type
  1057 ;;		None
  1058 ;; Auto vars:     Size  Location     Type
  1059 ;;  dataBufferCo    2    0[BANK1 ] int 
  1060 ;;  man             2    2[BANK1 ] int 
  1061 ;; Return value:  Size  Location     Type
  1062 ;;                  2  415[None  ] int 
  1063 ;; Registers used:
  1064 ;;		wreg, fsr0l, fsr0h, fsr1l, fsr1h, status,2, status,0, pclath, cstack
  1065 ;; Tracked objects:
  1066 ;;		On entry : B1F/0
  1067 ;;		On exit  : 0/0
  1068 ;;		Unchanged: 0/0
  1069 ;; Data sizes:     COMMON   BANK0   BANK1   BANK2   BANK3   BANK4   BANK5   BANK6   BANK7   BANK8   BANK9
  1070 ;;      Params:         0       0       0       0       0       0       0       0       0       0       0
  1071 ;;      Locals:         0       0       4       0       0       0       0       0       0       0       0
  1072 ;;      Temps:          0       6       0       0       0       0       0       0       0       0       0
  1073 ;;      Totals:         0       6       4       0       0       0       0       0       0       0       0
  1074 ;;Total ram usage:       10 bytes
  1075 ;; Hardware stack levels required when called:    5
  1076 ;; This function calls:
  1077 ;;		_GPIO_pin_Initialize
  1078 ;;		_ReceivingIndicationLedBlinking
  1079 ;;		_SwitchOffStatustToGatway
  1080 ;;		_SwitchOnStatustToGatway
  1081 ;;		_TransmissionIndicationLedBlinking
  1082 ;;		_allPeripheralInit
  1083 ;;		_applianceControl
  1084 ;;		_copyReceivedDataBuffer
  1085 ;;		_errorsMain
  1086 ;; This function is called by:
  1087 ;;		Startup code after reset
  1088 ;; This function uses a non-reentrant model
  1089 ;;
  1090                           
  1091                           
  1092                           ;psect for function _main
  1093  0254                     _main:	
  1094                           
  1095                           ;megaonoff.c: 872: _delay((unsigned long)((2000)*(16000000/4000.0)));
  1096                           
  1097                           ;incstack = 0
  1098                           ; Regs used in _main: [wreg-fsr1h+status,2+status,0+pclath+cstack]
  1099  0254  3029               	movlw	41
  1100  0255  0020               	movlb	0	; select bank0
  1101  0256  00C4               	movwf	??_main+1
  1102  0257  3096               	movlw	150
  1103  0258  00C3               	movwf	??_main
  1104  0259  307F               	movlw	127
  1105  025A                     u3297:	
  1106  025A  0B89               	decfsz	9,f
  1107  025B  2A5A               	goto	u3297
  1108  025C  0BC3               	decfsz	??_main,f
  1109  025D  2A5A               	goto	u3297
  1110  025E  0BC4               	decfsz	??_main+1,f
  1111  025F  2A5A               	goto	u3297
  1112                           
  1113                           ;megaonoff.c: 873: M1=1; M2=1; M3=1; M4=1; M5=1; M6=1; M7=1;M8=1;
  1114  0260  3001               	movlw	1
  1115  0261  0020               	movlb	0	; select bank0
  1116  0262  00DB               	movwf	_M1
  1117  0263  3000               	movlw	0
  1118  0264  00DC               	movwf	_M1+1
  1119  0265  3001               	movlw	1
  1120  0266  00D9               	movwf	_M2
  1121  0267  3000               	movlw	0
  1122  0268  00DA               	movwf	_M2+1
  1123  0269  3001               	movlw	1
  1124  026A  00D7               	movwf	_M3
  1125  026B  3000               	movlw	0
  1126  026C  00D8               	movwf	_M3+1
  1127  026D  3001               	movlw	1
  1128  026E  00D5               	movwf	_M4
  1129  026F  3000               	movlw	0
  1130  0270  00D6               	movwf	_M4+1
  1131  0271  3001               	movlw	1
  1132  0272  00D3               	movwf	_M5
  1133  0273  3000               	movlw	0
  1134  0274  00D4               	movwf	_M5+1
  1135  0275  3001               	movlw	1
  1136  0276  00D1               	movwf	_M6
  1137  0277  3000               	movlw	0
  1138  0278  00D2               	movwf	_M6+1
  1139  0279  3001               	movlw	1
  1140  027A  00CF               	movwf	_M7
  1141  027B  3000               	movlw	0
  1142  027C  00D0               	movwf	_M7+1
  1143  027D  3001               	movlw	1
  1144  027E  00CD               	movwf	_M8
  1145  027F  3000               	movlw	0
  1146  0280  00CE               	movwf	_M8+1
  1147                           
  1148                           ;megaonoff.c: 874: M9=1;
  1149  0281  3001               	movlw	1
  1150  0282  00CB               	movwf	_M9
  1151  0283  3000               	movlw	0
  1152  0284  00CC               	movwf	_M9+1
  1153                           
  1154                           ;megaonoff.c: 875: GPIO_pin_Initialize();
  1155  0285  3187  27D2  3182   	fcall	_GPIO_pin_Initialize
  1156                           
  1157                           ;megaonoff.c: 876: allPeripheralInit();
  1158  0288  318F  27D9  3182   	fcall	_allPeripheralInit
  1159  028B                     l4518:	
  1160                           ;megaonoff.c: 878: while(1){
  1161                           
  1162                           
  1163                           ;megaonoff.c: 879: if(mainDataReceived==1){
  1164  028B  0020               	movlb	0	; select bank0
  1165  028C  035D               	decf	_mainDataReceived,w
  1166  028D  045E               	iorwf	_mainDataReceived+1,w
  1167  028E  1D03               	btfss	3,2
  1168  028F  2B02               	goto	l4554
  1169                           
  1170                           ;megaonoff.c: 880: mainDataReceived=0;
  1171  0290  01DD               	clrf	_mainDataReceived
  1172  0291  01DE               	clrf	_mainDataReceived+1
  1173                           
  1174                           ;megaonoff.c: 881: if(mainReceivedDataBuffer[0]=='%' && mainReceivedDataBuffer[1]=='%' &
      +                          & mainReceivedDataBuffer[14]=='@' && mainReceivedDataBuffer[15]=='@'){
  1175  0292  3025               	movlw	37
  1176  0293  0021               	movlb	1	; select bank1
  1177  0294  0620               	xorwf	_mainReceivedDataBuffer^(0+128),w
  1178  0295  1D03               	btfss	3,2
  1179  0296  2AC7               	goto	l4536
  1180  0297  3025               	movlw	37
  1181  0298  0621               	xorwf	(_mainReceivedDataBuffer^(0+128)+1),w
  1182  0299  1D03               	btfss	3,2
  1183  029A  2AC7               	goto	l4536
  1184  029B  3040               	movlw	64
  1185  029C  062E               	xorwf	(_mainReceivedDataBuffer^(0+128)+14),w
  1186  029D  1D03               	btfss	3,2
  1187  029E  2AC7               	goto	l4536
  1188  029F  3040               	movlw	64
  1189  02A0  062F               	xorwf	(_mainReceivedDataBuffer^(0+128)+15),w
  1190  02A1  1D03               	btfss	3,2
  1191  02A2  2AC7               	goto	l4536
  1192                           
  1193                           ;megaonoff.c: 882: ReceivingIndicationLedBlinking();
  1194  02A3  318F  2710  3182   	fcall	_ReceivingIndicationLedBlinking
  1195                           
  1196                           ;megaonoff.c: 883: copyReceivedDataBuffer();
  1197  02A6  3187  2775  3182   	fcall	_copyReceivedDataBuffer
  1198                           
  1199                           ;megaonoff.c: 885: applianceControl(tempReceivedDataBuffer[0],
  1200                           ;megaonoff.c: 886: tempReceivedDataBuffer[1],
  1201                           ;megaonoff.c: 887: tempReceivedDataBuffer[2],
  1202                           ;megaonoff.c: 888: tempReceivedDataBuffer[3],
  1203                           ;megaonoff.c: 889: tempReceivedDataBuffer[4],
  1204                           ;megaonoff.c: 890: tempReceivedDataBuffer[5],
  1205                           ;megaonoff.c: 891: tempReceivedDataBuffer[6]);
  1206  02A9  0020               	movlb	0	; select bank0
  1207  02AA  0860               	movf	_tempReceivedDataBuffer+1,w
  1208  02AB  00C3               	movwf	??_main
  1209  02AC  0843               	movf	??_main,w
  1210  02AD  00AE               	movwf	applianceControl@charSwitchLSB
  1211  02AE  0861               	movf	_tempReceivedDataBuffer+2,w
  1212  02AF  00C4               	movwf	??_main+1
  1213  02B0  0844               	movf	??_main+1,w
  1214  02B1  00AF               	movwf	applianceControl@charSwitchSTATE
  1215  02B2  0862               	movf	_tempReceivedDataBuffer+3,w
  1216  02B3  00C5               	movwf	??_main+2
  1217  02B4  0845               	movf	??_main+2,w
  1218  02B5  00B0               	movwf	applianceControl@chDimmerSpeedMSB
  1219  02B6  0863               	movf	_tempReceivedDataBuffer+4,w
  1220  02B7  00C6               	movwf	??_main+3
  1221  02B8  0846               	movf	??_main+3,w
  1222  02B9  00B1               	movwf	applianceControl@chDimmerSpeedLSB
  1223  02BA  0864               	movf	_tempReceivedDataBuffer+5,w
  1224  02BB  00C7               	movwf	??_main+4
  1225  02BC  0847               	movf	??_main+4,w
  1226  02BD  00B2               	movwf	applianceControl@charParentalControl
  1227  02BE  0865               	movf	_tempReceivedDataBuffer+6,w
  1228  02BF  00C8               	movwf	??_main+5
  1229  02C0  0848               	movf	??_main+5,w
  1230  02C1  00B3               	movwf	applianceControl@charFinalFrameState
  1231  02C2  085F               	movf	_tempReceivedDataBuffer,w
  1232  02C3  3185  255C  3182   	fcall	_applianceControl
  1233                           
  1234                           ;megaonoff.c: 893: }
  1235  02C6  2B02               	goto	l4554
  1236  02C7                     l4536:	
  1237                           
  1238                           ;megaonoff.c: 894: else
  1239                           ;megaonoff.c: 895: {
  1240                           ;megaonoff.c: 897: errorsMain("ERLS");
  1241  02C7  3000               	movlw	low (STR_3| (0+32768))
  1242  02C8  0020               	movlb	0	; select bank0
  1243  02C9  00A0               	movwf	errorsMain@errNum
  1244  02CA  3090               	movlw	high (STR_3| (0+32768))
  1245  02CB  00A1               	movwf	errorsMain@errNum+1
  1246  02CC  318F  2786  3182   	fcall	_errorsMain
  1247                           
  1248                           ;megaonoff.c: 898: RC1STAbits.SPEN=0;
  1249  02CF  0023               	movlb	3	; select bank3
  1250  02D0  139D               	bcf	29,7	;volatile
  1251                           
  1252                           ;megaonoff.c: 899: RC1STAbits.CREN = 0;
  1253  02D1  121D               	bcf	29,4	;volatile
  1254                           
  1255                           ;megaonoff.c: 900: for(int dataBufferCounter = 0; dataBufferCounter< 15; dataBufferCount
      +                          er++)
  1256  02D2  0021               	movlb	1	; select bank1
  1257  02D3  01CE               	clrf	main@dataBufferCounter^(0+128)
  1258  02D4  01CF               	clrf	(main@dataBufferCounter+1)^(0+128)
  1259  02D5  084F               	movf	(main@dataBufferCounter+1)^(0+128),w
  1260  02D6  3A80               	xorlw	128
  1261  02D7  0020               	movlb	0	; select bank0
  1262  02D8  00C3               	movwf	??_main
  1263  02D9  3080               	movlw	128
  1264  02DA  0243               	subwf	??_main,w
  1265  02DB  1D03               	skipz
  1266  02DC  2AE0               	goto	u2555
  1267  02DD  300F               	movlw	15
  1268  02DE  0021               	movlb	1	; select bank1
  1269  02DF  024E               	subwf	main@dataBufferCounter^(0+128),w
  1270  02E0                     u2555:	
  1271  02E0  1803               	btfsc	3,0
  1272  02E1  2AFF               	goto	l421
  1273  02E2                     l4548:	
  1274                           
  1275                           ;megaonoff.c: 901: {
  1276                           ;megaonoff.c: 902: mainReceivedDataBuffer[dataBufferCounter] = '#';
  1277  02E2  3023               	movlw	35
  1278  02E3  0020               	movlb	0	; select bank0
  1279  02E4  00C3               	movwf	??_main
  1280  02E5  0021               	movlb	1	; select bank1
  1281  02E6  084E               	movf	main@dataBufferCounter^(0+128),w
  1282  02E7  3EA0               	addlw	(low (_mainReceivedDataBuffer| 0))& (0+255)
  1283  02E8  0086               	movwf	6
  1284  02E9  0187               	clrf	7
  1285  02EA  0020               	movlb	0	; select bank0
  1286  02EB  0843               	movf	??_main,w
  1287  02EC  0081               	movwf	1
  1288  02ED  3001               	movlw	1
  1289  02EE  0021               	movlb	1	; select bank1
  1290  02EF  07CE               	addwf	main@dataBufferCounter^(0+128),f
  1291  02F0  3000               	movlw	0
  1292  02F1  3DCF               	addwfc	(main@dataBufferCounter+1)^(0+128),f
  1293  02F2  084F               	movf	(main@dataBufferCounter+1)^(0+128),w
  1294  02F3  3A80               	xorlw	128
  1295  02F4  0020               	movlb	0	; select bank0
  1296  02F5  00C3               	movwf	??_main
  1297  02F6  3080               	movlw	128
  1298  02F7  0243               	subwf	??_main,w
  1299  02F8  1D03               	skipz
  1300  02F9  2AFD               	goto	u2565
  1301  02FA  300F               	movlw	15
  1302  02FB  0021               	movlb	1	; select bank1
  1303  02FC  024E               	subwf	main@dataBufferCounter^(0+128),w
  1304  02FD                     u2565:	
  1305  02FD  1C03               	skipc
  1306  02FE  2AE2               	goto	l4548
  1307  02FF                     l421:	
  1308                           
  1309                           ;megaonoff.c: 903: }
  1310                           ;megaonoff.c: 904: RC1STAbits.CREN = 1;
  1311  02FF  0023               	movlb	3	; select bank3
  1312  0300  161D               	bsf	29,4	;volatile
  1313                           
  1314                           ;megaonoff.c: 905: RC1STAbits.SPEN=1;
  1315  0301  179D               	bsf	29,7	;volatile
  1316  0302                     l4554:	
  1317                           
  1318                           ;megaonoff.c: 906: }
  1319                           ;megaonoff.c: 907: }
  1320                           ;megaonoff.c: 921: int man = 1;
  1321  0302  3001               	movlw	1
  1322  0303  0021               	movlb	1	; select bank1
  1323  0304  00D0               	movwf	main@man^(0+128)
  1324  0305  3000               	movlw	0
  1325  0306  00D1               	movwf	(main@man^(0+128)+1)
  1326                           
  1327                           ;megaonoff.c: 922: if(copy_parentalLockBuffer[1] == '0' && PORTDbits.RD6 == 0 && M1 == 0
      +                          )
  1328  0307  3030               	movlw	48
  1329  0308  0633               	xorwf	(_copy_parentalLockBuffer^(0+128)+1),w
  1330  0309  1D03               	btfss	3,2
  1331  030A  2B28               	goto	l4572
  1332  030B  0020               	movlb	0	; select bank0
  1333  030C  1B0F               	btfsc	15,6	;volatile
  1334  030D  2B28               	goto	l4572
  1335  030E  085B               	movf	_M1,w
  1336  030F  045C               	iorwf	_M1+1,w
  1337  0310  1D03               	btfss	3,2
  1338  0311  2B28               	goto	l4572
  1339                           
  1340                           ;megaonoff.c: 923: {
  1341                           ;megaonoff.c: 924: if(man == 1)
  1342  0312  0021               	movlb	1	; select bank1
  1343  0313  0350               	decf	main@man^(0+128),w
  1344  0314  0451               	iorwf	(main@man+1)^(0+128),w
  1345  0315  1D03               	btfss	3,2
  1346  0316  2B20               	goto	l4568
  1347                           
  1348                           ;megaonoff.c: 925: {
  1349                           ;megaonoff.c: 926: SwitchOnStatustToGatway('1');
  1350  0317  3031               	movlw	49
  1351  0318  3187  270D  3182   	fcall	_SwitchOnStatustToGatway
  1352                           
  1353                           ;megaonoff.c: 928: TransmissionIndicationLedBlinking();
  1354  031B  318F  2721  3182   	fcall	_TransmissionIndicationLedBlinking
  1355                           
  1356                           ;megaonoff.c: 929: PORTEbits.RE0=1;
  1357  031E  0020               	movlb	0	; select bank0
  1358  031F  1410               	bsf	16,0	;volatile
  1359  0320                     l4568:	
  1360                           
  1361                           ;megaonoff.c: 931: }
  1362                           ;megaonoff.c: 932: man=0;
  1363  0320  0021               	movlb	1	; select bank1
  1364  0321  01D0               	clrf	main@man^(0+128)
  1365  0322  01D1               	clrf	(main@man+1)^(0+128)
  1366                           
  1367                           ;megaonoff.c: 933: M1=1;
  1368  0323  3001               	movlw	1
  1369  0324  0020               	movlb	0	; select bank0
  1370  0325  00DB               	movwf	_M1
  1371  0326  3000               	movlw	0
  1372  0327  00DC               	movwf	_M1+1
  1373  0328                     l4572:	
  1374                           
  1375                           ;megaonoff.c: 935: }
  1376                           ;megaonoff.c: 937: if(copy_parentalLockBuffer[1] == '0' && PORTDbits.RD6 == 1 && M1 == 1
      +                          )
  1377  0328  3030               	movlw	48
  1378  0329  0021               	movlb	1	; select bank1
  1379  032A  0633               	xorwf	(_copy_parentalLockBuffer^(0+128)+1),w
  1380  032B  1D03               	btfss	3,2
  1381  032C  2B48               	goto	l4588
  1382  032D  0020               	movlb	0	; select bank0
  1383  032E  1F0F               	btfss	15,6	;volatile
  1384  032F  2B48               	goto	l4588
  1385  0330  035B               	decf	_M1,w
  1386  0331  045C               	iorwf	_M1+1,w
  1387  0332  1D03               	btfss	3,2
  1388  0333  2B48               	goto	l4588
  1389                           
  1390                           ;megaonoff.c: 938: {
  1391                           ;megaonoff.c: 940: if(man==1)
  1392  0334  0021               	movlb	1	; select bank1
  1393  0335  0350               	decf	main@man^(0+128),w
  1394  0336  0451               	iorwf	(main@man+1)^(0+128),w
  1395  0337  1D03               	btfss	3,2
  1396  0338  2B42               	goto	l4584
  1397                           
  1398                           ;megaonoff.c: 941: {
  1399                           ;megaonoff.c: 942: SwitchOffStatustToGatway('1');
  1400  0339  3031               	movlw	49
  1401  033A  3187  2741  3182   	fcall	_SwitchOffStatustToGatway
  1402                           
  1403                           ;megaonoff.c: 943: TransmissionIndicationLedBlinking();
  1404  033D  318F  2721  3182   	fcall	_TransmissionIndicationLedBlinking
  1405                           
  1406                           ;megaonoff.c: 944: PORTEbits.RE0=0;
  1407  0340  0020               	movlb	0	; select bank0
  1408  0341  1010               	bcf	16,0	;volatile
  1409  0342                     l4584:	
  1410                           
  1411                           ;megaonoff.c: 945: }
  1412                           ;megaonoff.c: 946: man=0;
  1413  0342  0021               	movlb	1	; select bank1
  1414  0343  01D0               	clrf	main@man^(0+128)
  1415  0344  01D1               	clrf	(main@man+1)^(0+128)
  1416                           
  1417                           ;megaonoff.c: 947: M1=0;
  1418  0345  0020               	movlb	0	; select bank0
  1419  0346  01DB               	clrf	_M1
  1420  0347  01DC               	clrf	_M1+1
  1421  0348                     l4588:	
  1422                           
  1423                           ;megaonoff.c: 948: }
  1424                           ;megaonoff.c: 952: if(copy_parentalLockBuffer[2] == '0' && PORTDbits.RD7 == 0 && M2 == 0
      +                          )
  1425  0348  3030               	movlw	48
  1426  0349  0021               	movlb	1	; select bank1
  1427  034A  0634               	xorwf	(_copy_parentalLockBuffer^(0+128)+2),w
  1428  034B  1D03               	btfss	3,2
  1429  034C  2B6A               	goto	l4604
  1430  034D  0020               	movlb	0	; select bank0
  1431  034E  1B8F               	btfsc	15,7	;volatile
  1432  034F  2B6A               	goto	l4604
  1433  0350  0859               	movf	_M2,w
  1434  0351  045A               	iorwf	_M2+1,w
  1435  0352  1D03               	btfss	3,2
  1436  0353  2B6A               	goto	l4604
  1437                           
  1438                           ;megaonoff.c: 953: {
  1439                           ;megaonoff.c: 954: if(man==1)
  1440  0354  0021               	movlb	1	; select bank1
  1441  0355  0350               	decf	main@man^(0+128),w
  1442  0356  0451               	iorwf	(main@man+1)^(0+128),w
  1443  0357  1D03               	btfss	3,2
  1444  0358  2B62               	goto	l4600
  1445                           
  1446                           ;megaonoff.c: 955: {
  1447                           ;megaonoff.c: 956: SwitchOnStatustToGatway('2');
  1448  0359  3032               	movlw	50
  1449  035A  3187  270D  3182   	fcall	_SwitchOnStatustToGatway
  1450                           
  1451                           ;megaonoff.c: 957: TransmissionIndicationLedBlinking();
  1452  035D  318F  2721  3182   	fcall	_TransmissionIndicationLedBlinking
  1453                           
  1454                           ;megaonoff.c: 958: PORTEbits.RE1=1;
  1455  0360  0020               	movlb	0	; select bank0
  1456  0361  1490               	bsf	16,1	;volatile
  1457  0362                     l4600:	
  1458                           
  1459                           ;megaonoff.c: 959: }
  1460                           ;megaonoff.c: 960: man=0;
  1461  0362  0021               	movlb	1	; select bank1
  1462  0363  01D0               	clrf	main@man^(0+128)
  1463  0364  01D1               	clrf	(main@man+1)^(0+128)
  1464                           
  1465                           ;megaonoff.c: 961: M2=1;
  1466  0365  3001               	movlw	1
  1467  0366  0020               	movlb	0	; select bank0
  1468  0367  00D9               	movwf	_M2
  1469  0368  3000               	movlw	0
  1470  0369  00DA               	movwf	_M2+1
  1471  036A                     l4604:	
  1472                           
  1473                           ;megaonoff.c: 962: }
  1474                           ;megaonoff.c: 964: if(copy_parentalLockBuffer[2] == '0' && PORTDbits.RD7 == 1 && M2 == 1
      +                          )
  1475  036A  3030               	movlw	48
  1476  036B  0021               	movlb	1	; select bank1
  1477  036C  0634               	xorwf	(_copy_parentalLockBuffer^(0+128)+2),w
  1478  036D  1D03               	btfss	3,2
  1479  036E  2B8A               	goto	l4620
  1480  036F  0020               	movlb	0	; select bank0
  1481  0370  1F8F               	btfss	15,7	;volatile
  1482  0371  2B8A               	goto	l4620
  1483  0372  0359               	decf	_M2,w
  1484  0373  045A               	iorwf	_M2+1,w
  1485  0374  1D03               	btfss	3,2
  1486  0375  2B8A               	goto	l4620
  1487                           
  1488                           ;megaonoff.c: 965: {
  1489                           ;megaonoff.c: 966: if(man==1)
  1490  0376  0021               	movlb	1	; select bank1
  1491  0377  0350               	decf	main@man^(0+128),w
  1492  0378  0451               	iorwf	(main@man+1)^(0+128),w
  1493  0379  1D03               	btfss	3,2
  1494  037A  2B84               	goto	l4616
  1495                           
  1496                           ;megaonoff.c: 967: {
  1497                           ;megaonoff.c: 968: SwitchOffStatustToGatway('2');
  1498  037B  3032               	movlw	50
  1499  037C  3187  2741  3182   	fcall	_SwitchOffStatustToGatway
  1500                           
  1501                           ;megaonoff.c: 969: TransmissionIndicationLedBlinking();
  1502  037F  318F  2721  3182   	fcall	_TransmissionIndicationLedBlinking
  1503                           
  1504                           ;megaonoff.c: 970: PORTEbits.RE1=0;
  1505  0382  0020               	movlb	0	; select bank0
  1506  0383  1090               	bcf	16,1	;volatile
  1507  0384                     l4616:	
  1508                           
  1509                           ;megaonoff.c: 971: }
  1510                           ;megaonoff.c: 972: man=0;
  1511  0384  0021               	movlb	1	; select bank1
  1512  0385  01D0               	clrf	main@man^(0+128)
  1513  0386  01D1               	clrf	(main@man+1)^(0+128)
  1514                           
  1515                           ;megaonoff.c: 973: M2=0;
  1516  0387  0020               	movlb	0	; select bank0
  1517  0388  01D9               	clrf	_M2
  1518  0389  01DA               	clrf	_M2+1
  1519  038A                     l4620:	
  1520                           
  1521                           ;megaonoff.c: 974: }
  1522                           ;megaonoff.c: 979: if(copy_parentalLockBuffer[3] == '0' && PORTBbits.RB0 == 0 && M3 == 0
      +                          )
  1523  038A  3030               	movlw	48
  1524  038B  0021               	movlb	1	; select bank1
  1525  038C  0635               	xorwf	(_copy_parentalLockBuffer^(0+128)+3),w
  1526  038D  1D03               	btfss	3,2
  1527  038E  2BAC               	goto	l4636
  1528  038F  0020               	movlb	0	; select bank0
  1529  0390  180D               	btfsc	13,0	;volatile
  1530  0391  2BAC               	goto	l4636
  1531  0392  0857               	movf	_M3,w
  1532  0393  0458               	iorwf	_M3+1,w
  1533  0394  1D03               	btfss	3,2
  1534  0395  2BAC               	goto	l4636
  1535                           
  1536                           ;megaonoff.c: 980: {
  1537                           ;megaonoff.c: 981: if(man == 1)
  1538  0396  0021               	movlb	1	; select bank1
  1539  0397  0350               	decf	main@man^(0+128),w
  1540  0398  0451               	iorwf	(main@man+1)^(0+128),w
  1541  0399  1D03               	btfss	3,2
  1542  039A  2BA4               	goto	l4632
  1543                           
  1544                           ;megaonoff.c: 982: {
  1545                           ;megaonoff.c: 983: SwitchOnStatustToGatway('3');
  1546  039B  3033               	movlw	51
  1547  039C  3187  270D  3182   	fcall	_SwitchOnStatustToGatway
  1548                           
  1549                           ;megaonoff.c: 984: TransmissionIndicationLedBlinking();
  1550  039F  318F  2721  3182   	fcall	_TransmissionIndicationLedBlinking
  1551                           
  1552                           ;megaonoff.c: 985: PORTGbits.RG0=1;
  1553  03A2  0025               	movlb	5	; select bank5
  1554  03A3  140D               	bsf	13,0	;volatile
  1555  03A4                     l4632:	
  1556                           
  1557                           ;megaonoff.c: 986: }
  1558                           ;megaonoff.c: 987: man=0;
  1559  03A4  0021               	movlb	1	; select bank1
  1560  03A5  01D0               	clrf	main@man^(0+128)
  1561  03A6  01D1               	clrf	(main@man+1)^(0+128)
  1562                           
  1563                           ;megaonoff.c: 988: M3=1;
  1564  03A7  3001               	movlw	1
  1565  03A8  0020               	movlb	0	; select bank0
  1566  03A9  00D7               	movwf	_M3
  1567  03AA  3000               	movlw	0
  1568  03AB  00D8               	movwf	_M3+1
  1569  03AC                     l4636:	
  1570                           
  1571                           ;megaonoff.c: 990: }
  1572                           ;megaonoff.c: 992: if(copy_parentalLockBuffer[3] == '0' && PORTBbits.RB0 == 1 && M3 == 1
      +                          )
  1573  03AC  3030               	movlw	48
  1574  03AD  0021               	movlb	1	; select bank1
  1575  03AE  0635               	xorwf	(_copy_parentalLockBuffer^(0+128)+3),w
  1576  03AF  1D03               	btfss	3,2
  1577  03B0  2BCC               	goto	l4652
  1578  03B1  0020               	movlb	0	; select bank0
  1579  03B2  1C0D               	btfss	13,0	;volatile
  1580  03B3  2BCC               	goto	l4652
  1581  03B4  0357               	decf	_M3,w
  1582  03B5  0458               	iorwf	_M3+1,w
  1583  03B6  1D03               	btfss	3,2
  1584  03B7  2BCC               	goto	l4652
  1585                           
  1586                           ;megaonoff.c: 993: {
  1587                           ;megaonoff.c: 994: if(man==1)
  1588  03B8  0021               	movlb	1	; select bank1
  1589  03B9  0350               	decf	main@man^(0+128),w
  1590  03BA  0451               	iorwf	(main@man+1)^(0+128),w
  1591  03BB  1D03               	btfss	3,2
  1592  03BC  2BC6               	goto	l4648
  1593                           
  1594                           ;megaonoff.c: 995: {
  1595                           ;megaonoff.c: 996: SwitchOffStatustToGatway('3');
  1596  03BD  3033               	movlw	51
  1597  03BE  3187  2741  3182   	fcall	_SwitchOffStatustToGatway
  1598                           
  1599                           ;megaonoff.c: 998: TransmissionIndicationLedBlinking();
  1600  03C1  318F  2721  3182   	fcall	_TransmissionIndicationLedBlinking
  1601                           
  1602                           ;megaonoff.c: 999: PORTGbits.RG0=0;
  1603  03C4  0025               	movlb	5	; select bank5
  1604  03C5  100D               	bcf	13,0	;volatile
  1605  03C6                     l4648:	
  1606                           
  1607                           ;megaonoff.c: 1000: }
  1608                           ;megaonoff.c: 1001: man=0;
  1609  03C6  0021               	movlb	1	; select bank1
  1610  03C7  01D0               	clrf	main@man^(0+128)
  1611  03C8  01D1               	clrf	(main@man+1)^(0+128)
  1612                           
  1613                           ;megaonoff.c: 1002: M3=0;
  1614  03C9  0020               	movlb	0	; select bank0
  1615  03CA  01D7               	clrf	_M3
  1616  03CB  01D8               	clrf	_M3+1
  1617  03CC                     l4652:	
  1618                           
  1619                           ;megaonoff.c: 1004: }
  1620                           ;megaonoff.c: 1009: if(copy_parentalLockBuffer[4] == '0' && PORTBbits.RB1 == 0 && M4 == 
      +                          0)
  1621  03CC  3030               	movlw	48
  1622  03CD  0021               	movlb	1	; select bank1
  1623  03CE  0636               	xorwf	(_copy_parentalLockBuffer^(0+128)+4),w
  1624  03CF  1D03               	btfss	3,2
  1625  03D0  2BEE               	goto	l4668
  1626  03D1  0020               	movlb	0	; select bank0
  1627  03D2  188D               	btfsc	13,1	;volatile
  1628  03D3  2BEE               	goto	l4668
  1629  03D4  0855               	movf	_M4,w
  1630  03D5  0456               	iorwf	_M4+1,w
  1631  03D6  1D03               	btfss	3,2
  1632  03D7  2BEE               	goto	l4668
  1633                           
  1634                           ;megaonoff.c: 1010: {
  1635                           ;megaonoff.c: 1011: if(man==1)
  1636  03D8  0021               	movlb	1	; select bank1
  1637  03D9  0350               	decf	main@man^(0+128),w
  1638  03DA  0451               	iorwf	(main@man+1)^(0+128),w
  1639  03DB  1D03               	btfss	3,2
  1640  03DC  2BE6               	goto	l4664
  1641                           
  1642                           ;megaonoff.c: 1012: {
  1643                           ;megaonoff.c: 1013: SwitchOnStatustToGatway('4');
  1644  03DD  3034               	movlw	52
  1645  03DE  3187  270D  3182   	fcall	_SwitchOnStatustToGatway
  1646                           
  1647                           ;megaonoff.c: 1014: TransmissionIndicationLedBlinking();
  1648  03E1  318F  2721  3182   	fcall	_TransmissionIndicationLedBlinking
  1649                           
  1650                           ;megaonoff.c: 1015: PORTGbits.RG3=1;
  1651  03E4  0025               	movlb	5	; select bank5
  1652  03E5  158D               	bsf	13,3	;volatile
  1653  03E6                     l4664:	
  1654                           
  1655                           ;megaonoff.c: 1016: }
  1656                           ;megaonoff.c: 1017: man=0;
  1657  03E6  0021               	movlb	1	; select bank1
  1658  03E7  01D0               	clrf	main@man^(0+128)
  1659  03E8  01D1               	clrf	(main@man+1)^(0+128)
  1660                           
  1661                           ;megaonoff.c: 1018: M4=1;
  1662  03E9  3001               	movlw	1
  1663  03EA  0020               	movlb	0	; select bank0
  1664  03EB  00D5               	movwf	_M4
  1665  03EC  3000               	movlw	0
  1666  03ED  00D6               	movwf	_M4+1
  1667  03EE                     l4668:	
  1668                           
  1669                           ;megaonoff.c: 1020: }
  1670                           ;megaonoff.c: 1022: if(copy_parentalLockBuffer[4] == '0' && PORTBbits.RB1 == 1 && M4 == 
      +                          1)
  1671  03EE  3030               	movlw	48
  1672  03EF  0021               	movlb	1	; select bank1
  1673  03F0  0636               	xorwf	(_copy_parentalLockBuffer^(0+128)+4),w
  1674  03F1  1D03               	btfss	3,2
  1675  03F2  2C0E               	goto	l4684
  1676  03F3  0020               	movlb	0	; select bank0
  1677  03F4  1C8D               	btfss	13,1	;volatile
  1678  03F5  2C0E               	goto	l4684
  1679  03F6  0355               	decf	_M4,w
  1680  03F7  0456               	iorwf	_M4+1,w
  1681  03F8  1D03               	btfss	3,2
  1682  03F9  2C0E               	goto	l4684
  1683                           
  1684                           ;megaonoff.c: 1023: {
  1685                           ;megaonoff.c: 1024: if(man==1)
  1686  03FA  0021               	movlb	1	; select bank1
  1687  03FB  0350               	decf	main@man^(0+128),w
  1688  03FC  0451               	iorwf	(main@man+1)^(0+128),w
  1689  03FD  1D03               	btfss	3,2
  1690  03FE  2C08               	goto	l4680
  1691                           
  1692                           ;megaonoff.c: 1025: {
  1693                           ;megaonoff.c: 1027: SwitchOffStatustToGatway('4');
  1694  03FF  3034               	movlw	52
  1695  0400  3187  2741  3182   	fcall	_SwitchOffStatustToGatway
  1696                           
  1697                           ;megaonoff.c: 1028: TransmissionIndicationLedBlinking();
  1698  0403  318F  2721  3182   	fcall	_TransmissionIndicationLedBlinking
  1699                           
  1700                           ;megaonoff.c: 1029: PORTGbits.RG3=0;
  1701  0406  0025               	movlb	5	; select bank5
  1702  0407  118D               	bcf	13,3	;volatile
  1703  0408                     l4680:	
  1704                           
  1705                           ;megaonoff.c: 1030: }
  1706                           ;megaonoff.c: 1031: man=0;
  1707  0408  0021               	movlb	1	; select bank1
  1708  0409  01D0               	clrf	main@man^(0+128)
  1709  040A  01D1               	clrf	(main@man+1)^(0+128)
  1710                           
  1711                           ;megaonoff.c: 1032: M4=0;
  1712  040B  0020               	movlb	0	; select bank0
  1713  040C  01D5               	clrf	_M4
  1714  040D  01D6               	clrf	_M4+1
  1715  040E                     l4684:	
  1716                           
  1717                           ;megaonoff.c: 1034: }
  1718                           ;megaonoff.c: 1036: if(copy_parentalLockBuffer[5] == '0' && PORTBbits.RB2 == 0 && M5 == 
      +                          0)
  1719  040E  3030               	movlw	48
  1720  040F  0021               	movlb	1	; select bank1
  1721  0410  0637               	xorwf	(_copy_parentalLockBuffer^(0+128)+5),w
  1722  0411  1D03               	btfss	3,2
  1723  0412  2C30               	goto	l4700
  1724  0413  0020               	movlb	0	; select bank0
  1725  0414  190D               	btfsc	13,2	;volatile
  1726  0415  2C30               	goto	l4700
  1727  0416  0853               	movf	_M5,w
  1728  0417  0454               	iorwf	_M5+1,w
  1729  0418  1D03               	btfss	3,2
  1730  0419  2C30               	goto	l4700
  1731                           
  1732                           ;megaonoff.c: 1037: {
  1733                           ;megaonoff.c: 1038: if(man==1)
  1734  041A  0021               	movlb	1	; select bank1
  1735  041B  0350               	decf	main@man^(0+128),w
  1736  041C  0451               	iorwf	(main@man+1)^(0+128),w
  1737  041D  1D03               	btfss	3,2
  1738  041E  2C28               	goto	l4696
  1739                           
  1740                           ;megaonoff.c: 1039: {
  1741                           ;megaonoff.c: 1040: SwitchOnStatustToGatway('5');
  1742  041F  3035               	movlw	53
  1743  0420  3187  270D  3182   	fcall	_SwitchOnStatustToGatway
  1744                           
  1745                           ;megaonoff.c: 1041: TransmissionIndicationLedBlinking();
  1746  0423  318F  2721  3182   	fcall	_TransmissionIndicationLedBlinking
  1747                           
  1748                           ;megaonoff.c: 1042: PORTGbits.RG4=1;
  1749  0426  0025               	movlb	5	; select bank5
  1750  0427  160D               	bsf	13,4	;volatile
  1751  0428                     l4696:	
  1752                           
  1753                           ;megaonoff.c: 1043: }
  1754                           ;megaonoff.c: 1044: man=0;
  1755  0428  0021               	movlb	1	; select bank1
  1756  0429  01D0               	clrf	main@man^(0+128)
  1757  042A  01D1               	clrf	(main@man+1)^(0+128)
  1758                           
  1759                           ;megaonoff.c: 1045: M5=1;
  1760  042B  3001               	movlw	1
  1761  042C  0020               	movlb	0	; select bank0
  1762  042D  00D3               	movwf	_M5
  1763  042E  3000               	movlw	0
  1764  042F  00D4               	movwf	_M5+1
  1765  0430                     l4700:	
  1766                           
  1767                           ;megaonoff.c: 1047: }
  1768                           ;megaonoff.c: 1049: if(copy_parentalLockBuffer[5] == '0' && PORTBbits.RB2 == 1 && M5 == 
      +                          1)
  1769  0430  3030               	movlw	48
  1770  0431  0021               	movlb	1	; select bank1
  1771  0432  0637               	xorwf	(_copy_parentalLockBuffer^(0+128)+5),w
  1772  0433  1D03               	btfss	3,2
  1773  0434  2C50               	goto	l4716
  1774  0435  0020               	movlb	0	; select bank0
  1775  0436  1D0D               	btfss	13,2	;volatile
  1776  0437  2C50               	goto	l4716
  1777  0438  0353               	decf	_M5,w
  1778  0439  0454               	iorwf	_M5+1,w
  1779  043A  1D03               	btfss	3,2
  1780  043B  2C50               	goto	l4716
  1781                           
  1782                           ;megaonoff.c: 1050: {
  1783                           ;megaonoff.c: 1051: if(man==1)
  1784  043C  0021               	movlb	1	; select bank1
  1785  043D  0350               	decf	main@man^(0+128),w
  1786  043E  0451               	iorwf	(main@man+1)^(0+128),w
  1787  043F  1D03               	btfss	3,2
  1788  0440  2C4A               	goto	l4712
  1789                           
  1790                           ;megaonoff.c: 1052: {
  1791                           ;megaonoff.c: 1054: SwitchOffStatustToGatway('5');
  1792  0441  3035               	movlw	53
  1793  0442  3187  2741  3182   	fcall	_SwitchOffStatustToGatway
  1794                           
  1795                           ;megaonoff.c: 1055: TransmissionIndicationLedBlinking();
  1796  0445  318F  2721  3182   	fcall	_TransmissionIndicationLedBlinking
  1797                           
  1798                           ;megaonoff.c: 1056: PORTGbits.RG4=0;
  1799  0448  0025               	movlb	5	; select bank5
  1800  0449  120D               	bcf	13,4	;volatile
  1801  044A                     l4712:	
  1802                           
  1803                           ;megaonoff.c: 1057: }
  1804                           ;megaonoff.c: 1058: man=0;
  1805  044A  0021               	movlb	1	; select bank1
  1806  044B  01D0               	clrf	main@man^(0+128)
  1807  044C  01D1               	clrf	(main@man+1)^(0+128)
  1808                           
  1809                           ;megaonoff.c: 1059: M5=0;
  1810  044D  0020               	movlb	0	; select bank0
  1811  044E  01D3               	clrf	_M5
  1812  044F  01D4               	clrf	_M5+1
  1813  0450                     l4716:	
  1814                           
  1815                           ;megaonoff.c: 1061: }
  1816                           ;megaonoff.c: 1064: if(copy_parentalLockBuffer[6] == '0' && PORTBbits.RB3 == 0 && M6 == 
      +                          0)
  1817  0450  3030               	movlw	48
  1818  0451  0021               	movlb	1	; select bank1
  1819  0452  0638               	xorwf	(_copy_parentalLockBuffer^(0+128)+6),w
  1820  0453  1D03               	btfss	3,2
  1821  0454  2C72               	goto	l4732
  1822  0455  0020               	movlb	0	; select bank0
  1823  0456  198D               	btfsc	13,3	;volatile
  1824  0457  2C72               	goto	l4732
  1825  0458  0851               	movf	_M6,w
  1826  0459  0452               	iorwf	_M6+1,w
  1827  045A  1D03               	btfss	3,2
  1828  045B  2C72               	goto	l4732
  1829                           
  1830                           ;megaonoff.c: 1065: {
  1831                           ;megaonoff.c: 1066: if(man==1)
  1832  045C  0021               	movlb	1	; select bank1
  1833  045D  0350               	decf	main@man^(0+128),w
  1834  045E  0451               	iorwf	(main@man+1)^(0+128),w
  1835  045F  1D03               	btfss	3,2
  1836  0460  2C6A               	goto	l4728
  1837                           
  1838                           ;megaonoff.c: 1067: {
  1839                           ;megaonoff.c: 1068: SwitchOnStatustToGatway('6');
  1840  0461  3036               	movlw	54
  1841  0462  3187  270D  3182   	fcall	_SwitchOnStatustToGatway
  1842                           
  1843                           ;megaonoff.c: 1069: TransmissionIndicationLedBlinking();
  1844  0465  318F  2721  3182   	fcall	_TransmissionIndicationLedBlinking
  1845                           
  1846                           ;megaonoff.c: 1070: PORTFbits.RF6=1;
  1847  0468  0025               	movlb	5	; select bank5
  1848  0469  170C               	bsf	12,6	;volatile
  1849  046A                     l4728:	
  1850                           
  1851                           ;megaonoff.c: 1071: }
  1852                           ;megaonoff.c: 1072: man=0;
  1853  046A  0021               	movlb	1	; select bank1
  1854  046B  01D0               	clrf	main@man^(0+128)
  1855  046C  01D1               	clrf	(main@man+1)^(0+128)
  1856                           
  1857                           ;megaonoff.c: 1073: M6=1;
  1858  046D  3001               	movlw	1
  1859  046E  0020               	movlb	0	; select bank0
  1860  046F  00D1               	movwf	_M6
  1861  0470  3000               	movlw	0
  1862  0471  00D2               	movwf	_M6+1
  1863  0472                     l4732:	
  1864                           
  1865                           ;megaonoff.c: 1075: }
  1866                           ;megaonoff.c: 1077: if(copy_parentalLockBuffer[6] == '0' && PORTBbits.RB3 == 1 && M6 == 
      +                          1)
  1867  0472  3030               	movlw	48
  1868  0473  0021               	movlb	1	; select bank1
  1869  0474  0638               	xorwf	(_copy_parentalLockBuffer^(0+128)+6),w
  1870  0475  1D03               	btfss	3,2
  1871  0476  2C92               	goto	l4748
  1872  0477  0020               	movlb	0	; select bank0
  1873  0478  1D8D               	btfss	13,3	;volatile
  1874  0479  2C92               	goto	l4748
  1875  047A  0351               	decf	_M6,w
  1876  047B  0452               	iorwf	_M6+1,w
  1877  047C  1D03               	btfss	3,2
  1878  047D  2C92               	goto	l4748
  1879                           
  1880                           ;megaonoff.c: 1078: {
  1881                           ;megaonoff.c: 1079: if(man==1)
  1882  047E  0021               	movlb	1	; select bank1
  1883  047F  0350               	decf	main@man^(0+128),w
  1884  0480  0451               	iorwf	(main@man+1)^(0+128),w
  1885  0481  1D03               	btfss	3,2
  1886  0482  2C8C               	goto	l4744
  1887                           
  1888                           ;megaonoff.c: 1080: {
  1889                           ;megaonoff.c: 1082: SwitchOffStatustToGatway('6');
  1890  0483  3036               	movlw	54
  1891  0484  3187  2741  3182   	fcall	_SwitchOffStatustToGatway
  1892                           
  1893                           ;megaonoff.c: 1083: TransmissionIndicationLedBlinking();
  1894  0487  318F  2721  3182   	fcall	_TransmissionIndicationLedBlinking
  1895                           
  1896                           ;megaonoff.c: 1084: PORTFbits.RF6=0;
  1897  048A  0025               	movlb	5	; select bank5
  1898  048B  130C               	bcf	12,6	;volatile
  1899  048C                     l4744:	
  1900                           
  1901                           ;megaonoff.c: 1085: }
  1902                           ;megaonoff.c: 1086: man=0;
  1903  048C  0021               	movlb	1	; select bank1
  1904  048D  01D0               	clrf	main@man^(0+128)
  1905  048E  01D1               	clrf	(main@man+1)^(0+128)
  1906                           
  1907                           ;megaonoff.c: 1087: M6=0;
  1908  048F  0020               	movlb	0	; select bank0
  1909  0490  01D1               	clrf	_M6
  1910  0491  01D2               	clrf	_M6+1
  1911  0492                     l4748:	
  1912                           
  1913                           ;megaonoff.c: 1089: }
  1914                           ;megaonoff.c: 1093: if(copy_parentalLockBuffer[7] == '0' && PORTBbits.RB4 == 0 && M7 == 
      +                          0)
  1915  0492  3030               	movlw	48
  1916  0493  0021               	movlb	1	; select bank1
  1917  0494  0639               	xorwf	(_copy_parentalLockBuffer^(0+128)+7),w
  1918  0495  1D03               	btfss	3,2
  1919  0496  2CB4               	goto	l4764
  1920  0497  0020               	movlb	0	; select bank0
  1921  0498  1A0D               	btfsc	13,4	;volatile
  1922  0499  2CB4               	goto	l4764
  1923  049A  084F               	movf	_M7,w
  1924  049B  0450               	iorwf	_M7+1,w
  1925  049C  1D03               	btfss	3,2
  1926  049D  2CB4               	goto	l4764
  1927                           
  1928                           ;megaonoff.c: 1094: {
  1929                           ;megaonoff.c: 1095: if(man==1)
  1930  049E  0021               	movlb	1	; select bank1
  1931  049F  0350               	decf	main@man^(0+128),w
  1932  04A0  0451               	iorwf	(main@man+1)^(0+128),w
  1933  04A1  1D03               	btfss	3,2
  1934  04A2  2CAC               	goto	l4760
  1935                           
  1936                           ;megaonoff.c: 1096: {
  1937                           ;megaonoff.c: 1097: SwitchOnStatustToGatway('7');
  1938  04A3  3037               	movlw	55
  1939  04A4  3187  270D  3182   	fcall	_SwitchOnStatustToGatway
  1940                           
  1941                           ;megaonoff.c: 1098: TransmissionIndicationLedBlinking();
  1942  04A7  318F  2721  3182   	fcall	_TransmissionIndicationLedBlinking
  1943                           
  1944                           ;megaonoff.c: 1099: PORTFbits.RF5=1;
  1945  04AA  0025               	movlb	5	; select bank5
  1946  04AB  168C               	bsf	12,5	;volatile
  1947  04AC                     l4760:	
  1948                           
  1949                           ;megaonoff.c: 1100: }
  1950                           ;megaonoff.c: 1101: man=0;
  1951  04AC  0021               	movlb	1	; select bank1
  1952  04AD  01D0               	clrf	main@man^(0+128)
  1953  04AE  01D1               	clrf	(main@man+1)^(0+128)
  1954                           
  1955                           ;megaonoff.c: 1102: M7=1;
  1956  04AF  3001               	movlw	1
  1957  04B0  0020               	movlb	0	; select bank0
  1958  04B1  00CF               	movwf	_M7
  1959  04B2  3000               	movlw	0
  1960  04B3  00D0               	movwf	_M7+1
  1961  04B4                     l4764:	
  1962                           
  1963                           ;megaonoff.c: 1104: }
  1964                           ;megaonoff.c: 1106: if(copy_parentalLockBuffer[7] == '0' && PORTBbits.RB4 == 1 && M7 == 
      +                          1)
  1965  04B4  3030               	movlw	48
  1966  04B5  0021               	movlb	1	; select bank1
  1967  04B6  0639               	xorwf	(_copy_parentalLockBuffer^(0+128)+7),w
  1968  04B7  1D03               	btfss	3,2
  1969  04B8  2CD4               	goto	l4780
  1970  04B9  0020               	movlb	0	; select bank0
  1971  04BA  1E0D               	btfss	13,4	;volatile
  1972  04BB  2CD4               	goto	l4780
  1973  04BC  034F               	decf	_M7,w
  1974  04BD  0450               	iorwf	_M7+1,w
  1975  04BE  1D03               	btfss	3,2
  1976  04BF  2CD4               	goto	l4780
  1977                           
  1978                           ;megaonoff.c: 1107: {
  1979                           ;megaonoff.c: 1108: if(man==1)
  1980  04C0  0021               	movlb	1	; select bank1
  1981  04C1  0350               	decf	main@man^(0+128),w
  1982  04C2  0451               	iorwf	(main@man+1)^(0+128),w
  1983  04C3  1D03               	btfss	3,2
  1984  04C4  2CCE               	goto	l4776
  1985                           
  1986                           ;megaonoff.c: 1109: {
  1987                           ;megaonoff.c: 1111: SwitchOffStatustToGatway('7');
  1988  04C5  3037               	movlw	55
  1989  04C6  3187  2741  3182   	fcall	_SwitchOffStatustToGatway
  1990                           
  1991                           ;megaonoff.c: 1112: TransmissionIndicationLedBlinking();
  1992  04C9  318F  2721  3182   	fcall	_TransmissionIndicationLedBlinking
  1993                           
  1994                           ;megaonoff.c: 1113: PORTFbits.RF5=0;
  1995  04CC  0025               	movlb	5	; select bank5
  1996  04CD  128C               	bcf	12,5	;volatile
  1997  04CE                     l4776:	
  1998                           
  1999                           ;megaonoff.c: 1114: }
  2000                           ;megaonoff.c: 1115: man=0;
  2001  04CE  0021               	movlb	1	; select bank1
  2002  04CF  01D0               	clrf	main@man^(0+128)
  2003  04D0  01D1               	clrf	(main@man+1)^(0+128)
  2004                           
  2005                           ;megaonoff.c: 1116: M7=0;
  2006  04D1  0020               	movlb	0	; select bank0
  2007  04D2  01CF               	clrf	_M7
  2008  04D3  01D0               	clrf	_M7+1
  2009  04D4                     l4780:	
  2010                           
  2011                           ;megaonoff.c: 1118: }
  2012                           ;megaonoff.c: 1123: if(copy_parentalLockBuffer[8] == '0' && PORTBbits.RB5 == 0 && M8 == 
      +                          0)
  2013  04D4  3030               	movlw	48
  2014  04D5  0021               	movlb	1	; select bank1
  2015  04D6  063A               	xorwf	(_copy_parentalLockBuffer^(0+128)+8),w
  2016  04D7  1D03               	btfss	3,2
  2017  04D8  2CF6               	goto	l4796
  2018  04D9  0020               	movlb	0	; select bank0
  2019  04DA  1A8D               	btfsc	13,5	;volatile
  2020  04DB  2CF6               	goto	l4796
  2021  04DC  084D               	movf	_M8,w
  2022  04DD  044E               	iorwf	_M8+1,w
  2023  04DE  1D03               	btfss	3,2
  2024  04DF  2CF6               	goto	l4796
  2025                           
  2026                           ;megaonoff.c: 1124: {
  2027                           ;megaonoff.c: 1125: if(man==1)
  2028  04E0  0021               	movlb	1	; select bank1
  2029  04E1  0350               	decf	main@man^(0+128),w
  2030  04E2  0451               	iorwf	(main@man+1)^(0+128),w
  2031  04E3  1D03               	btfss	3,2
  2032  04E4  2CEE               	goto	l4792
  2033                           
  2034                           ;megaonoff.c: 1126: {
  2035                           ;megaonoff.c: 1127: SwitchOnStatustToGatway('8');
  2036  04E5  3038               	movlw	56
  2037  04E6  3187  270D  3182   	fcall	_SwitchOnStatustToGatway
  2038                           
  2039                           ;megaonoff.c: 1128: TransmissionIndicationLedBlinking();
  2040  04E9  318F  2721  3182   	fcall	_TransmissionIndicationLedBlinking
  2041                           
  2042                           ;megaonoff.c: 1129: PORTFbits.RF4=1;
  2043  04EC  0025               	movlb	5	; select bank5
  2044  04ED  160C               	bsf	12,4	;volatile
  2045  04EE                     l4792:	
  2046                           
  2047                           ;megaonoff.c: 1130: }
  2048                           ;megaonoff.c: 1131: man=0;
  2049  04EE  0021               	movlb	1	; select bank1
  2050  04EF  01D0               	clrf	main@man^(0+128)
  2051  04F0  01D1               	clrf	(main@man+1)^(0+128)
  2052                           
  2053                           ;megaonoff.c: 1132: M8=1;
  2054  04F1  3001               	movlw	1
  2055  04F2  0020               	movlb	0	; select bank0
  2056  04F3  00CD               	movwf	_M8
  2057  04F4  3000               	movlw	0
  2058  04F5  00CE               	movwf	_M8+1
  2059  04F6                     l4796:	
  2060                           
  2061                           ;megaonoff.c: 1134: }
  2062                           ;megaonoff.c: 1136: if(copy_parentalLockBuffer[8] == '0' && PORTBbits.RB5 == 1 && M8 == 
      +                          1)
  2063  04F6  3030               	movlw	48
  2064  04F7  0021               	movlb	1	; select bank1
  2065  04F8  063A               	xorwf	(_copy_parentalLockBuffer^(0+128)+8),w
  2066  04F9  1D03               	btfss	3,2
  2067  04FA  2D16               	goto	l4812
  2068  04FB  0020               	movlb	0	; select bank0
  2069  04FC  1E8D               	btfss	13,5	;volatile
  2070  04FD  2D16               	goto	l4812
  2071  04FE  034D               	decf	_M8,w
  2072  04FF  044E               	iorwf	_M8+1,w
  2073  0500  1D03               	btfss	3,2
  2074  0501  2D16               	goto	l4812
  2075                           
  2076                           ;megaonoff.c: 1137: {
  2077                           ;megaonoff.c: 1138: if(man==1)
  2078  0502  0021               	movlb	1	; select bank1
  2079  0503  0350               	decf	main@man^(0+128),w
  2080  0504  0451               	iorwf	(main@man+1)^(0+128),w
  2081  0505  1D03               	btfss	3,2
  2082  0506  2D10               	goto	l4808
  2083                           
  2084                           ;megaonoff.c: 1139: {
  2085                           ;megaonoff.c: 1141: SwitchOffStatustToGatway('8');
  2086  0507  3038               	movlw	56
  2087  0508  3187  2741  3182   	fcall	_SwitchOffStatustToGatway
  2088                           
  2089                           ;megaonoff.c: 1142: TransmissionIndicationLedBlinking();
  2090  050B  318F  2721  3182   	fcall	_TransmissionIndicationLedBlinking
  2091                           
  2092                           ;megaonoff.c: 1143: PORTFbits.RF4=0;
  2093  050E  0025               	movlb	5	; select bank5
  2094  050F  120C               	bcf	12,4	;volatile
  2095  0510                     l4808:	
  2096                           
  2097                           ;megaonoff.c: 1144: }
  2098                           ;megaonoff.c: 1145: man=0;
  2099  0510  0021               	movlb	1	; select bank1
  2100  0511  01D0               	clrf	main@man^(0+128)
  2101  0512  01D1               	clrf	(main@man+1)^(0+128)
  2102                           
  2103                           ;megaonoff.c: 1146: M8=0;
  2104  0513  0020               	movlb	0	; select bank0
  2105  0514  01CD               	clrf	_M8
  2106  0515  01CE               	clrf	_M8+1
  2107  0516                     l4812:	
  2108                           
  2109                           ;megaonoff.c: 1148: }
  2110                           ;megaonoff.c: 1150: if(copy_parentalLockBuffer[9] == '0' && PORTDbits.RD5 == 0 && M9 == 
      +                          0)
  2111  0516  3030               	movlw	48
  2112  0517  0021               	movlb	1	; select bank1
  2113  0518  063B               	xorwf	(_copy_parentalLockBuffer^(0+128)+9),w
  2114  0519  1D03               	btfss	3,2
  2115  051A  2D3B               	goto	l4830
  2116  051B  0020               	movlb	0	; select bank0
  2117  051C  1A8F               	btfsc	15,5	;volatile
  2118  051D  2D3B               	goto	l4830
  2119  051E  084B               	movf	_M9,w
  2120  051F  044C               	iorwf	_M9+1,w
  2121  0520  1D03               	btfss	3,2
  2122  0521  2D3B               	goto	l4830
  2123                           
  2124                           ;megaonoff.c: 1151: {
  2125                           ;megaonoff.c: 1152: if(man==1)
  2126  0522  0021               	movlb	1	; select bank1
  2127  0523  0350               	decf	main@man^(0+128),w
  2128  0524  0451               	iorwf	(main@man+1)^(0+128),w
  2129  0525  1D03               	btfss	3,2
  2130  0526  2D33               	goto	l455
  2131                           
  2132                           ;megaonoff.c: 1153: {
  2133                           ;megaonoff.c: 1155: start_PWM_Generation_in_ISR_FLAG = 0;
  2134  0527  0020               	movlb	0	; select bank0
  2135  0528  01C9               	clrf	_start_PWM_Generation_in_ISR_FLAG
  2136  0529  01CA               	clrf	_start_PWM_Generation_in_ISR_FLAG+1
  2137                           
  2138                           ;megaonoff.c: 1156: SwitchOnStatustToGatway('9');
  2139  052A  3039               	movlw	57
  2140  052B  3187  270D  3182   	fcall	_SwitchOnStatustToGatway
  2141                           
  2142                           ;megaonoff.c: 1157: TransmissionIndicationLedBlinking();
  2143  052E  318F  2721  3182   	fcall	_TransmissionIndicationLedBlinking
  2144                           
  2145                           ;megaonoff.c: 1158: PORTFbits.RF3=1;
  2146  0531  0025               	movlb	5	; select bank5
  2147  0532  158C               	bsf	12,3	;volatile
  2148  0533                     l455:	
  2149                           
  2150                           ;megaonoff.c: 1159: }
  2151                           ;megaonoff.c: 1160: man=0;
  2152  0533  0021               	movlb	1	; select bank1
  2153  0534  01D0               	clrf	main@man^(0+128)
  2154  0535  01D1               	clrf	(main@man+1)^(0+128)
  2155                           
  2156                           ;megaonoff.c: 1161: M9=1;
  2157  0536  3001               	movlw	1
  2158  0537  0020               	movlb	0	; select bank0
  2159  0538  00CB               	movwf	_M9
  2160  0539  3000               	movlw	0
  2161  053A  00CC               	movwf	_M9+1
  2162  053B                     l4830:	
  2163                           
  2164                           ;megaonoff.c: 1163: }
  2165                           ;megaonoff.c: 1165: if(copy_parentalLockBuffer[9] == '0' && PORTDbits.RD5 == 1 && M9 == 
      +                          1)
  2166  053B  3030               	movlw	48
  2167  053C  0021               	movlb	1	; select bank1
  2168  053D  063B               	xorwf	(_copy_parentalLockBuffer^(0+128)+9),w
  2169  053E  1D03               	btfss	3,2
  2170  053F  2A8B               	goto	l4518
  2171  0540  0020               	movlb	0	; select bank0
  2172  0541  1E8F               	btfss	15,5	;volatile
  2173  0542  2A8B               	goto	l4518
  2174  0543  034B               	decf	_M9,w
  2175  0544  044C               	iorwf	_M9+1,w
  2176  0545  1D03               	btfss	3,2
  2177  0546  2A8B               	goto	l4518
  2178                           
  2179                           ;megaonoff.c: 1166: {
  2180                           ;megaonoff.c: 1167: if(man==1)
  2181  0547  0021               	movlb	1	; select bank1
  2182  0548  0350               	decf	main@man^(0+128),w
  2183  0549  0451               	iorwf	(main@man+1)^(0+128),w
  2184  054A  1D03               	btfss	3,2
  2185  054B  2D55               	goto	l4842
  2186                           
  2187                           ;megaonoff.c: 1168: {
  2188                           ;megaonoff.c: 1170: SwitchOffStatustToGatway('9');
  2189  054C  3039               	movlw	57
  2190  054D  3187  2741  3182   	fcall	_SwitchOffStatustToGatway
  2191                           
  2192                           ;megaonoff.c: 1171: TransmissionIndicationLedBlinking();
  2193  0550  318F  2721  3182   	fcall	_TransmissionIndicationLedBlinking
  2194                           
  2195                           ;megaonoff.c: 1172: PORTFbits.RF3=0;
  2196  0553  0025               	movlb	5	; select bank5
  2197  0554  118C               	bcf	12,3	;volatile
  2198  0555                     l4842:	
  2199                           
  2200                           ;megaonoff.c: 1173: }
  2201                           ;megaonoff.c: 1174: man=0;
  2202  0555  0021               	movlb	1	; select bank1
  2203  0556  01D0               	clrf	main@man^(0+128)
  2204  0557  01D1               	clrf	(main@man+1)^(0+128)
  2205                           
  2206                           ;megaonoff.c: 1175: M9=0;
  2207  0558  0020               	movlb	0	; select bank0
  2208  0559  01CB               	clrf	_M9
  2209  055A  01CC               	clrf	_M9+1
  2210  055B  2A8B               	goto	l4518
  2211  055C                     __end_of_main:	
  2212                           
  2213                           	psect	text1
  2214  0F86                     __ptext1:	
  2215 ;; *************** function _errorsMain *****************
  2216 ;; Defined at:
  2217 ;;		line 1682 in file "megaonoff.c"
  2218 ;; Parameters:    Size  Location     Type
  2219 ;;  errNum          2    0[BANK0 ] PTR const unsigned char 
  2220 ;;		 -> STR_3(5), 
  2221 ;; Auto vars:     Size  Location     Type
  2222 ;;		None
  2223 ;; Return value:  Size  Location     Type
  2224 ;;                  1    wreg      void 
  2225 ;; Registers used:
  2226 ;;		wreg, fsr0l, fsr0h, status,2, status,0, pclath
  2227 ;; Tracked objects:
  2228 ;;		On entry : 0/0
  2229 ;;		On exit  : 0/0
  2230 ;;		Unchanged: 0/0
  2231 ;; Data sizes:     COMMON   BANK0   BANK1   BANK2   BANK3   BANK4   BANK5   BANK6   BANK7   BANK8   BANK9
  2232 ;;      Params:         0       2       0       0       0       0       0       0       0       0       0
  2233 ;;      Locals:         0       0       0       0       0       0       0       0       0       0       0
  2234 ;;      Temps:          0       1       0       0       0       0       0       0       0       0       0
  2235 ;;      Totals:         0       3       0       0       0       0       0       0       0       0       0
  2236 ;;Total ram usage:        3 bytes
  2237 ;; Hardware stack levels used:    1
  2238 ;; Hardware stack levels required when called:    2
  2239 ;; This function calls:
  2240 ;;		Nothing
  2241 ;; This function is called by:
  2242 ;;		_main
  2243 ;; This function uses a non-reentrant model
  2244 ;;
  2245                           
  2246                           
  2247                           ;psect for function _errorsMain
  2248  0F86                     _errorsMain:	
  2249  0F86                     l4502:	
  2250                           ;megaonoff.c: 1684: while(*errNum != (0))
  2251                           
  2252                           ;incstack = 0
  2253                           ; Regs used in _errorsMain: [wreg-fsr0h+status,2+status,0+pclath]
  2254                           
  2255  0F86  0020               	movlb	0	; select bank0
  2256  0F87  0820               	movf	errorsMain@errNum,w
  2257  0F88  0084               	movwf	4
  2258  0F89  0821               	movf	errorsMain@errNum+1,w
  2259  0F8A  0085               	movwf	5
  2260  0F8B  0012               	moviw fsr0++
  2261  0F8C  1903               	btfsc	3,2
  2262  0F8D  0008               	return
  2263  0F8E                     l544:	
  2264                           ;megaonoff.c: 1685: {
  2265                           ;megaonoff.c: 1686: while (!TX1STAbits.TRMT);
  2266                           
  2267  0F8E  0023               	movlb	3	; select bank3
  2268  0F8F  1C9E               	btfss	30,1	;volatile
  2269  0F90  2F8E               	goto	l544
  2270                           
  2271                           ;megaonoff.c: 1687: TX1REG = *errNum;
  2272  0F91  0020               	movlb	0	; select bank0
  2273  0F92  0820               	movf	errorsMain@errNum,w
  2274  0F93  0084               	movwf	4
  2275  0F94  0821               	movf	errorsMain@errNum+1,w
  2276  0F95  0085               	movwf	5
  2277  0F96  0800               	movf	0,w	;code access
  2278  0F97  0023               	movlb	3	; select bank3
  2279  0F98  009A               	movwf	26	;volatile
  2280                           
  2281                           ;megaonoff.c: 1688: *errNum++;
  2282  0F99  3001               	movlw	1
  2283  0F9A  0020               	movlb	0	; select bank0
  2284  0F9B  07A0               	addwf	errorsMain@errNum,f
  2285  0F9C  3000               	movlw	0
  2286  0F9D  3DA1               	addwfc	errorsMain@errNum+1,f
  2287  0F9E  2F86               	goto	l4502
  2288  0F9F                     __end_of_errorsMain:	
  2289                           
  2290                           	psect	text2
  2291  0775                     __ptext2:	
  2292 ;; *************** function _copyReceivedDataBuffer *****************
  2293 ;; Defined at:
  2294 ;;		line 1729 in file "megaonoff.c"
  2295 ;; Parameters:    Size  Location     Type
  2296 ;;		None
  2297 ;; Auto vars:     Size  Location     Type
  2298 ;;  dataBufferCo    2    1[BANK0 ] int 
  2299 ;; Return value:  Size  Location     Type
  2300 ;;                  1    wreg      void 
  2301 ;; Registers used:
  2302 ;;		wreg, fsr1l, fsr1h, status,2, status,0
  2303 ;; Tracked objects:
  2304 ;;		On entry : 0/0
  2305 ;;		On exit  : 0/0
  2306 ;;		Unchanged: 0/0
  2307 ;; Data sizes:     COMMON   BANK0   BANK1   BANK2   BANK3   BANK4   BANK5   BANK6   BANK7   BANK8   BANK9
  2308 ;;      Params:         0       0       0       0       0       0       0       0       0       0       0
  2309 ;;      Locals:         0       2       0       0       0       0       0       0       0       0       0
  2310 ;;      Temps:          0       1       0       0       0       0       0       0       0       0       0
  2311 ;;      Totals:         0       3       0       0       0       0       0       0       0       0       0
  2312 ;;Total ram usage:        3 bytes
  2313 ;; Hardware stack levels used:    1
  2314 ;; Hardware stack levels required when called:    2
  2315 ;; This function calls:
  2316 ;;		Nothing
  2317 ;; This function is called by:
  2318 ;;		_main
  2319 ;; This function uses a non-reentrant model
  2320 ;;
  2321                           
  2322                           
  2323                           ;psect for function _copyReceivedDataBuffer
  2324  0775                     _copyReceivedDataBuffer:	
  2325                           
  2326                           ;megaonoff.c: 1730: int dataBufferCounter=2;
  2327                           
  2328                           ;incstack = 0
  2329                           ; Regs used in _copyReceivedDataBuffer: [wreg+fsr1l+fsr1h+status,2+status,0]
  2330  0775  3002               	movlw	2
  2331  0776  0020               	movlb	0	; select bank0
  2332  0777  00A1               	movwf	copyReceivedDataBuffer@dataBufferCounter
  2333  0778  3000               	movlw	0
  2334  0779  00A2               	movwf	copyReceivedDataBuffer@dataBufferCounter+1
  2335                           
  2336                           ;megaonoff.c: 1731: for(dataBufferCounter=2;dataBufferCounter<9;dataBufferCounter++){
  2337  077A  3002               	movlw	2
  2338  077B  00A1               	movwf	copyReceivedDataBuffer@dataBufferCounter
  2339  077C  3000               	movlw	0
  2340  077D  00A2               	movwf	copyReceivedDataBuffer@dataBufferCounter+1
  2341  077E                     L1:	
  2342  077E  0822               	movf	copyReceivedDataBuffer@dataBufferCounter+1,w
  2343  077F  3A80               	xorlw	128
  2344  0780  00A0               	movwf	??_copyReceivedDataBuffer
  2345  0781  3080               	movlw	128
  2346  0782  0220               	subwf	??_copyReceivedDataBuffer,w
  2347  0783  1D03               	skipz
  2348  0784  2F87               	goto	u2455
  2349  0785  3009               	movlw	9
  2350  0786  0221               	subwf	copyReceivedDataBuffer@dataBufferCounter,w
  2351  0787                     u2455:	
  2352  0787  1803               	btfsc	3,0
  2353  0788  0008               	return
  2354                           
  2355                           ;megaonoff.c: 1732: tempReceivedDataBuffer[dataBufferCounter-2]=mainReceivedDataBuffer[d
      +                          ataBufferCounter];
  2356  0789  0020               	movlb	0	; select bank0
  2357  078A  0821               	movf	copyReceivedDataBuffer@dataBufferCounter,w
  2358  078B  3EA0               	addlw	(low (_mainReceivedDataBuffer| 0))& (0+255)
  2359  078C  0086               	movwf	6
  2360  078D  0187               	clrf	7
  2361  078E  0801               	movf	1,w
  2362  078F  00A0               	movwf	??_copyReceivedDataBuffer
  2363  0790  0821               	movf	copyReceivedDataBuffer@dataBufferCounter,w
  2364  0791  3EFE               	addlw	254
  2365  0792  3E5F               	addlw	(low (_tempReceivedDataBuffer| 0))& (0+255)
  2366  0793  0086               	movwf	6
  2367  0794  0187               	clrf	7
  2368  0795  0820               	movf	??_copyReceivedDataBuffer,w
  2369  0796  0081               	movwf	1
  2370                           
  2371                           ;megaonoff.c: 1733: mainReceivedDataBuffer[dataBufferCounter]='#';
  2372  0797  3023               	movlw	35
  2373  0798  00A0               	movwf	??_copyReceivedDataBuffer
  2374  0799  0821               	movf	copyReceivedDataBuffer@dataBufferCounter,w
  2375  079A  3EA0               	addlw	(low (_mainReceivedDataBuffer| 0))& (0+255)
  2376  079B  0086               	movwf	6
  2377  079C  0187               	clrf	7
  2378  079D  0820               	movf	??_copyReceivedDataBuffer,w
  2379  079E  0081               	movwf	1
  2380  079F  3001               	movlw	1
  2381  07A0  07A1               	addwf	copyReceivedDataBuffer@dataBufferCounter,f
  2382  07A1  3000               	movlw	0
  2383  07A2  3DA2               	addwfc	copyReceivedDataBuffer@dataBufferCounter+1,f
  2384  07A3  2F7E               	goto	L1
  2385  07A4                     __end_of_copyReceivedDataBuffer:	
  2386                           
  2387                           	psect	text3
  2388  055C                     __ptext3:	
  2389 ;; *************** function _applianceControl *****************
  2390 ;; Defined at:
  2391 ;;		line 1183 in file "megaonoff.c"
  2392 ;; Parameters:    Size  Location     Type
  2393 ;;  charSwitchMS    1    wreg     unsigned char 
  2394 ;;  charSwitchLS    1   14[BANK0 ] unsigned char 
  2395 ;;  charSwitchST    1   15[BANK0 ] unsigned char 
  2396 ;;  chDimmerSpee    1   16[BANK0 ] unsigned char 
  2397 ;;  chDimmerSpee    1   17[BANK0 ] unsigned char 
  2398 ;;  charParental    1   18[BANK0 ] unsigned char 
  2399 ;;  charFinalFra    1   19[BANK0 ] unsigned char 
  2400 ;; Auto vars:     Size  Location     Type
  2401 ;;  charSwitchMS    1   24[BANK0 ] unsigned char 
  2402 ;;  integerSwitc    2   33[BANK0 ] int 
  2403 ;;  currentState    2   31[BANK0 ] int 
  2404 ;;  integerSwitc    2   29[BANK0 ] int 
  2405 ;;  dimmerSpeedS    2   27[BANK0 ] unsigned char [2]
  2406 ;;  switchNumber    2   25[BANK0 ] unsigned char [2]
  2407 ;;  integerSpeed    2   22[BANK0 ] int 
  2408 ;; Return value:  Size  Location     Type
  2409 ;;                  1    wreg      void 
  2410 ;; Registers used:
  2411 ;;		wreg, fsr0l, fsr0h, fsr1l, fsr1h, status,2, status,0, pclath, cstack
  2412 ;; Tracked objects:
  2413 ;;		On entry : 0/0
  2414 ;;		On exit  : 0/0
  2415 ;;		Unchanged: 0/0
  2416 ;; Data sizes:     COMMON   BANK0   BANK1   BANK2   BANK3   BANK4   BANK5   BANK6   BANK7   BANK8   BANK9
  2417 ;;      Params:         0       6       0       0       0       0       0       0       0       0       0
  2418 ;;      Locals:         0      13       0       0       0       0       0       0       0       0       0
  2419 ;;      Temps:          0       2       0       0       0       0       0       0       0       0       0
  2420 ;;      Totals:         0      21       0       0       0       0       0       0       0       0       0
  2421 ;;Total ram usage:       21 bytes
  2422 ;; Hardware stack levels used:    1
  2423 ;; Hardware stack levels required when called:    4
  2424 ;; This function calls:
  2425 ;;		_atoi
  2426 ;;		_sendAcknowledgment
  2427 ;; This function is called by:
  2428 ;;		_main
  2429 ;; This function uses a non-reentrant model
  2430 ;;
  2431                           
  2432                           
  2433                           ;psect for function _applianceControl
  2434  055C                     _applianceControl:	
  2435                           
  2436                           ;incstack = 0
  2437                           ; Regs used in _applianceControl: [wreg-fsr1h+status,2+status,0+pclath+cstack]
  2438                           ;applianceControl@charSwitchMSB stored from wreg
  2439  055C  0020               	movlb	0	; select bank0
  2440  055D  00B8               	movwf	applianceControl@charSwitchMSB
  2441                           
  2442                           ;megaonoff.c: 1187: int integerSwitchNumber = 0;
  2443  055E  01BD               	clrf	applianceControl@integerSwitchNumber
  2444  055F  01BE               	clrf	applianceControl@integerSwitchNumber+1
  2445                           
  2446                           ;megaonoff.c: 1188: int integerSwitchState = 0;
  2447  0560  01C1               	clrf	applianceControl@integerSwitchState
  2448  0561  01C2               	clrf	applianceControl@integerSwitchState+1
  2449                           
  2450                           ;megaonoff.c: 1189: int integerSpeed = 0;
  2451  0562  01B6               	clrf	applianceControl@integerSpeed
  2452  0563  01B7               	clrf	applianceControl@integerSpeed+1
  2453                           
  2454                           ;megaonoff.c: 1190: int currentStateBufferPositions=0;
  2455  0564  01BF               	clrf	applianceControl@currentStateBufferPositions
  2456  0565  01C0               	clrf	applianceControl@currentStateBufferPositions+1
  2457                           
  2458                           ;megaonoff.c: 1193: char switchNumberStringBuffer[2]="#";
  2459  0566  086C               	movf	applianceControl@F3734+1,w
  2460  0567  00BA               	movwf	applianceControl@switchNumberStringBuffer+1
  2461  0568  086B               	movf	applianceControl@F3734,w
  2462  0569  00B9               	movwf	applianceControl@switchNumberStringBuffer
  2463                           
  2464                           ;megaonoff.c: 1194: char dimmerSpeedStringBuffer[2]="#";
  2465  056A  086A               	movf	applianceControl@F3736+1,w
  2466  056B  00BC               	movwf	applianceControl@dimmerSpeedStringBuffer+1
  2467  056C  0869               	movf	applianceControl@F3736,w
  2468  056D  00BB               	movwf	applianceControl@dimmerSpeedStringBuffer
  2469                           
  2470                           ;megaonoff.c: 1196: switchNumberStringBuffer[0]=charSwitchMSB;
  2471  056E  0838               	movf	applianceControl@charSwitchMSB,w
  2472  056F  00B4               	movwf	??_applianceControl
  2473  0570  0834               	movf	??_applianceControl,w
  2474  0571  00B9               	movwf	applianceControl@switchNumberStringBuffer
  2475                           
  2476                           ;megaonoff.c: 1197: switchNumberStringBuffer[1]=charSwitchLSB;
  2477  0572  082E               	movf	applianceControl@charSwitchLSB,w
  2478  0573  00B4               	movwf	??_applianceControl
  2479  0574  0834               	movf	??_applianceControl,w
  2480  0575  00BA               	movwf	applianceControl@switchNumberStringBuffer+1
  2481                           
  2482                           ;megaonoff.c: 1198: integerSwitchNumber = atoi(switchNumberStringBuffer);
  2483  0576  3039               	movlw	(low (applianceControl@switchNumberStringBuffer| 0))& (0+255)
  2484  0577  3186  2668  3185   	fcall	_atoi
  2485  057A  0020               	movlb	0	; select bank0
  2486  057B  0827               	movf	?_atoi+1,w
  2487  057C  00BE               	movwf	applianceControl@integerSwitchNumber+1
  2488  057D  0826               	movf	?_atoi,w
  2489  057E  00BD               	movwf	applianceControl@integerSwitchNumber
  2490                           
  2491                           ;megaonoff.c: 1202: integerSwitchState = charSwitchSTATE-'0';
  2492  057F  082F               	movf	applianceControl@charSwitchSTATE,w
  2493  0580  3ED0               	addlw	208
  2494  0581  00C1               	movwf	applianceControl@integerSwitchState
  2495  0582  30FF               	movlw	255
  2496  0583  1803               	skipnc
  2497  0584  3000               	movlw	0
  2498  0585  00C2               	movwf	applianceControl@integerSwitchState+1
  2499                           
  2500                           ;megaonoff.c: 1205: dimmerSpeedStringBuffer[0]=chDimmerSpeedMSB;
  2501  0586  0830               	movf	applianceControl@chDimmerSpeedMSB,w
  2502  0587  00B4               	movwf	??_applianceControl
  2503  0588  0834               	movf	??_applianceControl,w
  2504  0589  00BB               	movwf	applianceControl@dimmerSpeedStringBuffer
  2505                           
  2506                           ;megaonoff.c: 1206: dimmerSpeedStringBuffer[1]=chDimmerSpeedLSB;
  2507  058A  0831               	movf	applianceControl@chDimmerSpeedLSB,w
  2508  058B  00B4               	movwf	??_applianceControl
  2509  058C  0834               	movf	??_applianceControl,w
  2510  058D  00BC               	movwf	applianceControl@dimmerSpeedStringBuffer+1
  2511                           
  2512                           ;megaonoff.c: 1207: integerSpeed = atoi(dimmerSpeedStringBuffer);
  2513  058E  303B               	movlw	(low (applianceControl@dimmerSpeedStringBuffer| 0))& (0+255)
  2514  058F  3186  2668  3185   	fcall	_atoi
  2515  0592  0020               	movlb	0	; select bank0
  2516  0593  0827               	movf	?_atoi+1,w
  2517  0594  00B7               	movwf	applianceControl@integerSpeed+1
  2518  0595  0826               	movf	?_atoi,w
  2519  0596  00B6               	movwf	applianceControl@integerSpeed
  2520                           
  2521                           ;megaonoff.c: 1211: parentalLockBuffer[integerSwitchNumber] = charParentalControl;
  2522  0597  0832               	movf	applianceControl@charParentalControl,w
  2523  0598  00B4               	movwf	??_applianceControl
  2524  0599  083D               	movf	applianceControl@integerSwitchNumber,w
  2525  059A  3EC0               	addlw	(low (_parentalLockBuffer| 0))& (0+255)
  2526  059B  0086               	movwf	6
  2527  059C  0187               	clrf	7
  2528  059D  0834               	movf	??_applianceControl,w
  2529  059E  0081               	movwf	1
  2530                           
  2531                           ;megaonoff.c: 1212: copy_parentalLockBuffer[integerSwitchNumber]=parentalLockBuffer[inte
      +                          gerSwitchNumber];
  2532  059F  083D               	movf	applianceControl@integerSwitchNumber,w
  2533  05A0  3EC0               	addlw	(low (_parentalLockBuffer| 0))& (0+255)
  2534  05A1  0086               	movwf	6
  2535  05A2  0187               	clrf	7
  2536  05A3  0801               	movf	1,w
  2537  05A4  00B4               	movwf	??_applianceControl
  2538  05A5  083D               	movf	applianceControl@integerSwitchNumber,w
  2539  05A6  3EB2               	addlw	(low (_copy_parentalLockBuffer| 0))& (0+255)
  2540  05A7  0086               	movwf	6
  2541  05A8  0187               	clrf	7
  2542  05A9  0834               	movf	??_applianceControl,w
  2543  05AA  0081               	movwf	1
  2544                           
  2545                           ;megaonoff.c: 1215: currentStateBufferPositions = ((1+4*(integerSwitchNumber))-5);
  2546  05AB  083E               	movf	applianceControl@integerSwitchNumber+1,w
  2547  05AC  00B5               	movwf	??_applianceControl+1
  2548  05AD  083D               	movf	applianceControl@integerSwitchNumber,w
  2549  05AE  00B4               	movwf	??_applianceControl
  2550  05AF  35B4               	lslf	??_applianceControl,f
  2551  05B0  0DB5               	rlf	??_applianceControl+1,f
  2552  05B1  35B4               	lslf	??_applianceControl,f
  2553  05B2  0DB5               	rlf	??_applianceControl+1,f
  2554  05B3  0834               	movf	??_applianceControl,w
  2555  05B4  3EFC               	addlw	252
  2556  05B5  00BF               	movwf	applianceControl@currentStateBufferPositions
  2557  05B6  30FF               	movlw	255
  2558  05B7  3D35               	addwfc	??_applianceControl+1,w
  2559  05B8  00C0               	movwf	applianceControl@currentStateBufferPositions+1
  2560                           
  2561                           ;megaonoff.c: 1216: currentStateBuffer[currentStateBufferPositions++] = 'G';
  2562  05B9  3047               	movlw	71
  2563  05BA  00B4               	movwf	??_applianceControl
  2564  05BB  083F               	movf	applianceControl@currentStateBufferPositions,w
  2565  05BC  3E20               	addlw	(low (_currentStateBuffer| (0+256)))& (0+255)
  2566  05BD  0086               	movwf	6
  2567  05BE  3001               	movlw	1	; select bank2/3
  2568  05BF  0087               	movwf	7
  2569  05C0  0834               	movf	??_applianceControl,w
  2570  05C1  0081               	movwf	1
  2571  05C2  3001               	movlw	1
  2572  05C3  07BF               	addwf	applianceControl@currentStateBufferPositions,f
  2573  05C4  3000               	movlw	0
  2574  05C5  3DC0               	addwfc	applianceControl@currentStateBufferPositions+1,f
  2575                           
  2576                           ;megaonoff.c: 1217: currentStateBuffer[currentStateBufferPositions++] = charSwitchSTATE;
  2577  05C6  082F               	movf	applianceControl@charSwitchSTATE,w
  2578  05C7  00B4               	movwf	??_applianceControl
  2579  05C8  083F               	movf	applianceControl@currentStateBufferPositions,w
  2580  05C9  3E20               	addlw	(low (_currentStateBuffer| (0+256)))& (0+255)
  2581  05CA  0086               	movwf	6
  2582  05CB  3001               	movlw	1	; select bank2/3
  2583  05CC  0087               	movwf	7
  2584  05CD  0834               	movf	??_applianceControl,w
  2585  05CE  0081               	movwf	1
  2586  05CF  3001               	movlw	1
  2587  05D0  07BF               	addwf	applianceControl@currentStateBufferPositions,f
  2588  05D1  3000               	movlw	0
  2589  05D2  3DC0               	addwfc	applianceControl@currentStateBufferPositions+1,f
  2590                           
  2591                           ;megaonoff.c: 1218: currentStateBuffer[currentStateBufferPositions++] = charSwitchMSB;
  2592  05D3  0838               	movf	applianceControl@charSwitchMSB,w
  2593  05D4  00B4               	movwf	??_applianceControl
  2594  05D5  083F               	movf	applianceControl@currentStateBufferPositions,w
  2595  05D6  3E20               	addlw	(low (_currentStateBuffer| (0+256)))& (0+255)
  2596  05D7  0086               	movwf	6
  2597  05D8  3001               	movlw	1	; select bank2/3
  2598  05D9  0087               	movwf	7
  2599  05DA  0834               	movf	??_applianceControl,w
  2600  05DB  0081               	movwf	1
  2601  05DC  3001               	movlw	1
  2602  05DD  07BF               	addwf	applianceControl@currentStateBufferPositions,f
  2603  05DE  3000               	movlw	0
  2604  05DF  3DC0               	addwfc	applianceControl@currentStateBufferPositions+1,f
  2605                           
  2606                           ;megaonoff.c: 1219: currentStateBuffer[currentStateBufferPositions] = charSwitchLSB;
  2607  05E0  082E               	movf	applianceControl@charSwitchLSB,w
  2608  05E1  00B4               	movwf	??_applianceControl
  2609  05E2  083F               	movf	applianceControl@currentStateBufferPositions,w
  2610  05E3  3E20               	addlw	(low (_currentStateBuffer| (0+256)))& (0+255)
  2611  05E4  0086               	movwf	6
  2612  05E5  3001               	movlw	1	; select bank2/3
  2613  05E6  0087               	movwf	7
  2614  05E7  0834               	movf	??_applianceControl,w
  2615  05E8  0081               	movwf	1
  2616                           
  2617                           ;megaonoff.c: 1221: currentStateBufferPositions-=3;
  2618  05E9  30FD               	movlw	253
  2619  05EA  07BF               	addwf	applianceControl@currentStateBufferPositions,f
  2620  05EB  30FF               	movlw	255
  2621  05EC  3DC0               	addwfc	applianceControl@currentStateBufferPositions+1,f
  2622                           
  2623                           ;megaonoff.c: 1222: if(charFinalFrameState=='1')
  2624  05ED  3031               	movlw	49
  2625  05EE  0633               	xorwf	applianceControl@charFinalFrameState,w
  2626  05EF  1D03               	btfss	3,2
  2627  05F0  2E54               	goto	l4482
  2628                           
  2629                           ;megaonoff.c: 1223: {
  2630                           ;megaonoff.c: 1224: sendAcknowledgment(currentStateBuffer+currentStateBufferPositions);
  2631  05F1  083F               	movf	applianceControl@currentStateBufferPositions,w
  2632  05F2  3E20               	addlw	(low (_currentStateBuffer| (0+256)))& (0+255)
  2633  05F3  318F  27BB  3185   	fcall	_sendAcknowledgment
  2634                           
  2635                           ;megaonoff.c: 1225: }
  2636                           ;megaonoff.c: 1227: switch(integerSwitchNumber){
  2637  05F6  2E54               	goto	l4482
  2638  05F7                     l4456:	
  2639                           ;megaonoff.c: 1228: case 1:
  2640                           
  2641                           
  2642                           ;megaonoff.c: 1229: {
  2643                           ;megaonoff.c: 1230: PORTEbits.RE0 = integerSwitchState;
  2644  05F7  0020               	movlb	0	; select bank0
  2645  05F8  0C41               	rrf	applianceControl@integerSwitchState,w
  2646  05F9  1C03               	skipc
  2647  05FA  1010               	bcf	16,0	;volatile
  2648  05FB  1803               	skipnc
  2649  05FC  1410               	bsf	16,0	;volatile
  2650                           
  2651                           ;megaonoff.c: 1231: }break;
  2652  05FD  0008               	return
  2653  05FE                     l4458:	
  2654                           ;megaonoff.c: 1233: case 2:
  2655                           
  2656                           
  2657                           ;megaonoff.c: 1234: {
  2658                           ;megaonoff.c: 1235: PORTEbits.RE1 = integerSwitchState;
  2659  05FE  0C41               	rrf	applianceControl@integerSwitchState,w
  2660  05FF  1C03               	skipc
  2661  0600  1090               	bcf	16,1	;volatile
  2662  0601  1803               	skipnc
  2663  0602  1490               	bsf	16,1	;volatile
  2664                           
  2665                           ;megaonoff.c: 1237: } break;
  2666  0603  0008               	return
  2667  0604                     l4460:	
  2668                           ;megaonoff.c: 1238: case 3:
  2669                           
  2670                           
  2671                           ;megaonoff.c: 1239: {
  2672                           ;megaonoff.c: 1240: PORTGbits.RG0 = integerSwitchState;
  2673  0604  0C41               	rrf	applianceControl@integerSwitchState,w
  2674  0605  0025               	movlb	5	; select bank5
  2675  0606  1C03               	skipc
  2676  0607  100D               	bcf	13,0	;volatile
  2677  0608  1803               	skipnc
  2678  0609  140D               	bsf	13,0	;volatile
  2679                           
  2680                           ;megaonoff.c: 1242: } break;
  2681  060A  0008               	return
  2682  060B                     l4462:	
  2683                           ;megaonoff.c: 1244: case 4:
  2684                           
  2685                           
  2686                           ;megaonoff.c: 1245: {
  2687                           ;megaonoff.c: 1246: PORTGbits.RG3 = integerSwitchState;
  2688  060B  0020               	movlb	0	; select bank0
  2689  060C  0C41               	rrf	applianceControl@integerSwitchState,w
  2690  060D  0025               	movlb	5	; select bank5
  2691  060E  1C03               	skipc
  2692  060F  118D               	bcf	13,3	;volatile
  2693  0610  1803               	skipnc
  2694  0611  158D               	bsf	13,3	;volatile
  2695                           
  2696                           ;megaonoff.c: 1247: }break;
  2697  0612  0008               	return
  2698  0613                     l4464:	
  2699                           ;megaonoff.c: 1248: case 5:
  2700                           
  2701                           
  2702                           ;megaonoff.c: 1249: {
  2703                           ;megaonoff.c: 1250: PORTGbits.RG4 = integerSwitchState;
  2704  0613  0020               	movlb	0	; select bank0
  2705  0614  0C41               	rrf	applianceControl@integerSwitchState,w
  2706  0615  0025               	movlb	5	; select bank5
  2707  0616  1C03               	skipc
  2708  0617  120D               	bcf	13,4	;volatile
  2709  0618  1803               	skipnc
  2710  0619  160D               	bsf	13,4	;volatile
  2711                           
  2712                           ;megaonoff.c: 1251: }break;
  2713  061A  0008               	return
  2714  061B                     l4466:	
  2715                           ;megaonoff.c: 1252: case 6:
  2716                           
  2717                           
  2718                           ;megaonoff.c: 1253: {
  2719                           ;megaonoff.c: 1254: PORTFbits.RF6 = integerSwitchState;
  2720  061B  0020               	movlb	0	; select bank0
  2721  061C  0C41               	rrf	applianceControl@integerSwitchState,w
  2722  061D  0025               	movlb	5	; select bank5
  2723  061E  1C03               	skipc
  2724  061F  130C               	bcf	12,6	;volatile
  2725  0620  1803               	skipnc
  2726  0621  170C               	bsf	12,6	;volatile
  2727                           
  2728                           ;megaonoff.c: 1255: }break;
  2729  0622  0008               	return
  2730  0623                     l4468:	
  2731                           ;megaonoff.c: 1257: case 7:
  2732                           
  2733                           
  2734                           ;megaonoff.c: 1258: {
  2735                           ;megaonoff.c: 1259: PORTFbits.RF5 = integerSwitchState;
  2736  0623  0020               	movlb	0	; select bank0
  2737  0624  0C41               	rrf	applianceControl@integerSwitchState,w
  2738  0625  0025               	movlb	5	; select bank5
  2739  0626  1C03               	skipc
  2740  0627  128C               	bcf	12,5	;volatile
  2741  0628  1803               	skipnc
  2742  0629  168C               	bsf	12,5	;volatile
  2743                           
  2744                           ;megaonoff.c: 1260: }break;
  2745  062A  0008               	return
  2746  062B                     l4470:	
  2747                           ;megaonoff.c: 1262: case 8:
  2748                           
  2749                           
  2750                           ;megaonoff.c: 1263: {
  2751                           ;megaonoff.c: 1264: PORTFbits.RF4 = integerSwitchState;
  2752  062B  0020               	movlb	0	; select bank0
  2753  062C  0C41               	rrf	applianceControl@integerSwitchState,w
  2754  062D  0025               	movlb	5	; select bank5
  2755  062E  1C03               	skipc
  2756  062F  120C               	bcf	12,4	;volatile
  2757  0630  1803               	skipnc
  2758  0631  160C               	bsf	12,4	;volatile
  2759                           
  2760                           ;megaonoff.c: 1265: }break;
  2761  0632  0008               	return
  2762  0633                     l4472:	
  2763                           ;megaonoff.c: 1266: case 9:{
  2764                           
  2765                           
  2766                           ;megaonoff.c: 1267: start_PWM_Generation_in_ISR_FLAG = integerSwitchState;
  2767  0633  0020               	movlb	0	; select bank0
  2768  0634  0842               	movf	applianceControl@integerSwitchState+1,w
  2769  0635  00CA               	movwf	_start_PWM_Generation_in_ISR_FLAG+1
  2770  0636  0841               	movf	applianceControl@integerSwitchState,w
  2771  0637  00C9               	movwf	_start_PWM_Generation_in_ISR_FLAG
  2772                           
  2773                           ;megaonoff.c: 1268: switch(integerSwitchState){
  2774  0638  2E46               	goto	l4478
  2775  0639                     l480:	
  2776                           ;megaonoff.c: 1269: case 0:
  2777                           
  2778                           
  2779                           ;megaonoff.c: 1270: PORTFbits.RF3=1;
  2780  0639  0025               	movlb	5	; select bank5
  2781  063A  158C               	bsf	12,3	;volatile
  2782                           
  2783                           ;megaonoff.c: 1271: break;
  2784  063B  0008               	return
  2785  063C                     l4474:	
  2786                           ;megaonoff.c: 1272: case 1:
  2787                           
  2788                           
  2789                           ;megaonoff.c: 1273: levelofDimmer_MSB = chDimmerSpeedMSB;
  2790  063C  0020               	movlb	0	; select bank0
  2791  063D  0830               	movf	applianceControl@chDimmerSpeedMSB,w
  2792  063E  00B4               	movwf	??_applianceControl
  2793  063F  0834               	movf	??_applianceControl,w
  2794  0640  00F8               	movwf	_levelofDimmer_MSB
  2795                           
  2796                           ;megaonoff.c: 1274: levelofDimmer_LSB = chDimmerSpeedLSB;
  2797  0641  0831               	movf	applianceControl@chDimmerSpeedLSB,w
  2798  0642  00B4               	movwf	??_applianceControl
  2799  0643  0834               	movf	??_applianceControl,w
  2800  0644  00F7               	movwf	_levelofDimmer_LSB
  2801                           
  2802                           ;megaonoff.c: 1278: }
  2803                           
  2804                           ;megaonoff.c: 1277: break;
  2805                           
  2806                           ;megaonoff.c: 1276: default:
  2807                           
  2808                           ;megaonoff.c: 1275: break;
  2809  0645  0008               	return
  2810  0646                     l4478:	
  2811                           
  2812                           ; Switch on 2 bytes has been partitioned into a top level switch of size 1, and 1 sub-sw
      +                          itches
  2813                           ; Switch size 1, requested type "space"
  2814                           ; Number of cases is 1, Range of values is 0 to 0
  2815                           ; switch strategies available:
  2816                           ; Name         Instructions Cycles
  2817                           ; simple_byte            4     3 (average)
  2818                           ; direct_byte            8     6 (fixed)
  2819                           ; jumptable            260     6 (fixed)
  2820                           ;	Chosen strategy is simple_byte
  2821  0646  0842               	movf	applianceControl@integerSwitchState+1,w
  2822  0647  3A00               	xorlw	0	; case 0
  2823  0648  1903               	skipnz
  2824  0649  2E4B               	goto	l5126
  2825  064A  2E67               	goto	l485
  2826  064B                     l5126:	
  2827                           
  2828                           ; Switch size 1, requested type "space"
  2829                           ; Number of cases is 2, Range of values is 0 to 1
  2830                           ; switch strategies available:
  2831                           ; Name         Instructions Cycles
  2832                           ; simple_byte            7     4 (average)
  2833                           ; direct_byte           10     6 (fixed)
  2834                           ; jumptable            260     6 (fixed)
  2835                           ;	Chosen strategy is simple_byte
  2836  064B  0841               	movf	applianceControl@integerSwitchState,w
  2837  064C  3A00               	xorlw	0	; case 0
  2838  064D  1903               	skipnz
  2839  064E  2E39               	goto	l480
  2840  064F  3A01               	xorlw	1	; case 1
  2841  0650  1903               	skipnz
  2842  0651  2E3C               	goto	l4474
  2843  0652  2E67               	goto	l485
  2844                           
  2845                           ;megaonoff.c: 1282: }
  2846                           
  2847                           ;megaonoff.c: 1281: break;
  2848                           
  2849                           ;megaonoff.c: 1280: default:
  2850                           
  2851                           ;megaonoff.c: 1279: }break;
  2852  0653  0008               	return
  2853  0654                     l4482:	
  2854                           
  2855                           ; Switch on 2 bytes has been partitioned into a top level switch of size 1, and 1 sub-sw
      +                          itches
  2856                           ; Switch size 1, requested type "space"
  2857                           ; Number of cases is 1, Range of values is 0 to 0
  2858                           ; switch strategies available:
  2859                           ; Name         Instructions Cycles
  2860                           ; simple_byte            4     3 (average)
  2861                           ; direct_byte            8     6 (fixed)
  2862                           ; jumptable            260     6 (fixed)
  2863                           ;	Chosen strategy is simple_byte
  2864  0654  0020               	movlb	0	; select bank0
  2865  0655  083E               	movf	applianceControl@integerSwitchNumber+1,w
  2866  0656  3A00               	xorlw	0	; case 0
  2867  0657  1903               	skipnz
  2868  0658  2E5A               	goto	l5128
  2869  0659  2E67               	goto	l485
  2870  065A                     l5128:	
  2871                           
  2872                           ; Switch size 1, requested type "space"
  2873                           ; Number of cases is 9, Range of values is 1 to 9
  2874                           ; switch strategies available:
  2875                           ; Name         Instructions Cycles
  2876                           ; direct_byte           27     9 (fixed)
  2877                           ; simple_byte           28    15 (average)
  2878                           ; jumptable            263     9 (fixed)
  2879                           ;	Chosen strategy is direct_byte
  2880  065A  083D               	movf	applianceControl@integerSwitchNumber,w
  2881  065B  3EFF               	addlw	-1
  2882  065C  1C03               	skipc
  2883  065D  0008               	return
  2884  065E  0084               	movwf	4
  2885  065F  3009               	movlw	9
  2886  0660  0204               	subwf	4,w
  2887  0661  1803               	skipnc
  2888  0662  0008               	return
  2889  0663  3188               	movlp	high S5130
  2890  0664  3504               	lslf	4,w
  2891  0665  3EDC               	addlw	low S5130
  2892  0666  0082               	movwf	2
  2893  0667                     l485:	
  2894  0667  0008               	return
  2895  0668                     __end_of_applianceControl:	
  2896                           
  2897                           	psect	swtext1
  2898  08DC                     __pswtext1:	
  2899  08DC                     S5130:	
  2900  08DC  3185  2DF7         	ljmp	l4456
  2901  08DE  3185  2DFE         	ljmp	l4458
  2902  08E0  3186  2E04         	ljmp	l4460
  2903  08E2  3186  2E0B         	ljmp	l4462
  2904  08E4  3186  2E13         	ljmp	l4464
  2905  08E6  3186  2E1B         	ljmp	l4466
  2906  08E8  3186  2E23         	ljmp	l4468
  2907  08EA  3186  2E2B         	ljmp	l4470
  2908  08EC  3186  2E33         	ljmp	l4472
  2909                           
  2910                           	psect	text4
  2911  0FBB                     __ptext4:	
  2912 ;; *************** function _sendAcknowledgment *****************
  2913 ;; Defined at:
  2914 ;;		line 1704 in file "megaonoff.c"
  2915 ;; Parameters:    Size  Location     Type
  2916 ;;  currentState    1    wreg     PTR unsigned char 
  2917 ;;		 -> currentStateBuffer(58), 
  2918 ;; Auto vars:     Size  Location     Type
  2919 ;;  currentState    1    3[BANK0 ] PTR unsigned char 
  2920 ;;		 -> currentStateBuffer(58), 
  2921 ;;  Tx_count        2    1[BANK0 ] int 
  2922 ;; Return value:  Size  Location     Type
  2923 ;;                  1    wreg      void 
  2924 ;; Registers used:
  2925 ;;		wreg, fsr1l, fsr1h, status,2, status,0
  2926 ;; Tracked objects:
  2927 ;;		On entry : 0/0
  2928 ;;		On exit  : 0/0
  2929 ;;		Unchanged: 0/0
  2930 ;; Data sizes:     COMMON   BANK0   BANK1   BANK2   BANK3   BANK4   BANK5   BANK6   BANK7   BANK8   BANK9
  2931 ;;      Params:         0       0       0       0       0       0       0       0       0       0       0
  2932 ;;      Locals:         0       3       0       0       0       0       0       0       0       0       0
  2933 ;;      Temps:          0       1       0       0       0       0       0       0       0       0       0
  2934 ;;      Totals:         0       4       0       0       0       0       0       0       0       0       0
  2935 ;;Total ram usage:        4 bytes
  2936 ;; Hardware stack levels used:    1
  2937 ;; Hardware stack levels required when called:    2
  2938 ;; This function calls:
  2939 ;;		Nothing
  2940 ;; This function is called by:
  2941 ;;		_applianceControl
  2942 ;; This function uses a non-reentrant model
  2943 ;;
  2944                           
  2945                           
  2946                           ;psect for function _sendAcknowledgment
  2947  0FBB                     _sendAcknowledgment:	
  2948                           
  2949                           ;incstack = 0
  2950                           ; Regs used in _sendAcknowledgment: [wreg+fsr1l+fsr1h+status,2+status,0]
  2951                           ;sendAcknowledgment@currentStateBuffer stored from wreg
  2952  0FBB  0020               	movlb	0	; select bank0
  2953  0FBC  00A3               	movwf	sendAcknowledgment@currentStateBuffer
  2954                           
  2955                           ;megaonoff.c: 1705: int Tx_count=0;
  2956  0FBD  01A1               	clrf	sendAcknowledgment@Tx_count
  2957  0FBE  01A2               	clrf	sendAcknowledgment@Tx_count+1
  2958  0FBF                     l4188:	
  2959                           ;megaonoff.c: 1706: while(Tx_count!=4)
  2960                           
  2961  0FBF  3004               	movlw	4
  2962  0FC0  0621               	xorwf	sendAcknowledgment@Tx_count,w
  2963  0FC1  0422               	iorwf	sendAcknowledgment@Tx_count+1,w
  2964  0FC2  1903               	btfsc	3,2
  2965  0FC3  0008               	return
  2966  0FC4                     l559:	
  2967                           ;megaonoff.c: 1707: {
  2968                           ;megaonoff.c: 1708: while (!TX1STAbits.TRMT);
  2969                           
  2970  0FC4  0023               	movlb	3	; select bank3
  2971  0FC5  1C9E               	btfss	30,1	;volatile
  2972  0FC6  2FC4               	goto	l559
  2973                           
  2974                           ;megaonoff.c: 1710: TX1REG = *currentStateBuffer;
  2975  0FC7  0020               	movlb	0	; select bank0
  2976  0FC8  0823               	movf	sendAcknowledgment@currentStateBuffer,w
  2977  0FC9  0086               	movwf	6
  2978  0FCA  3001               	movlw	1	; select bank2/3
  2979  0FCB  0087               	movwf	7
  2980  0FCC  0801               	movf	1,w
  2981  0FCD  0023               	movlb	3	; select bank3
  2982  0FCE  009A               	movwf	26	;volatile
  2983                           
  2984                           ;megaonoff.c: 1711: *currentStateBuffer++;
  2985  0FCF  3001               	movlw	1
  2986  0FD0  0020               	movlb	0	; select bank0
  2987  0FD1  00A0               	movwf	??_sendAcknowledgment
  2988  0FD2  0820               	movf	??_sendAcknowledgment,w
  2989  0FD3  07A3               	addwf	sendAcknowledgment@currentStateBuffer,f
  2990                           
  2991                           ;megaonoff.c: 1712: Tx_count++;
  2992  0FD4  3001               	movlw	1
  2993  0FD5  07A1               	addwf	sendAcknowledgment@Tx_count,f
  2994  0FD6  3000               	movlw	0
  2995  0FD7  3DA2               	addwfc	sendAcknowledgment@Tx_count+1,f
  2996  0FD8  2FBF               	goto	l4188
  2997  0FD9                     __end_of_sendAcknowledgment:	
  2998                           
  2999                           	psect	text5
  3000  0668                     __ptext5:	
  3001 ;; *************** function _atoi *****************
  3002 ;; Defined at:
  3003 ;;		line 5 in file "C:\Program Files (x86)\Microchip\xc8\v1.45\sources\common\atoi.c"
  3004 ;; Parameters:    Size  Location     Type
  3005 ;;  s               1    wreg     PTR const unsigned char 
  3006 ;;		 -> applianceControl@dimmerSpeedStringBuffer(2), applianceControl@switchNumberStringBuffer(2), 
  3007 ;; Auto vars:     Size  Location     Type
  3008 ;;  s               1   13[BANK0 ] PTR const unsigned char 
  3009 ;;		 -> applianceControl@dimmerSpeedStringBuffer(2), applianceControl@switchNumberStringBuffer(2), 
  3010 ;;  a               2   11[BANK0 ] int 
  3011 ;;  sign            1   10[BANK0 ] unsigned char 
  3012 ;; Return value:  Size  Location     Type
  3013 ;;                  2    6[BANK0 ] int 
  3014 ;; Registers used:
  3015 ;;		wreg, fsr1l, fsr1h, status,2, status,0, pclath, cstack
  3016 ;; Tracked objects:
  3017 ;;		On entry : 0/0
  3018 ;;		On exit  : 0/0
  3019 ;;		Unchanged: 0/0
  3020 ;; Data sizes:     COMMON   BANK0   BANK1   BANK2   BANK3   BANK4   BANK5   BANK6   BANK7   BANK8   BANK9
  3021 ;;      Params:         0       2       0       0       0       0       0       0       0       0       0
  3022 ;;      Locals:         0       4       0       0       0       0       0       0       0       0       0
  3023 ;;      Temps:          0       2       0       0       0       0       0       0       0       0       0
  3024 ;;      Totals:         0       8       0       0       0       0       0       0       0       0       0
  3025 ;;Total ram usage:        8 bytes
  3026 ;; Hardware stack levels used:    1
  3027 ;; Hardware stack levels required when called:    3
  3028 ;; This function calls:
  3029 ;;		___wmul
  3030 ;;		_isdigit
  3031 ;; This function is called by:
  3032 ;;		_applianceControl
  3033 ;; This function uses a non-reentrant model
  3034 ;;
  3035                           
  3036                           
  3037                           ;psect for function _atoi
  3038  0668                     _atoi:	
  3039                           
  3040                           ;incstack = 0
  3041                           ; Regs used in _atoi: [wreg+fsr1l+fsr1h+status,2+status,0+pclath+cstack]
  3042                           ;atoi@s stored from wreg
  3043  0668  0020               	movlb	0	; select bank0
  3044  0669  00AD               	movwf	atoi@s
  3045  066A                     l4150:	
  3046  066A  082D               	movf	atoi@s,w
  3047  066B  0086               	movwf	6
  3048  066C  0187               	clrf	7
  3049  066D  3020               	movlw	32
  3050  066E  0601               	xorwf	1,w
  3051  066F  1D03               	btfss	3,2
  3052  0670  2E76               	goto	l4152
  3053  0671                     l4148:	
  3054  0671  3001               	movlw	1
  3055  0672  00A8               	movwf	??_atoi
  3056  0673  0828               	movf	??_atoi,w
  3057  0674  07AD               	addwf	atoi@s,f
  3058  0675  2E6A               	goto	l4150
  3059  0676                     l4152:	
  3060  0676  082D               	movf	atoi@s,w
  3061  0677  0086               	movwf	6
  3062  0678  0187               	clrf	7
  3063  0679  3009               	movlw	9
  3064  067A  0601               	xorwf	1,w
  3065  067B  1903               	btfsc	3,2
  3066  067C  2E71               	goto	l4148
  3067  067D  01AB               	clrf	atoi@a
  3068  067E  01AC               	clrf	atoi@a+1
  3069  067F  01AA               	clrf	atoi@sign
  3070  0680  082D               	movf	atoi@s,w
  3071  0681  0086               	movwf	6
  3072  0682  0187               	clrf	7
  3073  0683  302D               	movlw	45
  3074  0684  0601               	xorwf	1,w
  3075  0685  1D03               	btfss	3,2
  3076  0686  2E8C               	goto	l4160
  3077  0687  3001               	movlw	1
  3078  0688  00A8               	movwf	??_atoi
  3079  0689  0828               	movf	??_atoi,w
  3080  068A  07AA               	addwf	atoi@sign,f
  3081  068B  2E93               	goto	l4166
  3082  068C                     l4160:	
  3083  068C  082D               	movf	atoi@s,w
  3084  068D  0086               	movwf	6
  3085  068E  0187               	clrf	7
  3086  068F  302B               	movlw	43
  3087  0690  0601               	xorwf	1,w
  3088  0691  1D03               	btfss	3,2
  3089  0692  2E97               	goto	l4168
  3090  0693                     l4166:	
  3091  0693  3001               	movlw	1
  3092  0694  00A8               	movwf	??_atoi
  3093  0695  0828               	movf	??_atoi,w
  3094  0696  07AD               	addwf	atoi@s,f
  3095  0697                     l4168:	
  3096  0697  082D               	movf	atoi@s,w
  3097  0698  0086               	movwf	6
  3098  0699  0187               	clrf	7
  3099  069A  0801               	movf	1,w
  3100  069B  318F  2701  3186   	fcall	_isdigit
  3101  069E  1C03               	btfss	3,0
  3102  069F  2EBE               	goto	l4170
  3103  06A0  0020               	movlb	0	; select bank0
  3104  06A1  082C               	movf	atoi@a+1,w
  3105  06A2  00A1               	movwf	___wmul@multiplier+1
  3106  06A3  082B               	movf	atoi@a,w
  3107  06A4  00A0               	movwf	___wmul@multiplier
  3108  06A5  300A               	movlw	10
  3109  06A6  00A2               	movwf	___wmul@multiplicand
  3110  06A7  3000               	movlw	0
  3111  06A8  00A3               	movwf	___wmul@multiplicand+1
  3112  06A9  318F  279F  3186   	fcall	___wmul
  3113  06AC  0020               	movlb	0	; select bank0
  3114  06AD  082D               	movf	atoi@s,w
  3115  06AE  0086               	movwf	6
  3116  06AF  0187               	clrf	7
  3117  06B0  0801               	movf	1,w
  3118  06B1  0720               	addwf	?___wmul,w
  3119  06B2  00A8               	movwf	??_atoi
  3120  06B3  0821               	movf	?___wmul+1,w
  3121  06B4  1803               	skipnc
  3122  06B5  0A21               	incf	?___wmul+1,w
  3123  06B6  00A9               	movwf	??_atoi+1
  3124  06B7  0828               	movf	??_atoi,w
  3125  06B8  3ED0               	addlw	208
  3126  06B9  00AB               	movwf	atoi@a
  3127  06BA  30FF               	movlw	255
  3128  06BB  3D29               	addwfc	??_atoi+1,w
  3129  06BC  00AC               	movwf	atoi@a+1
  3130  06BD  2E93               	goto	l4166
  3131  06BE                     l4170:	
  3132  06BE  0020               	movlb	0	; select bank0
  3133  06BF  082A               	movf	atoi@sign,w
  3134  06C0  1903               	btfsc	3,2
  3135  06C1  2ECE               	goto	l4176
  3136  06C2  092B               	comf	atoi@a,w
  3137  06C3  00A8               	movwf	??_atoi
  3138  06C4  092C               	comf	atoi@a+1,w
  3139  06C5  00A9               	movwf	??_atoi+1
  3140  06C6  0AA8               	incf	??_atoi,f
  3141  06C7  1903               	skipnz
  3142  06C8  0AA9               	incf	??_atoi+1,f
  3143  06C9  0828               	movf	??_atoi,w
  3144  06CA  00A6               	movwf	?_atoi
  3145  06CB  0829               	movf	??_atoi+1,w
  3146  06CC  00A7               	movwf	?_atoi+1
  3147  06CD  0008               	return
  3148  06CE                     l4176:	
  3149  06CE  082C               	movf	atoi@a+1,w
  3150  06CF  00A7               	movwf	?_atoi+1
  3151  06D0  082B               	movf	atoi@a,w
  3152  06D1  00A6               	movwf	?_atoi
  3153  06D2  0008               	return
  3154  06D3                     __end_of_atoi:	
  3155                           
  3156                           	psect	text6
  3157  0F01                     __ptext6:	
  3158 ;; *************** function _isdigit *****************
  3159 ;; Defined at:
  3160 ;;		line 8 in file "C:\Program Files (x86)\Microchip\xc8\v1.45\sources\common\isdigit.c"
  3161 ;; Parameters:    Size  Location     Type
  3162 ;;  c               1    wreg     unsigned char 
  3163 ;; Auto vars:     Size  Location     Type
  3164 ;;  c               1    1[BANK0 ] unsigned char 
  3165 ;; Return value:  Size  Location     Type
  3166 ;;		None               void
  3167 ;; Registers used:
  3168 ;;		wreg, status,2, status,0
  3169 ;; Tracked objects:
  3170 ;;		On entry : 0/0
  3171 ;;		On exit  : 0/0
  3172 ;;		Unchanged: 0/0
  3173 ;; Data sizes:     COMMON   BANK0   BANK1   BANK2   BANK3   BANK4   BANK5   BANK6   BANK7   BANK8   BANK9
  3174 ;;      Params:         0       0       0       0       0       0       0       0       0       0       0
  3175 ;;      Locals:         0       2       0       0       0       0       0       0       0       0       0
  3176 ;;      Temps:          0       0       0       0       0       0       0       0       0       0       0
  3177 ;;      Totals:         0       2       0       0       0       0       0       0       0       0       0
  3178 ;;Total ram usage:        2 bytes
  3179 ;; Hardware stack levels used:    1
  3180 ;; Hardware stack levels required when called:    2
  3181 ;; This function calls:
  3182 ;;		Nothing
  3183 ;; This function is called by:
  3184 ;;		_atoi
  3185 ;; This function uses a non-reentrant model
  3186 ;;
  3187                           
  3188                           
  3189                           ;psect for function _isdigit
  3190  0F01                     _isdigit:	
  3191                           
  3192                           ;incstack = 0
  3193                           ; Regs used in _isdigit: [wreg+status,2+status,0]
  3194                           ;isdigit@c stored from wreg
  3195  0F01  0020               	movlb	0	; select bank0
  3196  0F02  00A1               	movwf	isdigit@c
  3197  0F03  01A0               	clrf	_isdigit$1120
  3198  0F04  303A               	movlw	58
  3199  0F05  0221               	subwf	isdigit@c,w
  3200  0F06  1803               	skipnc
  3201  0F07  2F0E               	goto	l4142
  3202  0F08  3030               	movlw	48
  3203  0F09  0221               	subwf	isdigit@c,w
  3204  0F0A  1C03               	skipc
  3205  0F0B  2F0E               	goto	l4142
  3206  0F0C  01A0               	clrf	_isdigit$1120
  3207  0F0D  0AA0               	incf	_isdigit$1120,f
  3208  0F0E                     l4142:	
  3209  0F0E  0C20               	rrf	_isdigit$1120,w
  3210  0F0F  0008               	return
  3211  0F10                     __end_of_isdigit:	
  3212                           
  3213                           	psect	text7
  3214  0F9F                     __ptext7:	
  3215 ;; *************** function ___wmul *****************
  3216 ;; Defined at:
  3217 ;;		line 15 in file "C:\Program Files (x86)\Microchip\xc8\v1.45\sources\common\Umul16.c"
  3218 ;; Parameters:    Size  Location     Type
  3219 ;;  multiplier      2    0[BANK0 ] unsigned int 
  3220 ;;  multiplicand    2    2[BANK0 ] unsigned int 
  3221 ;; Auto vars:     Size  Location     Type
  3222 ;;  product         2    4[BANK0 ] unsigned int 
  3223 ;; Return value:  Size  Location     Type
  3224 ;;                  2    0[BANK0 ] unsigned int 
  3225 ;; Registers used:
  3226 ;;		wreg, status,2, status,0
  3227 ;; Tracked objects:
  3228 ;;		On entry : 0/0
  3229 ;;		On exit  : 0/0
  3230 ;;		Unchanged: 0/0
  3231 ;; Data sizes:     COMMON   BANK0   BANK1   BANK2   BANK3   BANK4   BANK5   BANK6   BANK7   BANK8   BANK9
  3232 ;;      Params:         0       4       0       0       0       0       0       0       0       0       0
  3233 ;;      Locals:         0       2       0       0       0       0       0       0       0       0       0
  3234 ;;      Temps:          0       0       0       0       0       0       0       0       0       0       0
  3235 ;;      Totals:         0       6       0       0       0       0       0       0       0       0       0
  3236 ;;Total ram usage:        6 bytes
  3237 ;; Hardware stack levels used:    1
  3238 ;; Hardware stack levels required when called:    2
  3239 ;; This function calls:
  3240 ;;		Nothing
  3241 ;; This function is called by:
  3242 ;;		_atoi
  3243 ;; This function uses a non-reentrant model
  3244 ;;
  3245                           
  3246                           
  3247                           ;psect for function ___wmul
  3248  0F9F                     ___wmul:	
  3249                           
  3250                           ;incstack = 0
  3251                           ; Regs used in ___wmul: [wreg+status,2+status,0]
  3252  0F9F  0020               	movlb	0	; select bank0
  3253  0FA0  01A4               	clrf	___wmul@product
  3254  0FA1  01A5               	clrf	___wmul@product+1
  3255  0FA2                     l4122:	
  3256  0FA2  1C20               	btfss	___wmul@multiplier,0
  3257  0FA3  2FA8               	goto	l584
  3258  0FA4  0822               	movf	___wmul@multiplicand,w
  3259  0FA5  07A4               	addwf	___wmul@product,f
  3260  0FA6  0823               	movf	___wmul@multiplicand+1,w
  3261  0FA7  3DA5               	addwfc	___wmul@product+1,f
  3262  0FA8                     l584:	
  3263  0FA8  3001               	movlw	1
  3264  0FA9                     u2325:	
  3265  0FA9  35A2               	lslf	___wmul@multiplicand,f
  3266  0FAA  0DA3               	rlf	___wmul@multiplicand+1,f
  3267  0FAB  0B89               	decfsz	9,f
  3268  0FAC  2FA9               	goto	u2325
  3269  0FAD  3001               	movlw	1
  3270  0FAE                     u2335:	
  3271  0FAE  36A1               	lsrf	___wmul@multiplier+1,f
  3272  0FAF  0CA0               	rrf	___wmul@multiplier,f
  3273  0FB0  0B89               	decfsz	9,f
  3274  0FB1  2FAE               	goto	u2335
  3275  0FB2  0820               	movf	___wmul@multiplier,w
  3276  0FB3  0421               	iorwf	___wmul@multiplier+1,w
  3277  0FB4  1D03               	btfss	3,2
  3278  0FB5  2FA2               	goto	l4122
  3279  0FB6  0825               	movf	___wmul@product+1,w
  3280  0FB7  00A1               	movwf	?___wmul+1
  3281  0FB8  0824               	movf	___wmul@product,w
  3282  0FB9  00A0               	movwf	?___wmul
  3283  0FBA  0008               	return
  3284  0FBB                     __end_of___wmul:	
  3285                           
  3286                           	psect	text8
  3287  0FD9                     __ptext8:	
  3288 ;; *************** function _allPeripheralInit *****************
  3289 ;; Defined at:
  3290 ;;		line 1340 in file "megaonoff.c"
  3291 ;; Parameters:    Size  Location     Type
  3292 ;;		None
  3293 ;; Auto vars:     Size  Location     Type
  3294 ;;		None
  3295 ;; Return value:  Size  Location     Type
  3296 ;;                  1    wreg      void 
  3297 ;; Registers used:
  3298 ;;		wreg, status,2, status,0, pclath, cstack
  3299 ;; Tracked objects:
  3300 ;;		On entry : 0/0
  3301 ;;		On exit  : 0/0
  3302 ;;		Unchanged: 0/0
  3303 ;; Data sizes:     COMMON   BANK0   BANK1   BANK2   BANK3   BANK4   BANK5   BANK6   BANK7   BANK8   BANK9
  3304 ;;      Params:         0       0       0       0       0       0       0       0       0       0       0
  3305 ;;      Locals:         0       0       0       0       0       0       0       0       0       0       0
  3306 ;;      Temps:          0       0       0       0       0       0       0       0       0       0       0
  3307 ;;      Totals:         0       0       0       0       0       0       0       0       0       0       0
  3308 ;;Total ram usage:        0 bytes
  3309 ;; Hardware stack levels used:    1
  3310 ;; Hardware stack levels required when called:    3
  3311 ;; This function calls:
  3312 ;;		_CCP10_Initialize
  3313 ;;		_CCP7_Initialize
  3314 ;;		_CCP8_Initialize
  3315 ;;		_CCP9_Initialize
  3316 ;;		_EUSART_Initialize
  3317 ;;		_TMR10_Initialize
  3318 ;;		_TMR1_Initialize
  3319 ;;		_TMR2_Initialize
  3320 ;;		_TMR3_Initialize
  3321 ;;		_TMR4_Initialize
  3322 ;;		_TMR5_Initialize
  3323 ;;		_TMR6_Initialize
  3324 ;;		_TMR8_Initialize
  3325 ;; This function is called by:
  3326 ;;		_main
  3327 ;; This function uses a non-reentrant model
  3328 ;;
  3329                           
  3330                           
  3331                           ;psect for function _allPeripheralInit
  3332  0FD9                     _allPeripheralInit:	
  3333                           
  3334                           ;megaonoff.c: 1341: EUSART_Initialize();
  3335                           
  3336                           ;incstack = 0
  3337                           ; Regs used in _allPeripheralInit: [wreg+status,2+status,0+pclath+cstack]
  3338  0FD9  318F  2770  318F   	fcall	_EUSART_Initialize
  3339                           
  3340                           ;megaonoff.c: 1342: TMR1_Initialize();
  3341  0FDC  318E  26D1  318F   	fcall	_TMR1_Initialize
  3342                           
  3343                           ;megaonoff.c: 1343: TMR2_Initialize();
  3344  0FDF  318E  26BD  318F   	fcall	_TMR2_Initialize
  3345                           
  3346                           ;megaonoff.c: 1344: TMR3_Initialize();
  3347  0FE2  318E  26E7  318F   	fcall	_TMR3_Initialize
  3348                           
  3349                           ;megaonoff.c: 1345: TMR4_Initialize();
  3350  0FE5  318E  26DC  318F   	fcall	_TMR4_Initialize
  3351                           
  3352                           ;megaonoff.c: 1346: TMR5_Initialize();
  3353  0FE8  318E  26C7  318F   	fcall	_TMR5_Initialize
  3354                           
  3355                           ;megaonoff.c: 1347: TMR6_Initialize();
  3356  0FEB  318E  2683  318F   	fcall	_TMR6_Initialize
  3357                           
  3358                           ;megaonoff.c: 1349: TMR8_Initialize();
  3359  0FEE  318E  268C  318F   	fcall	_TMR8_Initialize
  3360                           
  3361                           ;megaonoff.c: 1350: TMR10_Initialize();
  3362  0FF1  318E  267A  318F   	fcall	_TMR10_Initialize
  3363                           
  3364                           ;megaonoff.c: 1351: CCP9_Initialize();
  3365  0FF4  318E  26B3  318F   	fcall	_CCP9_Initialize
  3366                           
  3367                           ;megaonoff.c: 1352: CCP8_Initialize();
  3368  0FF7  318E  26A9  318F   	fcall	_CCP8_Initialize
  3369                           
  3370                           ;megaonoff.c: 1353: CCP7_Initialize();
  3371  0FFA  318E  269F  318F   	fcall	_CCP7_Initialize
  3372                           
  3373                           ;megaonoff.c: 1354: CCP10_Initialize();
  3374  0FFD  318E  2695         	fcall	_CCP10_Initialize
  3375  0FFF  0008               	return
  3376  1000                     __end_of_allPeripheralInit:	
  3377                           
  3378                           	psect	text9
  3379  0E8C                     __ptext9:	
  3380 ;; *************** function _TMR8_Initialize *****************
  3381 ;; Defined at:
  3382 ;;		line 1550 in file "megaonoff.c"
  3383 ;; Parameters:    Size  Location     Type
  3384 ;;		None
  3385 ;; Auto vars:     Size  Location     Type
  3386 ;;		None
  3387 ;; Return value:  Size  Location     Type
  3388 ;;                  1    wreg      void 
  3389 ;; Registers used:
  3390 ;;		wreg, status,2
  3391 ;; Tracked objects:
  3392 ;;		On entry : 0/0
  3393 ;;		On exit  : 0/0
  3394 ;;		Unchanged: 0/0
  3395 ;; Data sizes:     COMMON   BANK0   BANK1   BANK2   BANK3   BANK4   BANK5   BANK6   BANK7   BANK8   BANK9
  3396 ;;      Params:         0       0       0       0       0       0       0       0       0       0       0
  3397 ;;      Locals:         0       0       0       0       0       0       0       0       0       0       0
  3398 ;;      Temps:          0       0       0       0       0       0       0       0       0       0       0
  3399 ;;      Totals:         0       0       0       0       0       0       0       0       0       0       0
  3400 ;;Total ram usage:        0 bytes
  3401 ;; Hardware stack levels used:    1
  3402 ;; Hardware stack levels required when called:    2
  3403 ;; This function calls:
  3404 ;;		Nothing
  3405 ;; This function is called by:
  3406 ;;		_allPeripheralInit
  3407 ;; This function uses a non-reentrant model
  3408 ;;
  3409                           
  3410                           
  3411                           ;psect for function _TMR8_Initialize
  3412  0E8C                     _TMR8_Initialize:	
  3413                           
  3414                           ;megaonoff.c: 1555: T8CON = 0x08;
  3415                           
  3416                           ;incstack = 0
  3417                           ; Regs used in _TMR8_Initialize: [wreg+status,2]
  3418  0E8C  3008               	movlw	8
  3419  0E8D  002B               	movlb	11	; select bank11
  3420  0E8E  0097               	movwf	23	;volatile
  3421                           
  3422                           ;megaonoff.c: 1561: TMR8 = 0x00;
  3423  0E8F  0195               	clrf	21	;volatile
  3424                           
  3425                           ;megaonoff.c: 1564: PIR2bits.TMR8IF = 0;
  3426  0E90  0020               	movlb	0	; select bank0
  3427  0E91  1092               	bcf	18,1	;volatile
  3428                           
  3429                           ;megaonoff.c: 1567: PIE2bits.TMR8IE = 1;
  3430  0E92  0021               	movlb	1	; select bank1
  3431  0E93  1492               	bsf	18,1	;volatile
  3432  0E94  0008               	return
  3433  0E95                     __end_of_TMR8_Initialize:	
  3434                           
  3435                           	psect	text10
  3436  0E83                     __ptext10:	
  3437 ;; *************** function _TMR6_Initialize *****************
  3438 ;; Defined at:
  3439 ;;		line 1531 in file "megaonoff.c"
  3440 ;; Parameters:    Size  Location     Type
  3441 ;;		None
  3442 ;; Auto vars:     Size  Location     Type
  3443 ;;		None
  3444 ;; Return value:  Size  Location     Type
  3445 ;;                  1    wreg      void 
  3446 ;; Registers used:
  3447 ;;		wreg, status,2
  3448 ;; Tracked objects:
  3449 ;;		On entry : 0/0
  3450 ;;		On exit  : 0/0
  3451 ;;		Unchanged: 0/0
  3452 ;; Data sizes:     COMMON   BANK0   BANK1   BANK2   BANK3   BANK4   BANK5   BANK6   BANK7   BANK8   BANK9
  3453 ;;      Params:         0       0       0       0       0       0       0       0       0       0       0
  3454 ;;      Locals:         0       0       0       0       0       0       0       0       0       0       0
  3455 ;;      Temps:          0       0       0       0       0       0       0       0       0       0       0
  3456 ;;      Totals:         0       0       0       0       0       0       0       0       0       0       0
  3457 ;;Total ram usage:        0 bytes
  3458 ;; Hardware stack levels used:    1
  3459 ;; Hardware stack levels required when called:    2
  3460 ;; This function calls:
  3461 ;;		Nothing
  3462 ;; This function is called by:
  3463 ;;		_allPeripheralInit
  3464 ;; This function uses a non-reentrant model
  3465 ;;
  3466                           
  3467                           
  3468                           ;psect for function _TMR6_Initialize
  3469  0E83                     _TMR6_Initialize:	
  3470                           
  3471                           ;megaonoff.c: 1536: T6CON = 0x08;
  3472                           
  3473                           ;incstack = 0
  3474                           ; Regs used in _TMR6_Initialize: [wreg+status,2]
  3475  0E83  3008               	movlw	8
  3476  0E84  0028               	movlb	8	; select bank8
  3477  0E85  009E               	movwf	30	;volatile
  3478                           
  3479                           ;megaonoff.c: 1542: TMR6 = 0x00;
  3480  0E86  019C               	clrf	28	;volatile
  3481                           
  3482                           ;megaonoff.c: 1545: PIR3bits.TMR6IF = 0;
  3483  0E87  0020               	movlb	0	; select bank0
  3484  0E88  1193               	bcf	19,3	;volatile
  3485                           
  3486                           ;megaonoff.c: 1548: PIE3bits.TMR6IE = 1;
  3487  0E89  0021               	movlb	1	; select bank1
  3488  0E8A  1593               	bsf	19,3	;volatile
  3489  0E8B  0008               	return
  3490  0E8C                     __end_of_TMR6_Initialize:	
  3491                           
  3492                           	psect	text11
  3493  0EC7                     __ptext11:	
  3494 ;; *************** function _TMR5_Initialize *****************
  3495 ;; Defined at:
  3496 ;;		line 1459 in file "megaonoff.c"
  3497 ;; Parameters:    Size  Location     Type
  3498 ;;		None
  3499 ;; Auto vars:     Size  Location     Type
  3500 ;;		None
  3501 ;; Return value:  Size  Location     Type
  3502 ;;                  1    wreg      void 
  3503 ;; Registers used:
  3504 ;;		status,2
  3505 ;; Tracked objects:
  3506 ;;		On entry : 0/0
  3507 ;;		On exit  : 0/0
  3508 ;;		Unchanged: 0/0
  3509 ;; Data sizes:     COMMON   BANK0   BANK1   BANK2   BANK3   BANK4   BANK5   BANK6   BANK7   BANK8   BANK9
  3510 ;;      Params:         0       0       0       0       0       0       0       0       0       0       0
  3511 ;;      Locals:         0       0       0       0       0       0       0       0       0       0       0
  3512 ;;      Temps:          0       0       0       0       0       0       0       0       0       0       0
  3513 ;;      Totals:         0       0       0       0       0       0       0       0       0       0       0
  3514 ;;Total ram usage:        0 bytes
  3515 ;; Hardware stack levels used:    1
  3516 ;; Hardware stack levels required when called:    2
  3517 ;; This function calls:
  3518 ;;		Nothing
  3519 ;; This function is called by:
  3520 ;;		_allPeripheralInit
  3521 ;; This function uses a non-reentrant model
  3522 ;;
  3523                           
  3524                           
  3525                           ;psect for function _TMR5_Initialize
  3526  0EC7                     _TMR5_Initialize:	
  3527                           
  3528                           ;megaonoff.c: 1464: T5CON = 0x00;
  3529                           
  3530                           ;incstack = 0
  3531                           ; Regs used in _TMR5_Initialize: [status,2]
  3532  0EC7  0028               	movlb	8	; select bank8
  3533  0EC8  019A               	clrf	26	;volatile
  3534                           
  3535                           ;megaonoff.c: 1467: T5GCON = 0x00;
  3536  0EC9  019B               	clrf	27	;volatile
  3537                           
  3538                           ;megaonoff.c: 1470: TMR5H = 0x00;
  3539  0ECA  0199               	clrf	25	;volatile
  3540                           
  3541                           ;megaonoff.c: 1473: TMR5L = 0x00;
  3542  0ECB  0198               	clrf	24	;volatile
  3543                           
  3544                           ;megaonoff.c: 1476: PIR3bits.TMR5IF = 0;
  3545  0ECC  0020               	movlb	0	; select bank0
  3546  0ECD  1113               	bcf	19,2	;volatile
  3547                           
  3548                           ;megaonoff.c: 1479: PIE3bits.TMR5IE = 1;
  3549  0ECE  0021               	movlb	1	; select bank1
  3550  0ECF  1513               	bsf	19,2	;volatile
  3551  0ED0  0008               	return
  3552  0ED1                     __end_of_TMR5_Initialize:	
  3553                           
  3554                           	psect	text12
  3555  0EDC                     __ptext12:	
  3556 ;; *************** function _TMR4_Initialize *****************
  3557 ;; Defined at:
  3558 ;;		line 1507 in file "megaonoff.c"
  3559 ;; Parameters:    Size  Location     Type
  3560 ;;		None
  3561 ;; Auto vars:     Size  Location     Type
  3562 ;;		None
  3563 ;; Return value:  Size  Location     Type
  3564 ;;                  1    wreg      void 
  3565 ;; Registers used:
  3566 ;;		wreg, status,2
  3567 ;; Tracked objects:
  3568 ;;		On entry : 0/0
  3569 ;;		On exit  : 0/0
  3570 ;;		Unchanged: 0/0
  3571 ;; Data sizes:     COMMON   BANK0   BANK1   BANK2   BANK3   BANK4   BANK5   BANK6   BANK7   BANK8   BANK9
  3572 ;;      Params:         0       0       0       0       0       0       0       0       0       0       0
  3573 ;;      Locals:         0       0       0       0       0       0       0       0       0       0       0
  3574 ;;      Temps:          0       0       0       0       0       0       0       0       0       0       0
  3575 ;;      Totals:         0       0       0       0       0       0       0       0       0       0       0
  3576 ;;Total ram usage:        0 bytes
  3577 ;; Hardware stack levels used:    1
  3578 ;; Hardware stack levels required when called:    2
  3579 ;; This function calls:
  3580 ;;		Nothing
  3581 ;; This function is called by:
  3582 ;;		_allPeripheralInit
  3583 ;; This function uses a non-reentrant model
  3584 ;;
  3585                           
  3586                           
  3587                           ;psect for function _TMR4_Initialize
  3588  0EDC                     _TMR4_Initialize:	
  3589                           
  3590                           ;megaonoff.c: 1512: T4CON = 0x08;
  3591                           
  3592                           ;incstack = 0
  3593                           ; Regs used in _TMR4_Initialize: [wreg+status,2]
  3594  0EDC  3008               	movlw	8
  3595  0EDD  0028               	movlb	8	; select bank8
  3596  0EDE  0097               	movwf	23	;volatile
  3597                           
  3598                           ;megaonoff.c: 1518: TMR4 = 0x00;
  3599  0EDF  0195               	clrf	21	;volatile
  3600                           
  3601                           ;megaonoff.c: 1521: PIR3bits.TMR4IF = 0;
  3602  0EE0  0020               	movlb	0	; select bank0
  3603  0EE1  1093               	bcf	19,1	;volatile
  3604                           
  3605                           ;megaonoff.c: 1524: PIE3bits.TMR4IE = 1;
  3606  0EE2  0021               	movlb	1	; select bank1
  3607  0EE3  1493               	bsf	19,1	;volatile
  3608                           
  3609                           ;megaonoff.c: 1525: GIE = 1;
  3610  0EE4  178B               	bsf	11,7	;volatile
  3611                           
  3612                           ;megaonoff.c: 1528: PEIE = 1;
  3613  0EE5  170B               	bsf	11,6	;volatile
  3614  0EE6  0008               	return
  3615  0EE7                     __end_of_TMR4_Initialize:	
  3616                           
  3617                           	psect	text13
  3618  0EE7                     __ptext13:	
  3619 ;; *************** function _TMR3_Initialize *****************
  3620 ;; Defined at:
  3621 ;;		line 1429 in file "megaonoff.c"
  3622 ;; Parameters:    Size  Location     Type
  3623 ;;		None
  3624 ;; Auto vars:     Size  Location     Type
  3625 ;;		None
  3626 ;; Return value:  Size  Location     Type
  3627 ;;                  1    wreg      void 
  3628 ;; Registers used:
  3629 ;;		status,2
  3630 ;; Tracked objects:
  3631 ;;		On entry : 0/0
  3632 ;;		On exit  : 0/0
  3633 ;;		Unchanged: 0/0
  3634 ;; Data sizes:     COMMON   BANK0   BANK1   BANK2   BANK3   BANK4   BANK5   BANK6   BANK7   BANK8   BANK9
  3635 ;;      Params:         0       0       0       0       0       0       0       0       0       0       0
  3636 ;;      Locals:         0       0       0       0       0       0       0       0       0       0       0
  3637 ;;      Temps:          0       0       0       0       0       0       0       0       0       0       0
  3638 ;;      Totals:         0       0       0       0       0       0       0       0       0       0       0
  3639 ;;Total ram usage:        0 bytes
  3640 ;; Hardware stack levels used:    1
  3641 ;; Hardware stack levels required when called:    2
  3642 ;; This function calls:
  3643 ;;		Nothing
  3644 ;; This function is called by:
  3645 ;;		_allPeripheralInit
  3646 ;; This function uses a non-reentrant model
  3647 ;;
  3648                           
  3649                           
  3650                           ;psect for function _TMR3_Initialize
  3651  0EE7                     _TMR3_Initialize:	
  3652                           
  3653                           ;megaonoff.c: 1432: T3CON = 0x00;
  3654                           
  3655                           ;incstack = 0
  3656                           ; Regs used in _TMR3_Initialize: [status,2]
  3657  0EE7  0028               	movlb	8	; select bank8
  3658  0EE8  0193               	clrf	19	;volatile
  3659                           
  3660                           ;megaonoff.c: 1435: T3GCON = 0x00;
  3661  0EE9  0194               	clrf	20	;volatile
  3662                           
  3663                           ;megaonoff.c: 1438: TMR3H = 0x00;
  3664  0EEA  0192               	clrf	18	;volatile
  3665                           
  3666                           ;megaonoff.c: 1441: TMR3L = 0x00;
  3667  0EEB  0191               	clrf	17	;volatile
  3668                           
  3669                           ;megaonoff.c: 1444: PIR3bits.TMR3IF = 0;
  3670  0EEC  0020               	movlb	0	; select bank0
  3671  0EED  1013               	bcf	19,0	;volatile
  3672                           
  3673                           ;megaonoff.c: 1447: PIE3bits.TMR3IE = 1;
  3674  0EEE  0021               	movlb	1	; select bank1
  3675  0EEF  1413               	bsf	19,0	;volatile
  3676                           
  3677                           ;megaonoff.c: 1453: GIE = 1;
  3678  0EF0  178B               	bsf	11,7	;volatile
  3679                           
  3680                           ;megaonoff.c: 1456: PEIE = 1;
  3681  0EF1  170B               	bsf	11,6	;volatile
  3682  0EF2  0008               	return
  3683  0EF3                     __end_of_TMR3_Initialize:	
  3684                           
  3685                           	psect	text14
  3686  0EBD                     __ptext14:	
  3687 ;; *************** function _TMR2_Initialize *****************
  3688 ;; Defined at:
  3689 ;;		line 1482 in file "megaonoff.c"
  3690 ;; Parameters:    Size  Location     Type
  3691 ;;		None
  3692 ;; Auto vars:     Size  Location     Type
  3693 ;;		None
  3694 ;; Return value:  Size  Location     Type
  3695 ;;                  1    wreg      void 
  3696 ;; Registers used:
  3697 ;;		wreg, status,2
  3698 ;; Tracked objects:
  3699 ;;		On entry : 0/0
  3700 ;;		On exit  : 0/0
  3701 ;;		Unchanged: 0/0
  3702 ;; Data sizes:     COMMON   BANK0   BANK1   BANK2   BANK3   BANK4   BANK5   BANK6   BANK7   BANK8   BANK9
  3703 ;;      Params:         0       0       0       0       0       0       0       0       0       0       0
  3704 ;;      Locals:         0       0       0       0       0       0       0       0       0       0       0
  3705 ;;      Temps:          0       0       0       0       0       0       0       0       0       0       0
  3706 ;;      Totals:         0       0       0       0       0       0       0       0       0       0       0
  3707 ;;Total ram usage:        0 bytes
  3708 ;; Hardware stack levels used:    1
  3709 ;; Hardware stack levels required when called:    2
  3710 ;; This function calls:
  3711 ;;		Nothing
  3712 ;; This function is called by:
  3713 ;;		_allPeripheralInit
  3714 ;; This function uses a non-reentrant model
  3715 ;;
  3716                           
  3717                           
  3718                           ;psect for function _TMR2_Initialize
  3719  0EBD                     _TMR2_Initialize:	
  3720                           
  3721                           ;megaonoff.c: 1487: T2CON = 0x08;
  3722                           
  3723                           ;incstack = 0
  3724                           ; Regs used in _TMR2_Initialize: [wreg+status,2]
  3725  0EBD  3008               	movlw	8
  3726  0EBE  0020               	movlb	0	; select bank0
  3727  0EBF  009C               	movwf	28	;volatile
  3728                           
  3729                           ;megaonoff.c: 1493: TMR2 = 0x00;
  3730  0EC0  019A               	clrf	26	;volatile
  3731                           
  3732                           ;megaonoff.c: 1496: PIR1bits.TMR2IF = 0;
  3733  0EC1  1091               	bcf	17,1	;volatile
  3734                           
  3735                           ;megaonoff.c: 1499: PIE1bits.TMR2IE = 1;
  3736  0EC2  0021               	movlb	1	; select bank1
  3737  0EC3  1491               	bsf	17,1	;volatile
  3738                           
  3739                           ;megaonoff.c: 1500: GIE = 1;
  3740  0EC4  178B               	bsf	11,7	;volatile
  3741                           
  3742                           ;megaonoff.c: 1503: PEIE = 1;
  3743  0EC5  170B               	bsf	11,6	;volatile
  3744  0EC6  0008               	return
  3745  0EC7                     __end_of_TMR2_Initialize:	
  3746                           
  3747                           	psect	text15
  3748  0ED1                     __ptext15:	
  3749 ;; *************** function _TMR1_Initialize *****************
  3750 ;; Defined at:
  3751 ;;		line 1398 in file "megaonoff.c"
  3752 ;; Parameters:    Size  Location     Type
  3753 ;;		None
  3754 ;; Auto vars:     Size  Location     Type
  3755 ;;		None
  3756 ;; Return value:  Size  Location     Type
  3757 ;;                  1    wreg      void 
  3758 ;; Registers used:
  3759 ;;		status,2
  3760 ;; Tracked objects:
  3761 ;;		On entry : 0/0
  3762 ;;		On exit  : 0/0
  3763 ;;		Unchanged: 0/0
  3764 ;; Data sizes:     COMMON   BANK0   BANK1   BANK2   BANK3   BANK4   BANK5   BANK6   BANK7   BANK8   BANK9
  3765 ;;      Params:         0       0       0       0       0       0       0       0       0       0       0
  3766 ;;      Locals:         0       0       0       0       0       0       0       0       0       0       0
  3767 ;;      Temps:          0       0       0       0       0       0       0       0       0       0       0
  3768 ;;      Totals:         0       0       0       0       0       0       0       0       0       0       0
  3769 ;;Total ram usage:        0 bytes
  3770 ;; Hardware stack levels used:    1
  3771 ;; Hardware stack levels required when called:    2
  3772 ;; This function calls:
  3773 ;;		Nothing
  3774 ;; This function is called by:
  3775 ;;		_allPeripheralInit
  3776 ;; This function uses a non-reentrant model
  3777 ;;
  3778                           
  3779                           
  3780                           ;psect for function _TMR1_Initialize
  3781  0ED1                     _TMR1_Initialize:	
  3782                           
  3783                           ;megaonoff.c: 1401: T1CON = 0x00;
  3784                           
  3785                           ;incstack = 0
  3786                           ; Regs used in _TMR1_Initialize: [status,2]
  3787  0ED1  0020               	movlb	0	; select bank0
  3788  0ED2  0198               	clrf	24	;volatile
  3789                           
  3790                           ;megaonoff.c: 1404: T1GCON = 0x00;
  3791  0ED3  0199               	clrf	25	;volatile
  3792                           
  3793                           ;megaonoff.c: 1407: TMR1H = 0x00;
  3794  0ED4  0197               	clrf	23	;volatile
  3795                           
  3796                           ;megaonoff.c: 1410: TMR1L = 0x00;
  3797  0ED5  0196               	clrf	22	;volatile
  3798                           
  3799                           ;megaonoff.c: 1413: PIR1bits.TMR1IF = 0;
  3800  0ED6  1011               	bcf	17,0	;volatile
  3801                           
  3802                           ;megaonoff.c: 1416: PIE1bits.TMR1IE = 1;
  3803  0ED7  0021               	movlb	1	; select bank1
  3804  0ED8  1411               	bsf	17,0	;volatile
  3805                           
  3806                           ;megaonoff.c: 1422: GIE = 1;
  3807  0ED9  178B               	bsf	11,7	;volatile
  3808                           
  3809                           ;megaonoff.c: 1425: PEIE = 1;
  3810  0EDA  170B               	bsf	11,6	;volatile
  3811  0EDB  0008               	return
  3812  0EDC                     __end_of_TMR1_Initialize:	
  3813                           
  3814                           	psect	text16
  3815  0E7A                     __ptext16:	
  3816 ;; *************** function _TMR10_Initialize *****************
  3817 ;; Defined at:
  3818 ;;		line 1569 in file "megaonoff.c"
  3819 ;; Parameters:    Size  Location     Type
  3820 ;;		None
  3821 ;; Auto vars:     Size  Location     Type
  3822 ;;		None
  3823 ;; Return value:  Size  Location     Type
  3824 ;;                  1    wreg      void 
  3825 ;; Registers used:
  3826 ;;		wreg, status,2
  3827 ;; Tracked objects:
  3828 ;;		On entry : 0/0
  3829 ;;		On exit  : 0/0
  3830 ;;		Unchanged: 0/0
  3831 ;; Data sizes:     COMMON   BANK0   BANK1   BANK2   BANK3   BANK4   BANK5   BANK6   BANK7   BANK8   BANK9
  3832 ;;      Params:         0       0       0       0       0       0       0       0       0       0       0
  3833 ;;      Locals:         0       0       0       0       0       0       0       0       0       0       0
  3834 ;;      Temps:          0       0       0       0       0       0       0       0       0       0       0
  3835 ;;      Totals:         0       0       0       0       0       0       0       0       0       0       0
  3836 ;;Total ram usage:        0 bytes
  3837 ;; Hardware stack levels used:    1
  3838 ;; Hardware stack levels required when called:    2
  3839 ;; This function calls:
  3840 ;;		Nothing
  3841 ;; This function is called by:
  3842 ;;		_allPeripheralInit
  3843 ;; This function uses a non-reentrant model
  3844 ;;
  3845                           
  3846                           
  3847                           ;psect for function _TMR10_Initialize
  3848  0E7A                     _TMR10_Initialize:	
  3849                           
  3850                           ;megaonoff.c: 1574: T10CON = 0x08;
  3851                           
  3852                           ;incstack = 0
  3853                           ; Regs used in _TMR10_Initialize: [wreg+status,2]
  3854  0E7A  3008               	movlw	8
  3855  0E7B  002B               	movlb	11	; select bank11
  3856  0E7C  009E               	movwf	30	;volatile
  3857                           
  3858                           ;megaonoff.c: 1580: TMR10 = 0x00;
  3859  0E7D  019C               	clrf	28	;volatile
  3860                           
  3861                           ;megaonoff.c: 1583: PIR2bits.TMR10IF = 0;
  3862  0E7E  0020               	movlb	0	; select bank0
  3863  0E7F  1112               	bcf	18,2	;volatile
  3864                           
  3865                           ;megaonoff.c: 1586: PIE2bits.TMR10IE = 1;
  3866  0E80  0021               	movlb	1	; select bank1
  3867  0E81  1512               	bsf	18,2	;volatile
  3868  0E82  0008               	return
  3869  0E83                     __end_of_TMR10_Initialize:	
  3870                           
  3871                           	psect	text17
  3872  0F70                     __ptext17:	
  3873 ;; *************** function _EUSART_Initialize *****************
  3874 ;; Defined at:
  3875 ;;		line 1360 in file "megaonoff.c"
  3876 ;; Parameters:    Size  Location     Type
  3877 ;;		None
  3878 ;; Auto vars:     Size  Location     Type
  3879 ;;		None
  3880 ;; Return value:  Size  Location     Type
  3881 ;;                  1    wreg      void 
  3882 ;; Registers used:
  3883 ;;		wreg
  3884 ;; Tracked objects:
  3885 ;;		On entry : 0/0
  3886 ;;		On exit  : 0/0
  3887 ;;		Unchanged: 0/0
  3888 ;; Data sizes:     COMMON   BANK0   BANK1   BANK2   BANK3   BANK4   BANK5   BANK6   BANK7   BANK8   BANK9
  3889 ;;      Params:         0       0       0       0       0       0       0       0       0       0       0
  3890 ;;      Locals:         0       0       0       0       0       0       0       0       0       0       0
  3891 ;;      Temps:          0       0       0       0       0       0       0       0       0       0       0
  3892 ;;      Totals:         0       0       0       0       0       0       0       0       0       0       0
  3893 ;;Total ram usage:        0 bytes
  3894 ;; Hardware stack levels used:    1
  3895 ;; Hardware stack levels required when called:    2
  3896 ;; This function calls:
  3897 ;;		Nothing
  3898 ;; This function is called by:
  3899 ;;		_allPeripheralInit
  3900 ;; This function uses a non-reentrant model
  3901 ;;
  3902                           
  3903                           
  3904                           ;psect for function _EUSART_Initialize
  3905  0F70                     _EUSART_Initialize:	
  3906                           
  3907                           ;megaonoff.c: 1361: PIE1bits.RC1IE = 0;
  3908                           
  3909                           ;incstack = 0
  3910                           ; Regs used in _EUSART_Initialize: [wreg]
  3911  0F70  0021               	movlb	1	; select bank1
  3912  0F71  1291               	bcf	17,5	;volatile
  3913                           
  3914                           ;megaonoff.c: 1362: PIE1bits.TX1IE = 0;
  3915  0F72  1211               	bcf	17,4	;volatile
  3916                           
  3917                           ;megaonoff.c: 1367: BAUD1CON = 0x0A;
  3918  0F73  300A               	movlw	10
  3919  0F74  0023               	movlb	3	; select bank3
  3920  0F75  009F               	movwf	31	;volatile
  3921                           
  3922                           ;megaonoff.c: 1370: RC1STA = 0x90;
  3923  0F76  3090               	movlw	144
  3924  0F77  009D               	movwf	29	;volatile
  3925                           
  3926                           ;megaonoff.c: 1373: TX1STA = 0x24;
  3927  0F78  3024               	movlw	36
  3928  0F79  009E               	movwf	30	;volatile
  3929                           
  3930                           ;megaonoff.c: 1378: SP1BRGL = 0xA0;
  3931  0F7A  30A0               	movlw	160
  3932  0F7B  009B               	movwf	27	;volatile
  3933                           
  3934                           ;megaonoff.c: 1380: SP1BRGH = 0x01;
  3935  0F7C  3001               	movlw	1
  3936  0F7D  009C               	movwf	28	;volatile
  3937                           
  3938                           ;megaonoff.c: 1383: GIE = 1;
  3939  0F7E  178B               	bsf	11,7	;volatile
  3940                           
  3941                           ;megaonoff.c: 1386: PEIE = 1;
  3942  0F7F  170B               	bsf	11,6	;volatile
  3943                           
  3944                           ;megaonoff.c: 1389: PIE1bits.RC1IE = 1;
  3945  0F80  0021               	movlb	1	; select bank1
  3946  0F81  1691               	bsf	17,5	;volatile
  3947                           
  3948                           ;megaonoff.c: 1392: TX1STAbits.TXEN = 1;
  3949  0F82  0023               	movlb	3	; select bank3
  3950  0F83  169E               	bsf	30,5	;volatile
  3951                           
  3952                           ;megaonoff.c: 1395: RC1STAbits.SPEN = 1;
  3953  0F84  179D               	bsf	29,7	;volatile
  3954  0F85  0008               	return
  3955  0F86                     __end_of_EUSART_Initialize:	
  3956                           
  3957                           	psect	text18
  3958  0EB3                     __ptext18:	
  3959 ;; *************** function _CCP9_Initialize *****************
  3960 ;; Defined at:
  3961 ;;		line 1588 in file "megaonoff.c"
  3962 ;; Parameters:    Size  Location     Type
  3963 ;;		None
  3964 ;; Auto vars:     Size  Location     Type
  3965 ;;		None
  3966 ;; Return value:  Size  Location     Type
  3967 ;;                  1    wreg      void 
  3968 ;; Registers used:
  3969 ;;		wreg, status,2
  3970 ;; Tracked objects:
  3971 ;;		On entry : 0/0
  3972 ;;		On exit  : 0/0
  3973 ;;		Unchanged: 0/0
  3974 ;; Data sizes:     COMMON   BANK0   BANK1   BANK2   BANK3   BANK4   BANK5   BANK6   BANK7   BANK8   BANK9
  3975 ;;      Params:         0       0       0       0       0       0       0       0       0       0       0
  3976 ;;      Locals:         0       0       0       0       0       0       0       0       0       0       0
  3977 ;;      Temps:          0       0       0       0       0       0       0       0       0       0       0
  3978 ;;      Totals:         0       0       0       0       0       0       0       0       0       0       0
  3979 ;;Total ram usage:        0 bytes
  3980 ;; Hardware stack levels used:    1
  3981 ;; Hardware stack levels required when called:    2
  3982 ;; This function calls:
  3983 ;;		Nothing
  3984 ;; This function is called by:
  3985 ;;		_allPeripheralInit
  3986 ;; This function uses a non-reentrant model
  3987 ;;
  3988                           
  3989                           
  3990                           ;psect for function _CCP9_Initialize
  3991  0EB3                     _CCP9_Initialize:	
  3992                           
  3993                           ;megaonoff.c: 1592: CCP9CON = 0x84;
  3994                           
  3995                           ;incstack = 0
  3996                           ; Regs used in _CCP9_Initialize: [wreg+status,2]
  3997  0EB3  3084               	movlw	132
  3998  0EB4  002C               	movlb	12	; select bank12
  3999  0EB5  009C               	movwf	28	;volatile
  4000                           
  4001                           ;megaonoff.c: 1595: CCPR9H = 0x00;
  4002  0EB6  019B               	clrf	27	;volatile
  4003                           
  4004                           ;megaonoff.c: 1598: CCPR9L = 0x00;
  4005  0EB7  019A               	clrf	26	;volatile
  4006                           
  4007                           ;megaonoff.c: 1604: PIR4bits.CCP9IF = 0;
  4008  0EB8  0020               	movlb	0	; select bank0
  4009  0EB9  1314               	bcf	20,6	;volatile
  4010                           
  4011                           ;megaonoff.c: 1607: PIE4bits.CCP9IE = 1;
  4012  0EBA  0021               	movlb	1	; select bank1
  4013  0EBB  1714               	bsf	20,6	;volatile
  4014  0EBC  0008               	return
  4015  0EBD                     __end_of_CCP9_Initialize:	
  4016                           
  4017                           	psect	text19
  4018  0EA9                     __ptext19:	
  4019 ;; *************** function _CCP8_Initialize *****************
  4020 ;; Defined at:
  4021 ;;		line 1651 in file "megaonoff.c"
  4022 ;; Parameters:    Size  Location     Type
  4023 ;;		None
  4024 ;; Auto vars:     Size  Location     Type
  4025 ;;		None
  4026 ;; Return value:  Size  Location     Type
  4027 ;;                  1    wreg      void 
  4028 ;; Registers used:
  4029 ;;		wreg, status,2
  4030 ;; Tracked objects:
  4031 ;;		On entry : 0/0
  4032 ;;		On exit  : 0/0
  4033 ;;		Unchanged: 0/0
  4034 ;; Data sizes:     COMMON   BANK0   BANK1   BANK2   BANK3   BANK4   BANK5   BANK6   BANK7   BANK8   BANK9
  4035 ;;      Params:         0       0       0       0       0       0       0       0       0       0       0
  4036 ;;      Locals:         0       0       0       0       0       0       0       0       0       0       0
  4037 ;;      Temps:          0       0       0       0       0       0       0       0       0       0       0
  4038 ;;      Totals:         0       0       0       0       0       0       0       0       0       0       0
  4039 ;;Total ram usage:        0 bytes
  4040 ;; Hardware stack levels used:    1
  4041 ;; Hardware stack levels required when called:    2
  4042 ;; This function calls:
  4043 ;;		Nothing
  4044 ;; This function is called by:
  4045 ;;		_allPeripheralInit
  4046 ;; This function uses a non-reentrant model
  4047 ;;
  4048                           
  4049                           
  4050                           ;psect for function _CCP8_Initialize
  4051  0EA9                     _CCP8_Initialize:	
  4052                           
  4053                           ;megaonoff.c: 1655: CCP9CON = 0x84;
  4054                           
  4055                           ;incstack = 0
  4056                           ; Regs used in _CCP8_Initialize: [wreg+status,2]
  4057  0EA9  3084               	movlw	132
  4058  0EAA  002C               	movlb	12	; select bank12
  4059  0EAB  009C               	movwf	28	;volatile
  4060                           
  4061                           ;megaonoff.c: 1658: CCPR8H = 0x00;
  4062  0EAC  0198               	clrf	24	;volatile
  4063                           
  4064                           ;megaonoff.c: 1661: CCPR8L = 0x00;
  4065  0EAD  0197               	clrf	23	;volatile
  4066                           
  4067                           ;megaonoff.c: 1667: PIR4bits.CCP8IF = 0;
  4068  0EAE  0020               	movlb	0	; select bank0
  4069  0EAF  1194               	bcf	20,3	;volatile
  4070                           
  4071                           ;megaonoff.c: 1670: PIE4bits.CCP8IE = 1;
  4072  0EB0  0021               	movlb	1	; select bank1
  4073  0EB1  1594               	bsf	20,3	;volatile
  4074  0EB2  0008               	return
  4075  0EB3                     __end_of_CCP8_Initialize:	
  4076                           
  4077                           	psect	text20
  4078  0E9F                     __ptext20:	
  4079 ;; *************** function _CCP7_Initialize *****************
  4080 ;; Defined at:
  4081 ;;		line 1630 in file "megaonoff.c"
  4082 ;; Parameters:    Size  Location     Type
  4083 ;;		None
  4084 ;; Auto vars:     Size  Location     Type
  4085 ;;		None
  4086 ;; Return value:  Size  Location     Type
  4087 ;;                  1    wreg      void 
  4088 ;; Registers used:
  4089 ;;		wreg, status,2
  4090 ;; Tracked objects:
  4091 ;;		On entry : 0/0
  4092 ;;		On exit  : 0/0
  4093 ;;		Unchanged: 0/0
  4094 ;; Data sizes:     COMMON   BANK0   BANK1   BANK2   BANK3   BANK4   BANK5   BANK6   BANK7   BANK8   BANK9
  4095 ;;      Params:         0       0       0       0       0       0       0       0       0       0       0
  4096 ;;      Locals:         0       0       0       0       0       0       0       0       0       0       0
  4097 ;;      Temps:          0       0       0       0       0       0       0       0       0       0       0
  4098 ;;      Totals:         0       0       0       0       0       0       0       0       0       0       0
  4099 ;;Total ram usage:        0 bytes
  4100 ;; Hardware stack levels used:    1
  4101 ;; Hardware stack levels required when called:    2
  4102 ;; This function calls:
  4103 ;;		Nothing
  4104 ;; This function is called by:
  4105 ;;		_allPeripheralInit
  4106 ;; This function uses a non-reentrant model
  4107 ;;
  4108                           
  4109                           
  4110                           ;psect for function _CCP7_Initialize
  4111  0E9F                     _CCP7_Initialize:	
  4112                           
  4113                           ;megaonoff.c: 1634: CCP7CON = 0x84;
  4114                           
  4115                           ;incstack = 0
  4116                           ; Regs used in _CCP7_Initialize: [wreg+status,2]
  4117  0E9F  3084               	movlw	132
  4118  0EA0  002C               	movlb	12	; select bank12
  4119  0EA1  0096               	movwf	22	;volatile
  4120                           
  4121                           ;megaonoff.c: 1637: CCPR7H = 0x00;
  4122  0EA2  0195               	clrf	21	;volatile
  4123                           
  4124                           ;megaonoff.c: 1640: CCPR7L = 0x00;
  4125  0EA3  0194               	clrf	20	;volatile
  4126                           
  4127                           ;megaonoff.c: 1646: PIR4bits.CCP7IF = 0;
  4128  0EA4  0020               	movlb	0	; select bank0
  4129  0EA5  1114               	bcf	20,2	;volatile
  4130                           
  4131                           ;megaonoff.c: 1649: PIE4bits.CCP7IE = 1;
  4132  0EA6  0021               	movlb	1	; select bank1
  4133  0EA7  1514               	bsf	20,2	;volatile
  4134  0EA8  0008               	return
  4135  0EA9                     __end_of_CCP7_Initialize:	
  4136                           
  4137                           	psect	text21
  4138  0E95                     __ptext21:	
  4139 ;; *************** function _CCP10_Initialize *****************
  4140 ;; Defined at:
  4141 ;;		line 1609 in file "megaonoff.c"
  4142 ;; Parameters:    Size  Location     Type
  4143 ;;		None
  4144 ;; Auto vars:     Size  Location     Type
  4145 ;;		None
  4146 ;; Return value:  Size  Location     Type
  4147 ;;                  1    wreg      void 
  4148 ;; Registers used:
  4149 ;;		wreg, status,2
  4150 ;; Tracked objects:
  4151 ;;		On entry : 0/0
  4152 ;;		On exit  : 0/0
  4153 ;;		Unchanged: 0/0
  4154 ;; Data sizes:     COMMON   BANK0   BANK1   BANK2   BANK3   BANK4   BANK5   BANK6   BANK7   BANK8   BANK9
  4155 ;;      Params:         0       0       0       0       0       0       0       0       0       0       0
  4156 ;;      Locals:         0       0       0       0       0       0       0       0       0       0       0
  4157 ;;      Temps:          0       0       0       0       0       0       0       0       0       0       0
  4158 ;;      Totals:         0       0       0       0       0       0       0       0       0       0       0
  4159 ;;Total ram usage:        0 bytes
  4160 ;; Hardware stack levels used:    1
  4161 ;; Hardware stack levels required when called:    2
  4162 ;; This function calls:
  4163 ;;		Nothing
  4164 ;; This function is called by:
  4165 ;;		_allPeripheralInit
  4166 ;; This function uses a non-reentrant model
  4167 ;;
  4168                           
  4169                           
  4170                           ;psect for function _CCP10_Initialize
  4171  0E95                     _CCP10_Initialize:	
  4172                           
  4173                           ;megaonoff.c: 1613: CCP10CON = 0x84;
  4174                           
  4175                           ;incstack = 0
  4176                           ; Regs used in _CCP10_Initialize: [wreg+status,2]
  4177  0E95  3084               	movlw	132
  4178  0E96  002C               	movlb	12	; select bank12
  4179  0E97  009F               	movwf	31	;volatile
  4180                           
  4181                           ;megaonoff.c: 1616: CCPR10H = 0x00;
  4182  0E98  019E               	clrf	30	;volatile
  4183                           
  4184                           ;megaonoff.c: 1619: CCPR10L = 0x00;
  4185  0E99  019D               	clrf	29	;volatile
  4186                           
  4187                           ;megaonoff.c: 1625: PIR4bits.CCP10IF = 0;
  4188  0E9A  0020               	movlb	0	; select bank0
  4189  0E9B  1394               	bcf	20,7	;volatile
  4190                           
  4191                           ;megaonoff.c: 1628: PIE4bits.CCP10IE = 1;
  4192  0E9C  0021               	movlb	1	; select bank1
  4193  0E9D  1794               	bsf	20,7	;volatile
  4194  0E9E  0008               	return
  4195  0E9F                     __end_of_CCP10_Initialize:	
  4196                           
  4197                           	psect	text22
  4198  0F21                     __ptext22:	
  4199 ;; *************** function _TransmissionIndicationLedBlinking *****************
  4200 ;; Defined at:
  4201 ;;		line 1693 in file "megaonoff.c"
  4202 ;; Parameters:    Size  Location     Type
  4203 ;;		None
  4204 ;; Auto vars:     Size  Location     Type
  4205 ;;		None
  4206 ;; Return value:  Size  Location     Type
  4207 ;;                  1    wreg      void 
  4208 ;; Registers used:
  4209 ;;		wreg
  4210 ;; Tracked objects:
  4211 ;;		On entry : 0/0
  4212 ;;		On exit  : 0/0
  4213 ;;		Unchanged: 0/0
  4214 ;; Data sizes:     COMMON   BANK0   BANK1   BANK2   BANK3   BANK4   BANK5   BANK6   BANK7   BANK8   BANK9
  4215 ;;      Params:         0       0       0       0       0       0       0       0       0       0       0
  4216 ;;      Locals:         0       0       0       0       0       0       0       0       0       0       0
  4217 ;;      Temps:          0       2       0       0       0       0       0       0       0       0       0
  4218 ;;      Totals:         0       2       0       0       0       0       0       0       0       0       0
  4219 ;;Total ram usage:        2 bytes
  4220 ;; Hardware stack levels used:    1
  4221 ;; Hardware stack levels required when called:    2
  4222 ;; This function calls:
  4223 ;;		Nothing
  4224 ;; This function is called by:
  4225 ;;		_main
  4226 ;; This function uses a non-reentrant model
  4227 ;;
  4228                           
  4229                           
  4230                           ;psect for function _TransmissionIndicationLedBlinking
  4231  0F21                     _TransmissionIndicationLedBlinking:	
  4232                           
  4233                           ;megaonoff.c: 1694: PORTFbits.RF0 = 0;
  4234                           
  4235                           ;incstack = 0
  4236                           ; Regs used in _TransmissionIndicationLedBlinking: [wreg]
  4237  0F21  0025               	movlb	5	; select bank5
  4238  0F22  100C               	bcf	12,0	;volatile
  4239                           
  4240                           ;megaonoff.c: 1695: _delay((unsigned long)((100)*(16000000/4000.0)));
  4241  0F23  3003               	movlw	3
  4242  0F24  0020               	movlb	0	; select bank0
  4243  0F25  00A1               	movwf	??_TransmissionIndicationLedBlinking+1
  4244  0F26  3008               	movlw	8
  4245  0F27  00A0               	movwf	??_TransmissionIndicationLedBlinking
  4246  0F28  3077               	movlw	119
  4247  0F29                     u3307:	
  4248  0F29  0B89               	decfsz	9,f
  4249  0F2A  2F29               	goto	u3307
  4250  0F2B  0BA0               	decfsz	??_TransmissionIndicationLedBlinking,f
  4251  0F2C  2F29               	goto	u3307
  4252  0F2D  0BA1               	decfsz	??_TransmissionIndicationLedBlinking+1,f
  4253  0F2E  2F29               	goto	u3307
  4254                           
  4255                           ;megaonoff.c: 1696: PORTFbits.RF0 = 1;
  4256  0F2F  0025               	movlb	5	; select bank5
  4257  0F30  140C               	bsf	12,0	;volatile
  4258  0F31  0008               	return
  4259  0F32                     __end_of_TransmissionIndicationLedBlinking:	
  4260                           
  4261                           	psect	text23
  4262  070D                     __ptext23:	
  4263 ;; *************** function _SwitchOnStatustToGatway *****************
  4264 ;; Defined at:
  4265 ;;		line 1722 in file "megaonoff.c"
  4266 ;; Parameters:    Size  Location     Type
  4267 ;;  SwitchOnNumb    1    wreg     const unsigned char 
  4268 ;; Auto vars:     Size  Location     Type
  4269 ;;  SwitchOnNumb    1    1[BANK0 ] const unsigned char 
  4270 ;; Return value:  Size  Location     Type
  4271 ;;                  1    wreg      void 
  4272 ;; Registers used:
  4273 ;;		wreg
  4274 ;; Tracked objects:
  4275 ;;		On entry : 0/0
  4276 ;;		On exit  : 0/0
  4277 ;;		Unchanged: 0/0
  4278 ;; Data sizes:     COMMON   BANK0   BANK1   BANK2   BANK3   BANK4   BANK5   BANK6   BANK7   BANK8   BANK9
  4279 ;;      Params:         0       0       0       0       0       0       0       0       0       0       0
  4280 ;;      Locals:         0       1       0       0       0       0       0       0       0       0       0
  4281 ;;      Temps:          0       1       0       0       0       0       0       0       0       0       0
  4282 ;;      Totals:         0       2       0       0       0       0       0       0       0       0       0
  4283 ;;Total ram usage:        2 bytes
  4284 ;; Hardware stack levels used:    1
  4285 ;; Hardware stack levels required when called:    2
  4286 ;; This function calls:
  4287 ;;		Nothing
  4288 ;; This function is called by:
  4289 ;;		_main
  4290 ;; This function uses a non-reentrant model
  4291 ;;
  4292                           
  4293                           
  4294                           ;psect for function _SwitchOnStatustToGatway
  4295  070D                     _SwitchOnStatustToGatway:	
  4296                           
  4297                           ;incstack = 0
  4298                           ; Regs used in _SwitchOnStatustToGatway: [wreg]
  4299                           ;SwitchOnStatustToGatway@SwitchOnNumber stored from wreg
  4300  070D  0020               	movlb	0	; select bank0
  4301  070E  00A1               	movwf	SwitchOnStatustToGatway@SwitchOnNumber
  4302                           
  4303                           ;megaonoff.c: 1724: TX1REG = 'R';_delay((unsigned long)((1)*(16000000/4000.0)));
  4304  070F  3052               	movlw	82
  4305  0710  0023               	movlb	3	; select bank3
  4306  0711  009A               	movwf	26	;volatile
  4307  0712  3006               	movlw	6
  4308  0713  0020               	movlb	0	; select bank0
  4309  0714  00A0               	movwf	??_SwitchOnStatustToGatway
  4310  0715  3030               	movlw	48
  4311  0716                     u3317:	
  4312  0716  0B89               	decfsz	9,f
  4313  0717  2F16               	goto	u3317
  4314  0718  0BA0               	decfsz	??_SwitchOnStatustToGatway,f
  4315  0719  2F16               	goto	u3317
  4316  071A  0000               	nop
  4317                           
  4318                           ;megaonoff.c: 1725: TX1REG = '1';_delay((unsigned long)((1)*(16000000/4000.0)));
  4319  071B  3031               	movlw	49
  4320  071C  0023               	movlb	3	; select bank3
  4321  071D  009A               	movwf	26	;volatile
  4322  071E  3006               	movlw	6
  4323  071F  0020               	movlb	0	; select bank0
  4324  0720  00A0               	movwf	??_SwitchOnStatustToGatway
  4325  0721  3030               	movlw	48
  4326  0722                     u3327:	
  4327  0722  0B89               	decfsz	9,f
  4328  0723  2F22               	goto	u3327
  4329  0724  0BA0               	decfsz	??_SwitchOnStatustToGatway,f
  4330  0725  2F22               	goto	u3327
  4331  0726  0000               	nop
  4332                           
  4333                           ;megaonoff.c: 1726: TX1REG = '0';_delay((unsigned long)((1)*(16000000/4000.0)));
  4334  0727  3030               	movlw	48
  4335  0728  0023               	movlb	3	; select bank3
  4336  0729  009A               	movwf	26	;volatile
  4337  072A  3006               	movlw	6
  4338  072B  0020               	movlb	0	; select bank0
  4339  072C  00A0               	movwf	??_SwitchOnStatustToGatway
  4340  072D  3030               	movlw	48
  4341  072E                     u3337:	
  4342  072E  0B89               	decfsz	9,f
  4343  072F  2F2E               	goto	u3337
  4344  0730  0BA0               	decfsz	??_SwitchOnStatustToGatway,f
  4345  0731  2F2E               	goto	u3337
  4346  0732  0000               	nop
  4347                           
  4348                           ;megaonoff.c: 1727: TX1REG = SwitchOnNumber;_delay((unsigned long)((1)*(16000000/4000.0)
      +                          ));
  4349  0733  0020               	movlb	0	; select bank0
  4350  0734  0821               	movf	SwitchOnStatustToGatway@SwitchOnNumber,w
  4351  0735  0023               	movlb	3	; select bank3
  4352  0736  009A               	movwf	26	;volatile
  4353  0737  3006               	movlw	6
  4354  0738  0020               	movlb	0	; select bank0
  4355  0739  00A0               	movwf	??_SwitchOnStatustToGatway
  4356  073A  3030               	movlw	48
  4357  073B                     u3347:	
  4358  073B  0B89               	decfsz	9,f
  4359  073C  2F3B               	goto	u3347
  4360  073D  0BA0               	decfsz	??_SwitchOnStatustToGatway,f
  4361  073E  2F3B               	goto	u3347
  4362  073F  0000               	nop
  4363  0740  0008               	return
  4364  0741                     __end_of_SwitchOnStatustToGatway:	
  4365                           
  4366                           	psect	text24
  4367  0741                     __ptext24:	
  4368 ;; *************** function _SwitchOffStatustToGatway *****************
  4369 ;; Defined at:
  4370 ;;		line 1715 in file "megaonoff.c"
  4371 ;; Parameters:    Size  Location     Type
  4372 ;;  SwitchOffNum    1    wreg     const unsigned char 
  4373 ;; Auto vars:     Size  Location     Type
  4374 ;;  SwitchOffNum    1    1[BANK0 ] const unsigned char 
  4375 ;; Return value:  Size  Location     Type
  4376 ;;                  1    wreg      void 
  4377 ;; Registers used:
  4378 ;;		wreg
  4379 ;; Tracked objects:
  4380 ;;		On entry : 0/0
  4381 ;;		On exit  : 0/0
  4382 ;;		Unchanged: 0/0
  4383 ;; Data sizes:     COMMON   BANK0   BANK1   BANK2   BANK3   BANK4   BANK5   BANK6   BANK7   BANK8   BANK9
  4384 ;;      Params:         0       0       0       0       0       0       0       0       0       0       0
  4385 ;;      Locals:         0       1       0       0       0       0       0       0       0       0       0
  4386 ;;      Temps:          0       1       0       0       0       0       0       0       0       0       0
  4387 ;;      Totals:         0       2       0       0       0       0       0       0       0       0       0
  4388 ;;Total ram usage:        2 bytes
  4389 ;; Hardware stack levels used:    1
  4390 ;; Hardware stack levels required when called:    2
  4391 ;; This function calls:
  4392 ;;		Nothing
  4393 ;; This function is called by:
  4394 ;;		_main
  4395 ;; This function uses a non-reentrant model
  4396 ;;
  4397                           
  4398                           
  4399                           ;psect for function _SwitchOffStatustToGatway
  4400  0741                     _SwitchOffStatustToGatway:	
  4401                           
  4402                           ;incstack = 0
  4403                           ; Regs used in _SwitchOffStatustToGatway: [wreg]
  4404                           ;SwitchOffStatustToGatway@SwitchOffNumber stored from wreg
  4405  0741  0020               	movlb	0	; select bank0
  4406  0742  00A1               	movwf	SwitchOffStatustToGatway@SwitchOffNumber
  4407                           
  4408                           ;megaonoff.c: 1717: TX1REG = 'R';_delay((unsigned long)((1)*(16000000/4000.0)));
  4409  0743  3052               	movlw	82
  4410  0744  0023               	movlb	3	; select bank3
  4411  0745  009A               	movwf	26	;volatile
  4412  0746  3006               	movlw	6
  4413  0747  0020               	movlb	0	; select bank0
  4414  0748  00A0               	movwf	??_SwitchOffStatustToGatway
  4415  0749  3030               	movlw	48
  4416  074A                     u3357:	
  4417  074A  0B89               	decfsz	9,f
  4418  074B  2F4A               	goto	u3357
  4419  074C  0BA0               	decfsz	??_SwitchOffStatustToGatway,f
  4420  074D  2F4A               	goto	u3357
  4421  074E  0000               	nop
  4422                           
  4423                           ;megaonoff.c: 1718: TX1REG = '0';_delay((unsigned long)((1)*(16000000/4000.0)));
  4424  074F  3030               	movlw	48
  4425  0750  0023               	movlb	3	; select bank3
  4426  0751  009A               	movwf	26	;volatile
  4427  0752  3006               	movlw	6
  4428  0753  0020               	movlb	0	; select bank0
  4429  0754  00A0               	movwf	??_SwitchOffStatustToGatway
  4430  0755  3030               	movlw	48
  4431  0756                     u3367:	
  4432  0756  0B89               	decfsz	9,f
  4433  0757  2F56               	goto	u3367
  4434  0758  0BA0               	decfsz	??_SwitchOffStatustToGatway,f
  4435  0759  2F56               	goto	u3367
  4436  075A  0000               	nop
  4437                           
  4438                           ;megaonoff.c: 1719: TX1REG = '0';_delay((unsigned long)((1)*(16000000/4000.0)));
  4439  075B  3030               	movlw	48
  4440  075C  0023               	movlb	3	; select bank3
  4441  075D  009A               	movwf	26	;volatile
  4442  075E  3006               	movlw	6
  4443  075F  0020               	movlb	0	; select bank0
  4444  0760  00A0               	movwf	??_SwitchOffStatustToGatway
  4445  0761  3030               	movlw	48
  4446  0762                     u3377:	
  4447  0762  0B89               	decfsz	9,f
  4448  0763  2F62               	goto	u3377
  4449  0764  0BA0               	decfsz	??_SwitchOffStatustToGatway,f
  4450  0765  2F62               	goto	u3377
  4451  0766  0000               	nop
  4452                           
  4453                           ;megaonoff.c: 1720: TX1REG = SwitchOffNumber;_delay((unsigned long)((1)*(16000000/4000.0
      +                          )));
  4454  0767  0020               	movlb	0	; select bank0
  4455  0768  0821               	movf	SwitchOffStatustToGatway@SwitchOffNumber,w
  4456  0769  0023               	movlb	3	; select bank3
  4457  076A  009A               	movwf	26	;volatile
  4458  076B  3006               	movlw	6
  4459  076C  0020               	movlb	0	; select bank0
  4460  076D  00A0               	movwf	??_SwitchOffStatustToGatway
  4461  076E  3030               	movlw	48
  4462  076F                     u3387:	
  4463  076F  0B89               	decfsz	9,f
  4464  0770  2F6F               	goto	u3387
  4465  0771  0BA0               	decfsz	??_SwitchOffStatustToGatway,f
  4466  0772  2F6F               	goto	u3387
  4467  0773  0000               	nop
  4468  0774  0008               	return
  4469  0775                     __end_of_SwitchOffStatustToGatway:	
  4470                           
  4471                           	psect	text25
  4472  0F10                     __ptext25:	
  4473 ;; *************** function _ReceivingIndicationLedBlinking *****************
  4474 ;; Defined at:
  4475 ;;		line 1698 in file "megaonoff.c"
  4476 ;; Parameters:    Size  Location     Type
  4477 ;;		None
  4478 ;; Auto vars:     Size  Location     Type
  4479 ;;		None
  4480 ;; Return value:  Size  Location     Type
  4481 ;;                  1    wreg      void 
  4482 ;; Registers used:
  4483 ;;		wreg
  4484 ;; Tracked objects:
  4485 ;;		On entry : 0/0
  4486 ;;		On exit  : 0/0
  4487 ;;		Unchanged: 0/0
  4488 ;; Data sizes:     COMMON   BANK0   BANK1   BANK2   BANK3   BANK4   BANK5   BANK6   BANK7   BANK8   BANK9
  4489 ;;      Params:         0       0       0       0       0       0       0       0       0       0       0
  4490 ;;      Locals:         0       0       0       0       0       0       0       0       0       0       0
  4491 ;;      Temps:          0       2       0       0       0       0       0       0       0       0       0
  4492 ;;      Totals:         0       2       0       0       0       0       0       0       0       0       0
  4493 ;;Total ram usage:        2 bytes
  4494 ;; Hardware stack levels used:    1
  4495 ;; Hardware stack levels required when called:    2
  4496 ;; This function calls:
  4497 ;;		Nothing
  4498 ;; This function is called by:
  4499 ;;		_main
  4500 ;; This function uses a non-reentrant model
  4501 ;;
  4502                           
  4503                           
  4504                           ;psect for function _ReceivingIndicationLedBlinking
  4505  0F10                     _ReceivingIndicationLedBlinking:	
  4506                           
  4507                           ;megaonoff.c: 1699: PORTFbits.RF1 = 0;
  4508                           
  4509                           ;incstack = 0
  4510                           ; Regs used in _ReceivingIndicationLedBlinking: [wreg]
  4511  0F10  0025               	movlb	5	; select bank5
  4512  0F11  108C               	bcf	12,1	;volatile
  4513                           
  4514                           ;megaonoff.c: 1700: _delay((unsigned long)((100)*(16000000/4000.0)));
  4515  0F12  3003               	movlw	3
  4516  0F13  0020               	movlb	0	; select bank0
  4517  0F14  00A1               	movwf	??_ReceivingIndicationLedBlinking+1
  4518  0F15  3008               	movlw	8
  4519  0F16  00A0               	movwf	??_ReceivingIndicationLedBlinking
  4520  0F17  3077               	movlw	119
  4521  0F18                     u3397:	
  4522  0F18  0B89               	decfsz	9,f
  4523  0F19  2F18               	goto	u3397
  4524  0F1A  0BA0               	decfsz	??_ReceivingIndicationLedBlinking,f
  4525  0F1B  2F18               	goto	u3397
  4526  0F1C  0BA1               	decfsz	??_ReceivingIndicationLedBlinking+1,f
  4527  0F1D  2F18               	goto	u3397
  4528                           
  4529                           ;megaonoff.c: 1701: PORTFbits.RF1 = 1;
  4530  0F1E  0025               	movlb	5	; select bank5
  4531  0F1F  148C               	bsf	12,1	;volatile
  4532  0F20  0008               	return
  4533  0F21                     __end_of_ReceivingIndicationLedBlinking:	
  4534                           
  4535                           	psect	text26
  4536  07D2                     __ptext26:	
  4537 ;; *************** function _GPIO_pin_Initialize *****************
  4538 ;; Defined at:
  4539 ;;		line 1290 in file "megaonoff.c"
  4540 ;; Parameters:    Size  Location     Type
  4541 ;;		None
  4542 ;; Auto vars:     Size  Location     Type
  4543 ;;		None
  4544 ;; Return value:  Size  Location     Type
  4545 ;;                  1    wreg      void 
  4546 ;; Registers used:
  4547 ;;		status,2, status,0, pclath, cstack
  4548 ;; Tracked objects:
  4549 ;;		On entry : 0/0
  4550 ;;		On exit  : 0/0
  4551 ;;		Unchanged: 0/0
  4552 ;; Data sizes:     COMMON   BANK0   BANK1   BANK2   BANK3   BANK4   BANK5   BANK6   BANK7   BANK8   BANK9
  4553 ;;      Params:         0       0       0       0       0       0       0       0       0       0       0
  4554 ;;      Locals:         0       0       0       0       0       0       0       0       0       0       0
  4555 ;;      Temps:          0       0       0       0       0       0       0       0       0       0       0
  4556 ;;      Totals:         0       0       0       0       0       0       0       0       0       0       0
  4557 ;;Total ram usage:        0 bytes
  4558 ;; Hardware stack levels used:    1
  4559 ;; Hardware stack levels required when called:    3
  4560 ;; This function calls:
  4561 ;;		_clearAllPorts
  4562 ;;		_pinINIT_extra
  4563 ;; This function is called by:
  4564 ;;		_main
  4565 ;; This function uses a non-reentrant model
  4566 ;;
  4567                           
  4568                           
  4569                           ;psect for function _GPIO_pin_Initialize
  4570  07D2                     _GPIO_pin_Initialize:	
  4571                           
  4572                           ;megaonoff.c: 1291: clearAllPorts();
  4573                           
  4574                           ;incstack = 0
  4575                           ; Regs used in _GPIO_pin_Initialize: [status,2+status,0+pclath+cstack]
  4576  07D2  318F  2732  3187   	fcall	_clearAllPorts
  4577                           
  4578                           ;megaonoff.c: 1292: pinINIT_extra();
  4579  07D5  318F  275B  3187   	fcall	_pinINIT_extra
  4580                           
  4581                           ;megaonoff.c: 1293: TRISDbits.TRISD6 = 1;
  4582  07D8  0021               	movlb	1	; select bank1
  4583  07D9  170F               	bsf	15,6	;volatile
  4584                           
  4585                           ;megaonoff.c: 1294: TRISDbits.TRISD7 = 1;
  4586  07DA  178F               	bsf	15,7	;volatile
  4587                           
  4588                           ;megaonoff.c: 1295: TRISBbits.TRISB0 = 1;
  4589  07DB  140D               	bsf	13,0	;volatile
  4590                           
  4591                           ;megaonoff.c: 1296: TRISBbits.TRISB1 = 1;
  4592  07DC  148D               	bsf	13,1	;volatile
  4593                           
  4594                           ;megaonoff.c: 1297: TRISBbits.TRISB2 = 1;
  4595  07DD  150D               	bsf	13,2	;volatile
  4596                           
  4597                           ;megaonoff.c: 1298: TRISBbits.TRISB3 = 1;
  4598  07DE  158D               	bsf	13,3	;volatile
  4599                           
  4600                           ;megaonoff.c: 1299: TRISBbits.TRISB4 = 1;
  4601  07DF  160D               	bsf	13,4	;volatile
  4602                           
  4603                           ;megaonoff.c: 1300: TRISBbits.TRISB5 = 1;
  4604  07E0  168D               	bsf	13,5	;volatile
  4605                           
  4606                           ;megaonoff.c: 1301: TRISDbits.TRISD5 = 1;
  4607  07E1  168F               	bsf	15,5	;volatile
  4608                           
  4609                           ;megaonoff.c: 1305: TRISEbits.TRISE0 = 0;
  4610  07E2  1010               	bcf	16,0	;volatile
  4611                           
  4612                           ;megaonoff.c: 1306: TRISEbits.TRISE1 = 0;
  4613  07E3  1090               	bcf	16,1	;volatile
  4614                           
  4615                           ;megaonoff.c: 1307: TRISGbits.TRISG0 = 0;
  4616  07E4  0026               	movlb	6	; select bank6
  4617  07E5  100D               	bcf	13,0	;volatile
  4618                           
  4619                           ;megaonoff.c: 1308: TRISGbits.TRISG3 = 0;
  4620  07E6  118D               	bcf	13,3	;volatile
  4621                           
  4622                           ;megaonoff.c: 1309: TRISGbits.TRISG4 = 0;
  4623  07E7  120D               	bcf	13,4	;volatile
  4624                           
  4625                           ;megaonoff.c: 1310: TRISFbits.TRISF6 = 0;
  4626  07E8  130C               	bcf	12,6	;volatile
  4627                           
  4628                           ;megaonoff.c: 1311: TRISFbits.TRISF5 = 0;
  4629  07E9  128C               	bcf	12,5	;volatile
  4630                           
  4631                           ;megaonoff.c: 1312: TRISFbits.TRISF4 = 0;
  4632  07EA  120C               	bcf	12,4	;volatile
  4633                           
  4634                           ;megaonoff.c: 1313: TRISFbits.TRISF3 = 0;
  4635  07EB  118C               	bcf	12,3	;volatile
  4636                           
  4637                           ;megaonoff.c: 1316: TRISEbits.TRISE3 = 1;
  4638  07EC  0021               	movlb	1	; select bank1
  4639  07ED  1590               	bsf	16,3	;volatile
  4640                           
  4641                           ;megaonoff.c: 1317: TRISEbits.TRISE3 = 1;
  4642  07EE  1590               	bsf	16,3	;volatile
  4643                           
  4644                           ;megaonoff.c: 1318: TRISEbits.TRISE4 = 1;
  4645  07EF  1610               	bsf	16,4	;volatile
  4646                           
  4647                           ;megaonoff.c: 1319: TRISEbits.TRISE3 = 1;
  4648  07F0  1590               	bsf	16,3	;volatile
  4649                           
  4650                           ;megaonoff.c: 1320: TRISFbits.TRISF0 = 0;
  4651  07F1  0026               	movlb	6	; select bank6
  4652  07F2  100C               	bcf	12,0	;volatile
  4653                           
  4654                           ;megaonoff.c: 1321: TRISFbits.TRISF1 = 0;
  4655  07F3  108C               	bcf	12,1	;volatile
  4656                           
  4657                           ;megaonoff.c: 1322: TRISFbits.TRISF2 = 0;
  4658  07F4  110C               	bcf	12,2	;volatile
  4659                           
  4660                           ;megaonoff.c: 1325: TRISDbits.TRISD4 = 0;
  4661  07F5  0021               	movlb	1	; select bank1
  4662  07F6  120F               	bcf	15,4	;volatile
  4663                           
  4664                           ;megaonoff.c: 1326: TRISDbits.TRISD3 = 0;
  4665  07F7  118F               	bcf	15,3	;volatile
  4666                           
  4667                           ;megaonoff.c: 1327: TRISDbits.TRISD2 = 0;
  4668  07F8  110F               	bcf	15,2	;volatile
  4669                           
  4670                           ;megaonoff.c: 1331: TRISCbits.TRISC6 = 0;
  4671  07F9  130E               	bcf	14,6	;volatile
  4672                           
  4673                           ;megaonoff.c: 1332: TRISCbits.TRISC7 = 1;
  4674  07FA  178E               	bsf	14,7	;volatile
  4675                           
  4676                           ;megaonoff.c: 1334: clearAllPorts();
  4677  07FB  318F  2732         	fcall	_clearAllPorts
  4678  07FD  0008               	return
  4679  07FE                     __end_of_GPIO_pin_Initialize:	
  4680                           
  4681                           	psect	text27
  4682  0F5B                     __ptext27:	
  4683 ;; *************** function _pinINIT_extra *****************
  4684 ;; Defined at:
  4685 ;;		line 1739 in file "megaonoff.c"
  4686 ;; Parameters:    Size  Location     Type
  4687 ;;		None
  4688 ;; Auto vars:     Size  Location     Type
  4689 ;;		None
  4690 ;; Return value:  Size  Location     Type
  4691 ;;                  1    wreg      void 
  4692 ;; Registers used:
  4693 ;;		status,2
  4694 ;; Tracked objects:
  4695 ;;		On entry : 0/0
  4696 ;;		On exit  : 0/0
  4697 ;;		Unchanged: 0/0
  4698 ;; Data sizes:     COMMON   BANK0   BANK1   BANK2   BANK3   BANK4   BANK5   BANK6   BANK7   BANK8   BANK9
  4699 ;;      Params:         0       0       0       0       0       0       0       0       0       0       0
  4700 ;;      Locals:         0       0       0       0       0       0       0       0       0       0       0
  4701 ;;      Temps:          0       0       0       0       0       0       0       0       0       0       0
  4702 ;;      Totals:         0       0       0       0       0       0       0       0       0       0       0
  4703 ;;Total ram usage:        0 bytes
  4704 ;; Hardware stack levels used:    1
  4705 ;; Hardware stack levels required when called:    2
  4706 ;; This function calls:
  4707 ;;		Nothing
  4708 ;; This function is called by:
  4709 ;;		_GPIO_pin_Initialize
  4710 ;; This function uses a non-reentrant model
  4711 ;;
  4712                           
  4713                           
  4714                           ;psect for function _pinINIT_extra
  4715  0F5B                     _pinINIT_extra:	
  4716                           
  4717                           ;megaonoff.c: 1740: ANSELG=0x00; WPUG = 0;
  4718                           
  4719                           ;incstack = 0
  4720                           ; Regs used in _pinINIT_extra: [status,2]
  4721  0F5B  0028               	movlb	8	; select bank8
  4722  0F5C  018D               	clrf	13	;volatile
  4723  0F5D  0029               	movlb	9	; select bank9
  4724  0F5E  018D               	clrf	13	;volatile
  4725                           
  4726                           ;megaonoff.c: 1742: ANSELF=0x00;
  4727  0F5F  0028               	movlb	8	; select bank8
  4728  0F60  018C               	clrf	12	;volatile
  4729                           
  4730                           ;megaonoff.c: 1744: ANSELE=0x00; WPUE=0x00;
  4731  0F61  0023               	movlb	3	; select bank3
  4732  0F62  0190               	clrf	16	;volatile
  4733  0F63  0024               	movlb	4	; select bank4
  4734  0F64  0190               	clrf	16	;volatile
  4735                           
  4736                           ;megaonoff.c: 1746: ANSELD=0x00; WPUD=0x00;
  4737  0F65  0023               	movlb	3	; select bank3
  4738  0F66  018F               	clrf	15	;volatile
  4739  0F67  0024               	movlb	4	; select bank4
  4740  0F68  018F               	clrf	15	;volatile
  4741                           
  4742                           ;megaonoff.c: 1748: ANSELB=0x00; WPUB=0x00;
  4743  0F69  0023               	movlb	3	; select bank3
  4744  0F6A  018D               	clrf	13	;volatile
  4745  0F6B  0024               	movlb	4	; select bank4
  4746  0F6C  018D               	clrf	13	;volatile
  4747                           
  4748                           ;megaonoff.c: 1750: ANSELA=0x00;
  4749  0F6D  0023               	movlb	3	; select bank3
  4750  0F6E  018C               	clrf	12	;volatile
  4751  0F6F  0008               	return
  4752  0F70                     __end_of_pinINIT_extra:	
  4753                           
  4754                           	psect	text28
  4755  0F32                     __ptext28:	
  4756 ;; *************** function _clearAllPorts *****************
  4757 ;; Defined at:
  4758 ;;		line 1756 in file "megaonoff.c"
  4759 ;; Parameters:    Size  Location     Type
  4760 ;;		None
  4761 ;; Auto vars:     Size  Location     Type
  4762 ;;		None
  4763 ;; Return value:  Size  Location     Type
  4764 ;;                  1    wreg      void 
  4765 ;; Registers used:
  4766 ;;		None
  4767 ;; Tracked objects:
  4768 ;;		On entry : 0/0
  4769 ;;		On exit  : 0/0
  4770 ;;		Unchanged: 0/0
  4771 ;; Data sizes:     COMMON   BANK0   BANK1   BANK2   BANK3   BANK4   BANK5   BANK6   BANK7   BANK8   BANK9
  4772 ;;      Params:         0       0       0       0       0       0       0       0       0       0       0
  4773 ;;      Locals:         0       0       0       0       0       0       0       0       0       0       0
  4774 ;;      Temps:          0       0       0       0       0       0       0       0       0       0       0
  4775 ;;      Totals:         0       0       0       0       0       0       0       0       0       0       0
  4776 ;;Total ram usage:        0 bytes
  4777 ;; Hardware stack levels used:    1
  4778 ;; Hardware stack levels required when called:    2
  4779 ;; This function calls:
  4780 ;;		Nothing
  4781 ;; This function is called by:
  4782 ;;		_GPIO_pin_Initialize
  4783 ;; This function uses a non-reentrant model
  4784 ;;
  4785                           
  4786                           
  4787                           ;psect for function _clearAllPorts
  4788  0F32                     _clearAllPorts:	
  4789                           
  4790                           ;megaonoff.c: 1760: PORTEbits.RE0=0;
  4791                           
  4792                           ;incstack = 0
  4793                           ; Regs used in _clearAllPorts: []
  4794  0F32  0020               	movlb	0	; select bank0
  4795  0F33  1010               	bcf	16,0	;volatile
  4796                           
  4797                           ;megaonoff.c: 1761: PORTEbits.RE1=0;
  4798  0F34  1090               	bcf	16,1	;volatile
  4799                           
  4800                           ;megaonoff.c: 1762: PORTGbits.RG0=0;
  4801  0F35  0025               	movlb	5	; select bank5
  4802  0F36  100D               	bcf	13,0	;volatile
  4803                           
  4804                           ;megaonoff.c: 1763: PORTGbits.RG3=0;
  4805  0F37  118D               	bcf	13,3	;volatile
  4806                           
  4807                           ;megaonoff.c: 1764: PORTGbits.RG4=0;
  4808  0F38  120D               	bcf	13,4	;volatile
  4809                           
  4810                           ;megaonoff.c: 1765: PORTFbits.RF6=0;
  4811  0F39  130C               	bcf	12,6	;volatile
  4812                           
  4813                           ;megaonoff.c: 1766: PORTFbits.RF5=0;
  4814  0F3A  128C               	bcf	12,5	;volatile
  4815                           
  4816                           ;megaonoff.c: 1767: PORTFbits.RF4=0;
  4817  0F3B  120C               	bcf	12,4	;volatile
  4818                           
  4819                           ;megaonoff.c: 1768: PORTFbits.RF0 = 1;
  4820  0F3C  140C               	bsf	12,0	;volatile
  4821                           
  4822                           ;megaonoff.c: 1769: PORTFbits.RF1 = 1;
  4823  0F3D  148C               	bsf	12,1	;volatile
  4824                           
  4825                           ;megaonoff.c: 1770: PORTFbits.RF2 = 1;
  4826  0F3E  150C               	bsf	12,2	;volatile
  4827                           
  4828                           ;megaonoff.c: 1772: PORTDbits.RD4=0;
  4829  0F3F  0020               	movlb	0	; select bank0
  4830  0F40  120F               	bcf	15,4	;volatile
  4831                           
  4832                           ;megaonoff.c: 1773: PORTDbits.RD3=0;
  4833  0F41  118F               	bcf	15,3	;volatile
  4834                           
  4835                           ;megaonoff.c: 1774: PORTDbits.RD2=0;
  4836  0F42  110F               	bcf	15,2	;volatile
  4837                           
  4838                           ;megaonoff.c: 1775: PORTFbits.RF3 = 0;
  4839  0F43  0025               	movlb	5	; select bank5
  4840  0F44  118C               	bcf	12,3	;volatile
  4841  0F45  0008               	return
  4842  0F46                     __end_of_clearAllPorts:	
  4843                           
  4844                           	psect	intentry
  4845  0004                     __pintentry:	
  4846 ;; *************** function _isr *****************
  4847 ;; Defined at:
  4848 ;;		line 205 in file "megaonoff.c"
  4849 ;; Parameters:    Size  Location     Type
  4850 ;;		None
  4851 ;; Auto vars:     Size  Location     Type
  4852 ;;		None
  4853 ;; Return value:  Size  Location     Type
  4854 ;;                  1    wreg      void 
  4855 ;; Registers used:
  4856 ;;		wreg, fsr0l, fsr0h, fsr1l, fsr1h, status,2, status,0, pclath, cstack
  4857 ;; Tracked objects:
  4858 ;;		On entry : 0/0
  4859 ;;		On exit  : 0/0
  4860 ;;		Unchanged: 0/0
  4861 ;; Data sizes:     COMMON   BANK0   BANK1   BANK2   BANK3   BANK4   BANK5   BANK6   BANK7   BANK8   BANK9
  4862 ;;      Params:         0       0       0       0       0       0       0       0       0       0       0
  4863 ;;      Locals:         0       0       0       0       0       0       0       0       0       0       0
  4864 ;;      Temps:          2       0       0       0       0       0       0       0       0       0       0
  4865 ;;      Totals:         2       0       0       0       0       0       0       0       0       0       0
  4866 ;;Total ram usage:        2 bytes
  4867 ;; Hardware stack levels used:    1
  4868 ;; Hardware stack levels required when called:    1
  4869 ;; This function calls:
  4870 ;;		_errorsISR
  4871 ;; This function is called by:
  4872 ;;		Interrupt level 1
  4873 ;; This function uses a non-reentrant model
  4874 ;;
  4875                           
  4876  0004                     _isr:	
  4877                           
  4878                           ;incstack = 0
  4879  0004  147E               	bsf	126,0	;set compiler interrupt flag (level 1)
  4880                           
  4881                           ; Regs used in _isr: [wreg-fsr1h+status,2+status,0+pclath+cstack]
  4882  0005  3180               	pagesel	$
  4883  0006  0020               	movlb	0	; select bank0
  4884  0007  087F               	movf	127,w
  4885  0008  00F4               	movwf	??_isr+1
  4886                           
  4887                           ;megaonoff.c: 208: if(RC1IF){
  4888  0009  1E91               	btfss	17,5	;volatile
  4889  000A  2849               	goto	i1l2978
  4890                           
  4891                           ;megaonoff.c: 209: if(RC1STAbits.OERR){
  4892  000B  0023               	movlb	3	; select bank3
  4893  000C  1C9D               	btfss	29,1	;volatile
  4894  000D  2817               	goto	i1l2962
  4895                           
  4896                           ;megaonoff.c: 210: RC1STAbits.CREN = 0;
  4897  000E  121D               	bcf	29,4	;volatile
  4898                           
  4899                           ;megaonoff.c: 211: RC1STAbits.CREN = 1;
  4900  000F  161D               	bsf	29,4	;volatile
  4901                           
  4902                           ;megaonoff.c: 212: errorsISR("EROV");
  4903  0010  3005               	movlw	low (STR_1| (0+32768))
  4904  0011  00F0               	movwf	errorsISR@errNum
  4905  0012  3090               	movlw	high (STR_1| (0+32768))
  4906  0013  00F1               	movwf	errorsISR@errNum+1
  4907  0014  318F  2746  3180   	fcall	_errorsISR
  4908  0017                     i1l2962:	
  4909                           
  4910                           ;megaonoff.c: 213: }
  4911                           ;megaonoff.c: 215: mainReceivedDataBuffer[mainReceivedDataPosition]=RC1REG;
  4912  0017  0023               	movlb	3	; select bank3
  4913  0018  0819               	movf	25,w	;volatile
  4914  0019  00F3               	movwf	??_isr
  4915  001A  0875               	movf	_mainReceivedDataPosition,w
  4916  001B  3EA0               	addlw	(low (_mainReceivedDataBuffer| 0))& (0+255)
  4917  001C  0086               	movwf	6
  4918  001D  0187               	clrf	7
  4919  001E  0873               	movf	??_isr,w
  4920  001F  0081               	movwf	1
  4921                           
  4922                           ;megaonoff.c: 219: if(mainReceivedDataBuffer[0]=='%'){
  4923  0020  3025               	movlw	37
  4924  0021  0021               	movlb	1	; select bank1
  4925  0022  0620               	xorwf	_mainReceivedDataBuffer^(0+128),w
  4926  0023  1D03               	btfss	3,2
  4927  0024  283D               	goto	i1l257
  4928                           
  4929                           ;megaonoff.c: 220: mainReceivedDataPosition++;
  4930  0025  3001               	movlw	1
  4931  0026  07F5               	addwf	_mainReceivedDataPosition,f
  4932  0027  3000               	movlw	0
  4933  0028  3DF6               	addwfc	_mainReceivedDataPosition+1,f
  4934                           
  4935                           ;megaonoff.c: 221: if(mainReceivedDataPosition>15){
  4936  0029  0876               	movf	_mainReceivedDataPosition+1,w
  4937  002A  3A80               	xorlw	128
  4938  002B  00F3               	movwf	??_isr
  4939  002C  3080               	movlw	128
  4940  002D  0273               	subwf	??_isr,w
  4941  002E  1D03               	skipz
  4942  002F  2832               	goto	u140_25
  4943  0030  3010               	movlw	16
  4944  0031  0275               	subwf	_mainReceivedDataPosition,w
  4945  0032                     u140_25:	
  4946  0032  1C03               	skipc
  4947  0033  2849               	goto	i1l2978
  4948                           
  4949                           ;megaonoff.c: 222: mainDataReceived=1;
  4950  0034  3001               	movlw	1
  4951  0035  0020               	movlb	0	; select bank0
  4952  0036  00DD               	movwf	_mainDataReceived
  4953  0037  3000               	movlw	0
  4954  0038  00DE               	movwf	_mainDataReceived+1
  4955                           
  4956                           ;megaonoff.c: 223: mainReceivedDataPosition=0;
  4957  0039  01F5               	clrf	_mainReceivedDataPosition
  4958  003A  01F6               	clrf	_mainReceivedDataPosition+1
  4959                           
  4960                           ;megaonoff.c: 224: RC1IF=0;
  4961  003B  1291               	bcf	17,5	;volatile
  4962                           
  4963                           ;megaonoff.c: 225: }
  4964                           ;megaonoff.c: 226: }
  4965  003C  2849               	goto	i1l2978
  4966  003D                     i1l257:	
  4967                           
  4968                           ;megaonoff.c: 227: else{
  4969                           ;megaonoff.c: 228: RC1STAbits.CREN = 0;
  4970  003D  0023               	movlb	3	; select bank3
  4971  003E  121D               	bcf	29,4	;volatile
  4972                           
  4973                           ;megaonoff.c: 229: RC1STAbits.CREN = 1;
  4974  003F  161D               	bsf	29,4	;volatile
  4975                           
  4976                           ;megaonoff.c: 230: mainReceivedDataPosition=0;
  4977  0040  01F5               	clrf	_mainReceivedDataPosition
  4978  0041  01F6               	clrf	_mainReceivedDataPosition+1
  4979                           
  4980                           ;megaonoff.c: 233: errorsISR("ERRX");
  4981  0042  300A               	movlw	low (STR_2| (0+32768))
  4982  0043  00F0               	movwf	errorsISR@errNum
  4983  0044  3090               	movlw	high (STR_2| (0+32768))
  4984  0045  00F1               	movwf	errorsISR@errNum+1
  4985  0046  318F  2746  3180   	fcall	_errorsISR
  4986  0049                     i1l2978:	
  4987                           
  4988                           ;megaonoff.c: 234: }
  4989                           ;megaonoff.c: 235: }
  4990                           ;megaonoff.c: 240: if(PIE1bits.TMR2IE==1 && PIR1bits.TMR2IF==1)
  4991  0049  0021               	movlb	1	; select bank1
  4992  004A  1C91               	btfss	17,1	;volatile
  4993  004B  2854               	goto	i1l260
  4994  004C  0020               	movlb	0	; select bank0
  4995  004D  1C91               	btfss	17,1	;volatile
  4996  004E  2854               	goto	i1l260
  4997                           
  4998                           ;megaonoff.c: 241: {
  4999                           ;megaonoff.c: 242: PIR1bits.TMR2IF=0;
  5000  004F  1091               	bcf	17,1	;volatile
  5001                           
  5002                           ;megaonoff.c: 243: PORTFbits.RF3 = 0;
  5003  0050  0025               	movlb	5	; select bank5
  5004  0051  118C               	bcf	12,3	;volatile
  5005                           
  5006                           ;megaonoff.c: 244: T2CONbits.TMR2ON=0;
  5007  0052  0020               	movlb	0	; select bank0
  5008  0053  111C               	bcf	28,2	;volatile
  5009  0054                     i1l260:	
  5010                           
  5011                           ;megaonoff.c: 245: }
  5012                           ;megaonoff.c: 249: if(PIE1bits.TMR1IE == 1 && PIR1bits.TMR1IF==1)
  5013  0054  0021               	movlb	1	; select bank1
  5014  0055  1C11               	btfss	17,0	;volatile
  5015  0056  2862               	goto	i1l2994
  5016  0057  0020               	movlb	0	; select bank0
  5017  0058  1C11               	btfss	17,0	;volatile
  5018  0059  2862               	goto	i1l2994
  5019                           
  5020                           ;megaonoff.c: 250: {
  5021                           ;megaonoff.c: 251: PIR1bits.TMR1IF=0;
  5022  005A  1011               	bcf	17,0	;volatile
  5023                           
  5024                           ;megaonoff.c: 252: PORTFbits.RF3 = 1;
  5025  005B  0025               	movlb	5	; select bank5
  5026  005C  158C               	bsf	12,3	;volatile
  5027                           
  5028                           ;megaonoff.c: 253: PR2=0x9F;
  5029  005D  309F               	movlw	159
  5030  005E  0020               	movlb	0	; select bank0
  5031  005F  009B               	movwf	27	;volatile
  5032                           
  5033                           ;megaonoff.c: 254: T2CONbits.TMR2ON = 1;
  5034  0060  151C               	bsf	28,2	;volatile
  5035                           
  5036                           ;megaonoff.c: 255: T1CONbits.TMR1ON = 0;
  5037  0061  1018               	bcf	24,0	;volatile
  5038  0062                     i1l2994:	
  5039                           
  5040                           ;megaonoff.c: 256: }
  5041                           ;megaonoff.c: 258: if(PIR4bits.CCP8IF==1 || PIR4bits.CCP7IF == 1 || PIR4bits.CCP9IF==1 |
      +                          | PIR4bits.CCP10IF==1){
  5042  0062  0020               	movlb	0	; select bank0
  5043  0063  1D94               	btfss	20,3	;volatile
  5044  0064  1914               	btfsc	20,2	;volatile
  5045  0065  286A               	goto	i1l264
  5046  0066  1B14               	btfsc	20,6	;volatile
  5047  0067  286A               	goto	i1l264
  5048  0068  1F94               	btfss	20,7	;volatile
  5049  0069  2A15               	goto	i1l411
  5050  006A                     i1l264:	
  5051                           
  5052                           ;megaonoff.c: 259: if(CCP10IF){
  5053  006A  1B94               	btfsc	20,7	;volatile
  5054                           
  5055                           ;megaonoff.c: 260: if(CCP10IF == 1){
  5056  006B  1F94               	btfss	20,7	;volatile
  5057  006C  2A15               	goto	i1l411
  5058                           
  5059                           ;megaonoff.c: 261: CCP10IF=0;
  5060  006D  1394               	bcf	20,7	;volatile
  5061                           
  5062                           ;megaonoff.c: 262: if(start_PWM_Generation_in_ISR_FLAG == 1){
  5063  006E  0349               	decf	_start_PWM_Generation_in_ISR_FLAG,w
  5064  006F  044A               	iorwf	_start_PWM_Generation_in_ISR_FLAG+1,w
  5065  0070  1903               	btfsc	3,2
  5066  0071  2A08               	goto	i1l3462
  5067  0072  2A15               	goto	i1l411
  5068  0073                     i1l3010:	
  5069                           ;megaonoff.c: 268: {
  5070                           ;megaonoff.c: 269: case '0':
  5071                           
  5072                           ;megaonoff.c: 267: switch(levelofDimmer_LSB)
  5073                           
  5074                           ;megaonoff.c: 264: {
  5075                           ;megaonoff.c: 265: case '0':
  5076                           
  5077                           ;megaonoff.c: 263: switch(levelofDimmer_MSB)
  5078                           
  5079                           
  5080                           ;megaonoff.c: 270: TMR1H=0x7B;
  5081  0073  307B               	movlw	123
  5082  0074  29E9               	goto	L46
  5083  0075                     i1l3014:	
  5084                           ;megaonoff.c: 275: case '1':
  5085                           
  5086                           ;megaonoff.c: 274: break;
  5087                           
  5088                           ;megaonoff.c: 272: T1CONbits.TMR1ON = 1;
  5089                           
  5090                           ;megaonoff.c: 271: TMR1L=0x30;
  5091                           
  5092                           
  5093                           ;megaonoff.c: 276: TMR1H=0x7C;
  5094  0075  307C               	movlw	124
  5095  0076  29ED               	goto	L47
  5096  0077                     i1l3018:	
  5097                           ;megaonoff.c: 281: case '2':
  5098                           
  5099                           ;megaonoff.c: 280: break;
  5100                           
  5101                           ;megaonoff.c: 278: T1CONbits.TMR1ON = 1;
  5102                           
  5103                           ;megaonoff.c: 277: TMR1L=0xC0;
  5104                           
  5105                           
  5106                           ;megaonoff.c: 282: TMR1H=0x7D;
  5107  0077  307D               	movlw	125
  5108  0078  0097               	movwf	23	;volatile
  5109                           
  5110                           ;megaonoff.c: 283: TMR1L=0x88;
  5111  0079  3088               	movlw	136
  5112  007A  29F7               	goto	L2
  5113  007B                     i1l3022:	
  5114                           ;megaonoff.c: 286: case '3':
  5115                           
  5116                           ;megaonoff.c: 285: break;
  5117                           
  5118                           ;megaonoff.c: 284: T1CONbits.TMR1ON = 1;
  5119                           
  5120                           
  5121                           ;megaonoff.c: 287: TMR1H=0x7F;
  5122  007B  307F               	movlw	127
  5123  007C  0097               	movwf	23	;volatile
  5124                           
  5125                           ;megaonoff.c: 288: TMR1L=0x18;
  5126  007D  3018               	movlw	24
  5127  007E  29F7               	goto	L2
  5128  007F                     i1l3026:	
  5129                           ;megaonoff.c: 291: case '4':
  5130                           
  5131                           ;megaonoff.c: 290: break;
  5132                           
  5133                           ;megaonoff.c: 289: T1CONbits.TMR1ON = 1;
  5134                           
  5135                           
  5136                           ;megaonoff.c: 292: TMR1H=0x80;
  5137  007F  3080               	movlw	128
  5138  0080  299F               	goto	L51
  5139  0081                     i1l3030:	
  5140                           ;megaonoff.c: 296: case '5':
  5141                           
  5142                           ;megaonoff.c: 295: break;
  5143                           
  5144                           ;megaonoff.c: 294: T1CONbits.TMR1ON = 1;
  5145                           
  5146                           ;megaonoff.c: 293: TMR1L=0xA8;
  5147                           
  5148                           
  5149                           ;megaonoff.c: 297: TMR1H=0x81;
  5150  0081  3081               	movlw	129
  5151  0082  29A3               	goto	L34
  5152  0083                     i1l3034:	
  5153                           ;megaonoff.c: 301: case '6':
  5154                           
  5155                           ;megaonoff.c: 300: break;
  5156                           
  5157                           ;megaonoff.c: 299: T1CONbits.TMR1ON = 1;
  5158                           
  5159                           ;megaonoff.c: 298: TMR1L=0x70;
  5160                           
  5161                           
  5162                           ;megaonoff.c: 302: TMR1H=0x83;
  5163  0083  3083               	movlw	131
  5164  0084  29AB               	goto	L35
  5165  0085                     i1l3040:	
  5166                           ;megaonoff.c: 306: case '7':
  5167                           
  5168                           ;megaonoff.c: 305: break;
  5169                           
  5170                           ;megaonoff.c: 304: T1CONbits.TMR1ON = 1;
  5171                           
  5172                           ;megaonoff.c: 303: TMR1L=0x00;
  5173                           
  5174                           
  5175                           ;megaonoff.c: 307: TMR1H=0x83;
  5176  0085  3083               	movlw	131
  5177  0086  0097               	movwf	23	;volatile
  5178                           
  5179                           ;megaonoff.c: 308: TMR1L=0xC8;
  5180  0087  30C8               	movlw	200
  5181  0088  29F7               	goto	L2
  5182  0089                     i1l3044:	
  5183                           ;megaonoff.c: 311: case '8':
  5184                           
  5185                           ;megaonoff.c: 310: break;
  5186                           
  5187                           ;megaonoff.c: 309: T1CONbits.TMR1ON = 1;
  5188                           
  5189  0089  28A2               	goto	i1l3064
  5190  008A                     i1l3048:	
  5191                           ;megaonoff.c: 316: case '9':
  5192                           
  5193                           ;megaonoff.c: 315: break;
  5194                           
  5195                           ;megaonoff.c: 314: T1CONbits.TMR1ON = 1;
  5196                           
  5197                           ;megaonoff.c: 313: TMR1L=0xB0;
  5198                           
  5199                           ;megaonoff.c: 312: TMR1H=0x87;
  5200                           
  5201                           
  5202                           ;megaonoff.c: 317: TMR1H=0x85;
  5203  008A  3085               	movlw	133
  5204  008B  0097               	movwf	23	;volatile
  5205                           
  5206                           ;megaonoff.c: 318: TMR1L=0x58;
  5207  008C  3058               	movlw	88
  5208  008D  29F7               	goto	L2
  5209  008E                     i1l3054:	
  5210                           ;megaonoff.c: 324: }
  5211                           
  5212                           ;megaonoff.c: 323: break;
  5213                           
  5214                           ;megaonoff.c: 322: default:
  5215                           
  5216                           ;megaonoff.c: 320: break;
  5217                           
  5218                           ;megaonoff.c: 319: T1CONbits.TMR1ON = 1;
  5219                           
  5220  008E  0877               	movf	_levelofDimmer_LSB,w
  5221                           
  5222                           ; Switch size 1, requested type "space"
  5223                           ; Number of cases is 10, Range of values is 48 to 57
  5224                           ; switch strategies available:
  5225                           ; Name         Instructions Cycles
  5226                           ; direct_byte           29     9 (fixed)
  5227                           ; simple_byte           31    16 (average)
  5228                           ; jumptable            263     9 (fixed)
  5229                           ;	Chosen strategy is direct_byte
  5230  008F  3ED0               	addlw	-48
  5231  0090  1C03               	skipc
  5232  0091  2A15               	goto	i1l411
  5233  0092  0084               	movwf	4
  5234  0093  300A               	movlw	10
  5235  0094  0204               	subwf	4,w
  5236  0095  1803               	skipnc
  5237  0096  2A15               	goto	i1l411
  5238  0097  3188               	movlp	high i1S5132
  5239  0098  3504               	lslf	4,w
  5240  0099  3E00               	addlw	low i1S5132
  5241  009A  0082               	movwf	2
  5242                           
  5243                           ;megaonoff.c: 325: break;
  5244  009B  2A15               	goto	i1l411
  5245  009C                     i1l3056:	
  5246                           ;megaonoff.c: 329: {
  5247                           ;megaonoff.c: 330: case '0':
  5248                           
  5249                           ;megaonoff.c: 328: switch(levelofDimmer_LSB)
  5250                           
  5251                           ;megaonoff.c: 326: case '1':
  5252                           
  5253                           
  5254                           ;megaonoff.c: 331: TMR1H=0x86;
  5255  009C  3086               	movlw	134
  5256  009D  29B3               	goto	L37
  5257  009E                     i1l3060:	
  5258                           ;megaonoff.c: 335: case '1':
  5259                           
  5260                           ;megaonoff.c: 334: break;
  5261                           
  5262                           ;megaonoff.c: 333: T1CONbits.TMR1ON = 1;
  5263                           
  5264                           ;megaonoff.c: 332: TMR1L=0x20;
  5265                           
  5266                           
  5267                           ;megaonoff.c: 336: TMR1H=0x86;
  5268  009E  3086               	movlw	134
  5269  009F  0097               	movwf	23	;volatile
  5270                           
  5271                           ;megaonoff.c: 337: TMR1L=0xE8;
  5272  00A0  30E8               	movlw	232
  5273  00A1  29F7               	goto	L2
  5274  00A2                     i1l3064:	
  5275                           ;megaonoff.c: 340: case '2':
  5276                           
  5277                           ;megaonoff.c: 339: break;
  5278                           
  5279                           ;megaonoff.c: 338: T1CONbits.TMR1ON = 1;
  5280                           
  5281                           
  5282                           ;megaonoff.c: 341: TMR1H=0x87;
  5283  00A2  3087               	movlw	135
  5284  00A3  29B7               	goto	L38
  5285  00A4                     i1l3068:	
  5286                           ;megaonoff.c: 345: case '3':
  5287                           
  5288                           ;megaonoff.c: 344: break;
  5289                           
  5290                           ;megaonoff.c: 343: T1CONbits.TMR1ON = 1;
  5291                           
  5292                           ;megaonoff.c: 342: TMR1L=0xB0;
  5293                           
  5294                           
  5295                           ;megaonoff.c: 346: TMR1H=0x88;
  5296  00A4  3088               	movlw	136
  5297  00A5  29BB               	goto	L53
  5298  00A6                     i1l3072:	
  5299                           ;megaonoff.c: 350: case '4':
  5300                           
  5301                           ;megaonoff.c: 349: break;
  5302                           
  5303                           ;megaonoff.c: 348: T1CONbits.TMR1ON = 1;
  5304                           
  5305                           ;megaonoff.c: 347: TMR1L=0x78;
  5306                           
  5307                           
  5308                           ;megaonoff.c: 351: TMR1H=0x89;
  5309  00A6  3089               	movlw	137
  5310  00A7  29BF               	goto	L39
  5311  00A8                     i1l3076:	
  5312                           ;megaonoff.c: 355: case '5':
  5313                           
  5314                           ;megaonoff.c: 354: break;
  5315                           
  5316                           ;megaonoff.c: 353: T1CONbits.TMR1ON = 1;
  5317                           
  5318                           ;megaonoff.c: 352: TMR1L=0x40;
  5319                           
  5320                           
  5321                           ;megaonoff.c: 356: TMR1H=0x8A;
  5322  00A8  308A               	movlw	138
  5323  00A9  0097               	movwf	23	;volatile
  5324                           
  5325                           ;megaonoff.c: 357: TMR1L=0x08;
  5326  00AA  3008               	movlw	8
  5327  00AB  29F7               	goto	L2
  5328  00AC                     i1l3080:	
  5329                           ;megaonoff.c: 360: case '6':
  5330                           
  5331                           ;megaonoff.c: 359: break;
  5332                           
  5333                           ;megaonoff.c: 358: T1CONbits.TMR1ON = 1;
  5334                           
  5335                           
  5336                           ;megaonoff.c: 361: TMR1H=0x8A;
  5337  00AC  308A               	movlw	138
  5338  00AD  29D1               	goto	L40
  5339  00AE                     i1l3084:	
  5340                           ;megaonoff.c: 365: case '7':
  5341                           
  5342                           ;megaonoff.c: 364: break;
  5343                           
  5344                           ;megaonoff.c: 363: T1CONbits.TMR1ON = 1;
  5345                           
  5346                           ;megaonoff.c: 362: TMR1L=0xD0;
  5347                           
  5348                           
  5349                           ;megaonoff.c: 366: TMR1H=0x8B;
  5350  00AE  308B               	movlw	139
  5351  00AF  0097               	movwf	23	;volatile
  5352                           
  5353                           ;megaonoff.c: 367: TMR1L=0x98;
  5354  00B0  3098               	movlw	152
  5355  00B1  29F7               	goto	L2
  5356  00B2                     i1l3088:	
  5357                           ;megaonoff.c: 370: case '8':
  5358                           
  5359                           ;megaonoff.c: 369: break;
  5360                           
  5361                           ;megaonoff.c: 368: T1CONbits.TMR1ON = 1;
  5362                           
  5363                           
  5364                           ;megaonoff.c: 371: TMR1H=0x8C;
  5365  00B2  308C               	movlw	140
  5366  00B3  29D5               	goto	L41
  5367  00B4                     i1l3092:	
  5368                           ;megaonoff.c: 375: case '9':
  5369                           
  5370                           ;megaonoff.c: 374: break;
  5371                           
  5372                           ;megaonoff.c: 373: T1CONbits.TMR1ON = 1;
  5373                           
  5374                           ;megaonoff.c: 372: TMR1L=0x60;
  5375                           
  5376                           
  5377                           ;megaonoff.c: 376: TMR1H=0x8D;
  5378  00B4  308D               	movlw	141
  5379  00B5  0097               	movwf	23	;volatile
  5380                           
  5381                           ;megaonoff.c: 377: TMR1L=0x28;
  5382  00B6  3028               	movlw	40
  5383  00B7  29F7               	goto	L2
  5384  00B8                     i1l3098:	
  5385                           ;megaonoff.c: 383: }
  5386                           
  5387                           ;megaonoff.c: 382: break;
  5388                           
  5389                           ;megaonoff.c: 381: default:
  5390                           
  5391                           ;megaonoff.c: 379: break;
  5392                           
  5393                           ;megaonoff.c: 378: T1CONbits.TMR1ON = 1;
  5394                           
  5395  00B8  0877               	movf	_levelofDimmer_LSB,w
  5396                           
  5397                           ; Switch size 1, requested type "space"
  5398                           ; Number of cases is 10, Range of values is 48 to 57
  5399                           ; switch strategies available:
  5400                           ; Name         Instructions Cycles
  5401                           ; direct_byte           29     9 (fixed)
  5402                           ; simple_byte           31    16 (average)
  5403                           ; jumptable            263     9 (fixed)
  5404                           ;	Chosen strategy is direct_byte
  5405  00B9  3ED0               	addlw	-48
  5406  00BA  1C03               	skipc
  5407  00BB  2A15               	goto	i1l411
  5408  00BC  0084               	movwf	4
  5409  00BD  300A               	movlw	10
  5410  00BE  0204               	subwf	4,w
  5411  00BF  1803               	skipnc
  5412  00C0  2A15               	goto	i1l411
  5413  00C1  3188               	movlp	high i1S5134
  5414  00C2  3504               	lslf	4,w
  5415  00C3  3E14               	addlw	low i1S5134
  5416  00C4  0082               	movwf	2
  5417                           
  5418                           ;megaonoff.c: 384: break;
  5419  00C5  2A15               	goto	i1l411
  5420  00C6                     i1l3100:	
  5421                           ;megaonoff.c: 388: {
  5422                           ;megaonoff.c: 389: case '0':
  5423                           
  5424                           ;megaonoff.c: 387: switch(levelofDimmer_LSB)
  5425                           
  5426                           ;megaonoff.c: 385: case '2':
  5427                           
  5428                           
  5429                           ;megaonoff.c: 390: TMR1H=0x8D;
  5430  00C6  308D               	movlw	141
  5431  00C7  29D9               	goto	L42
  5432  00C8                     i1l3104:	
  5433                           ;megaonoff.c: 394: case '1':
  5434                           
  5435                           ;megaonoff.c: 393: break;
  5436                           
  5437                           ;megaonoff.c: 392: T1CONbits.TMR1ON = 1;
  5438                           
  5439                           ;megaonoff.c: 391: TMR1L=0xF0;
  5440                           
  5441                           
  5442                           ;megaonoff.c: 395: TMR1H=0x8E;
  5443  00C8  308E               	movlw	142
  5444  00C9  0097               	movwf	23	;volatile
  5445                           
  5446                           ;megaonoff.c: 396: TMR1L=0xB8;
  5447  00CA  30B8               	movlw	184
  5448  00CB  29F7               	goto	L2
  5449  00CC                     i1l3108:	
  5450                           ;megaonoff.c: 399: case '2':
  5451                           
  5452                           ;megaonoff.c: 398: break;
  5453                           
  5454                           ;megaonoff.c: 397: T1CONbits.TMR1ON = 1;
  5455                           
  5456                           
  5457                           ;megaonoff.c: 400: TMR1H=0x8F;
  5458  00CC  308F               	movlw	143
  5459  00CD  29DD               	goto	L43
  5460  00CE                     i1l3112:	
  5461                           ;megaonoff.c: 404: case '3':
  5462                           
  5463                           ;megaonoff.c: 403: break;
  5464                           
  5465                           ;megaonoff.c: 402: T1CONbits.TMR1ON = 1;
  5466                           
  5467                           ;megaonoff.c: 401: TMR1L=0x80;
  5468                           
  5469                           
  5470                           ;megaonoff.c: 405: TMR1H=0x90;
  5471  00CE  3090               	movlw	144
  5472  00CF  0097               	movwf	23	;volatile
  5473                           
  5474                           ;megaonoff.c: 406: TMR1L=0x48;
  5475  00D0  3048               	movlw	72
  5476  00D1  29F7               	goto	L2
  5477  00D2                     i1l3116:	
  5478                           ;megaonoff.c: 409: case '4':
  5479                           
  5480                           ;megaonoff.c: 408: break;
  5481                           
  5482                           ;megaonoff.c: 407: T1CONbits.TMR1ON = 1;
  5483                           
  5484                           
  5485                           ;megaonoff.c: 410: TMR1H=0x91;
  5486  00D2  3091               	movlw	145
  5487  00D3  29E1               	goto	L44
  5488  00D4                     i1l3120:	
  5489                           ;megaonoff.c: 414: case '5':
  5490                           
  5491                           ;megaonoff.c: 413: break;
  5492                           
  5493                           ;megaonoff.c: 412: T1CONbits.TMR1ON = 1;
  5494                           
  5495                           ;megaonoff.c: 411: TMR1L=0x10;
  5496                           
  5497                           
  5498                           ;megaonoff.c: 415: TMR1H=0x91;
  5499  00D4  3091               	movlw	145
  5500  00D5  0097               	movwf	23	;volatile
  5501                           
  5502                           ;megaonoff.c: 416: TMR1L=0xD8;
  5503  00D6  30D8               	movlw	216
  5504  00D7  29F7               	goto	L2
  5505  00D8                     i1l3124:	
  5506                           ;megaonoff.c: 419: case '6':
  5507                           
  5508                           ;megaonoff.c: 418: break;
  5509                           
  5510                           ;megaonoff.c: 417: T1CONbits.TMR1ON = 1;
  5511                           
  5512                           
  5513                           ;megaonoff.c: 420: TMR1H=0x92;
  5514  00D8  3092               	movlw	146
  5515  00D9  29E5               	goto	L45
  5516  00DA                     i1l3128:	
  5517                           ;megaonoff.c: 424: case '7':
  5518                           
  5519                           ;megaonoff.c: 423: break;
  5520                           
  5521                           ;megaonoff.c: 422: T1CONbits.TMR1ON = 1;
  5522                           
  5523                           ;megaonoff.c: 421: TMR1L=0xA0;
  5524                           
  5525                           
  5526                           ;megaonoff.c: 425: TMR1H=0x93;
  5527  00DA  3093               	movlw	147
  5528  00DB  0097               	movwf	23	;volatile
  5529                           
  5530                           ;megaonoff.c: 426: TMR1L=0x68;
  5531  00DC  3068               	movlw	104
  5532  00DD  29F7               	goto	L2
  5533  00DE                     i1l3132:	
  5534                           ;megaonoff.c: 429: case '8':
  5535                           
  5536                           ;megaonoff.c: 428: break;
  5537                           
  5538                           ;megaonoff.c: 427: T1CONbits.TMR1ON = 1;
  5539                           
  5540                           
  5541                           ;megaonoff.c: 430: TMR1H=0x94;
  5542  00DE  3094               	movlw	148
  5543  00DF  29E9               	goto	L46
  5544  00E0                     i1l3136:	
  5545                           ;megaonoff.c: 434: case '9':
  5546                           
  5547                           ;megaonoff.c: 433: break;
  5548                           
  5549                           ;megaonoff.c: 432: T1CONbits.TMR1ON = 1;
  5550                           
  5551                           ;megaonoff.c: 431: TMR1L=0x30;
  5552                           
  5553                           
  5554                           ;megaonoff.c: 435: TMR1H=0x94;
  5555  00E0  3094               	movlw	148
  5556  00E1  0097               	movwf	23	;volatile
  5557                           
  5558                           ;megaonoff.c: 436: TMR1L=0xF8;
  5559  00E2  30F8               	movlw	248
  5560  00E3  29F7               	goto	L2
  5561  00E4                     i1l3142:	
  5562                           ;megaonoff.c: 442: }
  5563                           
  5564                           ;megaonoff.c: 441: break;
  5565                           
  5566                           ;megaonoff.c: 440: default:
  5567                           
  5568                           ;megaonoff.c: 438: break;
  5569                           
  5570                           ;megaonoff.c: 437: T1CONbits.TMR1ON = 1;
  5571                           
  5572  00E4  0877               	movf	_levelofDimmer_LSB,w
  5573                           
  5574                           ; Switch size 1, requested type "space"
  5575                           ; Number of cases is 10, Range of values is 48 to 57
  5576                           ; switch strategies available:
  5577                           ; Name         Instructions Cycles
  5578                           ; direct_byte           29     9 (fixed)
  5579                           ; simple_byte           31    16 (average)
  5580                           ; jumptable            263     9 (fixed)
  5581                           ;	Chosen strategy is direct_byte
  5582  00E5  3ED0               	addlw	-48
  5583  00E6  1C03               	skipc
  5584  00E7  2A15               	goto	i1l411
  5585  00E8  0084               	movwf	4
  5586  00E9  300A               	movlw	10
  5587  00EA  0204               	subwf	4,w
  5588  00EB  1803               	skipnc
  5589  00EC  2A15               	goto	i1l411
  5590  00ED  3188               	movlp	high i1S5136
  5591  00EE  3504               	lslf	4,w
  5592  00EF  3E28               	addlw	low i1S5136
  5593  00F0  0082               	movwf	2
  5594                           
  5595                           ;megaonoff.c: 443: break;
  5596  00F1  2A15               	goto	i1l411
  5597  00F2                     i1l3144:	
  5598                           ;megaonoff.c: 447: {
  5599                           ;megaonoff.c: 448: case '0':
  5600                           
  5601                           ;megaonoff.c: 446: switch(levelofDimmer_LSB)
  5602                           
  5603                           ;megaonoff.c: 444: case '3':
  5604                           
  5605                           
  5606                           ;megaonoff.c: 449: TMR1H=0x95;
  5607  00F2  3095               	movlw	149
  5608  00F3  29ED               	goto	L47
  5609  00F4                     i1l3148:	
  5610                           ;megaonoff.c: 453: case '1':
  5611                           
  5612                           ;megaonoff.c: 452: break;
  5613                           
  5614                           ;megaonoff.c: 451: T1CONbits.TMR1ON = 1;
  5615                           
  5616                           ;megaonoff.c: 450: TMR1L=0xC0;
  5617                           
  5618                           
  5619                           ;megaonoff.c: 454: TMR1H=0x97;
  5620  00F4  3097               	movlw	151
  5621  00F5  29F1               	goto	L48
  5622  00F6                     i1l3152:	
  5623                           ;megaonoff.c: 458: case '2':
  5624                           
  5625                           ;megaonoff.c: 457: break;
  5626                           
  5627                           ;megaonoff.c: 456: T1CONbits.TMR1ON = 1;
  5628                           
  5629                           ;megaonoff.c: 455: TMR1L=0x50;
  5630                           
  5631                           
  5632                           ;megaonoff.c: 459: TMR1H=0x98;
  5633  00F6  3098               	movlw	152
  5634  00F7  29F5               	goto	L18
  5635  00F8                     i1l3156:	
  5636                           ;megaonoff.c: 463: case '3':
  5637                           
  5638                           ;megaonoff.c: 462: break;
  5639                           
  5640                           ;megaonoff.c: 461: T1CONbits.TMR1ON = 1;
  5641                           
  5642                           ;megaonoff.c: 460: TMR1L=0xE0;
  5643                           
  5644                           
  5645                           ;megaonoff.c: 464: TMR1H=0x9A;
  5646  00F8  309A               	movlw	154
  5647  00F9  29A3               	goto	L34
  5648  00FA                     i1l3160:	
  5649                           ;megaonoff.c: 468: case '4':
  5650                           
  5651                           ;megaonoff.c: 467: break;
  5652                           
  5653                           ;megaonoff.c: 466: T1CONbits.TMR1ON = 1;
  5654                           
  5655                           ;megaonoff.c: 465: TMR1L=0x70;
  5656                           
  5657                           
  5658                           ;megaonoff.c: 469: TMR1H=0x9C;
  5659  00FA  309C               	movlw	156
  5660  00FB  29AB               	goto	L35
  5661  00FC                     i1l3166:	
  5662                           ;megaonoff.c: 473: case '5':
  5663                           
  5664                           ;megaonoff.c: 472: break;
  5665                           
  5666                           ;megaonoff.c: 471: T1CONbits.TMR1ON = 1;
  5667                           
  5668                           ;megaonoff.c: 470: TMR1L=0x00;
  5669                           
  5670                           
  5671                           ;megaonoff.c: 474: TMR1H=0x9D;
  5672  00FC  309D               	movlw	157
  5673  00FD  29AF               	goto	L36
  5674  00FE                     i1l3170:	
  5675                           ;megaonoff.c: 478: case '6':
  5676                           
  5677                           ;megaonoff.c: 477: break;
  5678                           
  5679                           ;megaonoff.c: 476: T1CONbits.TMR1ON = 1;
  5680                           
  5681                           ;megaonoff.c: 475: TMR1L=0x90;
  5682                           
  5683                           
  5684                           ;megaonoff.c: 479: TMR1H=0x9F;
  5685  00FE  309F               	movlw	159
  5686  00FF  29B3               	goto	L37
  5687  0100                     i1l3174:	
  5688                           ;megaonoff.c: 483: case '7':
  5689                           
  5690                           ;megaonoff.c: 482: break;
  5691                           
  5692                           ;megaonoff.c: 481: T1CONbits.TMR1ON = 1;
  5693                           
  5694                           ;megaonoff.c: 480: TMR1L=0x20;
  5695                           
  5696                           
  5697                           ;megaonoff.c: 484: TMR1H=0xA0;
  5698  0100  30A0               	movlw	160
  5699  0101  29B7               	goto	L38
  5700  0102                     i1l3178:	
  5701                           ;megaonoff.c: 488: case '8':
  5702                           
  5703                           ;megaonoff.c: 487: break;
  5704                           
  5705                           ;megaonoff.c: 486: T1CONbits.TMR1ON = 1;
  5706                           
  5707                           ;megaonoff.c: 485: TMR1L=0xB0;
  5708                           
  5709                           
  5710                           ;megaonoff.c: 489: TMR1H=0xA2;
  5711  0102  30A2               	movlw	162
  5712  0103  29BF               	goto	L39
  5713  0104                     i1l3182:	
  5714                           ;megaonoff.c: 493: case '9':
  5715                           
  5716                           ;megaonoff.c: 492: break;
  5717                           
  5718                           ;megaonoff.c: 491: T1CONbits.TMR1ON = 1;
  5719                           
  5720                           ;megaonoff.c: 490: TMR1L=0x40;
  5721                           
  5722                           
  5723                           ;megaonoff.c: 494: TMR1H=0xA3;
  5724  0104  30A3               	movlw	163
  5725  0105  29D1               	goto	L40
  5726  0106                     i1l3188:	
  5727                           ;megaonoff.c: 500: }
  5728                           
  5729                           ;megaonoff.c: 499: break;
  5730                           
  5731                           ;megaonoff.c: 498: default:
  5732                           
  5733                           ;megaonoff.c: 497: break;
  5734                           
  5735                           ;megaonoff.c: 496: T1CONbits.TMR1ON = 1;
  5736                           
  5737                           ;megaonoff.c: 495: TMR1L=0xD0;
  5738                           
  5739  0106  0877               	movf	_levelofDimmer_LSB,w
  5740                           
  5741                           ; Switch size 1, requested type "space"
  5742                           ; Number of cases is 10, Range of values is 48 to 57
  5743                           ; switch strategies available:
  5744                           ; Name         Instructions Cycles
  5745                           ; direct_byte           29     9 (fixed)
  5746                           ; simple_byte           31    16 (average)
  5747                           ; jumptable            263     9 (fixed)
  5748                           ;	Chosen strategy is direct_byte
  5749  0107  3ED0               	addlw	-48
  5750  0108  1C03               	skipc
  5751  0109  2A15               	goto	i1l411
  5752  010A  0084               	movwf	4
  5753  010B  300A               	movlw	10
  5754  010C  0204               	subwf	4,w
  5755  010D  1803               	skipnc
  5756  010E  2A15               	goto	i1l411
  5757  010F  3188               	movlp	high i1S5138
  5758  0110  3504               	lslf	4,w
  5759  0111  3E3C               	addlw	low i1S5138
  5760  0112  0082               	movwf	2
  5761                           
  5762                           ;megaonoff.c: 501: break;
  5763  0113  2A15               	goto	i1l411
  5764  0114                     i1l3190:	
  5765                           ;megaonoff.c: 505: {
  5766                           ;megaonoff.c: 506: case '0':
  5767                           
  5768                           ;megaonoff.c: 504: switch(levelofDimmer_LSB)
  5769                           
  5770                           ;megaonoff.c: 502: case '4':
  5771                           
  5772                           
  5773                           ;megaonoff.c: 507: TMR1H=0xA5;
  5774  0114  30A5               	movlw	165
  5775  0115  29D5               	goto	L41
  5776  0116                     i1l3194:	
  5777                           ;megaonoff.c: 511: case '1':
  5778                           
  5779                           ;megaonoff.c: 510: break;
  5780                           
  5781                           ;megaonoff.c: 509: T1CONbits.TMR1ON = 1;
  5782                           
  5783                           ;megaonoff.c: 508: TMR1L=0x60;
  5784                           
  5785                           
  5786                           ;megaonoff.c: 512: TMR1H=0xA6;
  5787  0116  30A6               	movlw	166
  5788  0117  29D9               	goto	L42
  5789  0118                     i1l3198:	
  5790                           ;megaonoff.c: 516: case '2':
  5791                           
  5792                           ;megaonoff.c: 515: break;
  5793                           
  5794                           ;megaonoff.c: 514: T1CONbits.TMR1ON = 1;
  5795                           
  5796                           ;megaonoff.c: 513: TMR1L=0xF0;
  5797                           
  5798                           
  5799                           ;megaonoff.c: 517: TMR1H=0xA8;
  5800  0118  30A8               	movlw	168
  5801  0119  29DD               	goto	L43
  5802  011A                     i1l3202:	
  5803                           ;megaonoff.c: 521: case '3':
  5804                           
  5805                           ;megaonoff.c: 520: break;
  5806                           
  5807                           ;megaonoff.c: 519: T1CONbits.TMR1ON = 1;
  5808                           
  5809                           ;megaonoff.c: 518: TMR1L=0x80;
  5810                           
  5811                           
  5812                           ;megaonoff.c: 522: TMR1H=0xAA;
  5813  011A  30AA               	movlw	170
  5814  011B  29E1               	goto	L44
  5815  011C                     i1l3206:	
  5816                           ;megaonoff.c: 526: case '4':
  5817                           
  5818                           ;megaonoff.c: 525: break;
  5819                           
  5820                           ;megaonoff.c: 524: T1CONbits.TMR1ON = 1;
  5821                           
  5822                           ;megaonoff.c: 523: TMR1L=0x10;
  5823                           
  5824                           
  5825                           ;megaonoff.c: 527: TMR1H=0xAB;
  5826  011C  30AB               	movlw	171
  5827  011D  29E5               	goto	L45
  5828  011E                     i1l3210:	
  5829                           ;megaonoff.c: 531: case '5':
  5830                           
  5831                           ;megaonoff.c: 530: break;
  5832                           
  5833                           ;megaonoff.c: 529: T1CONbits.TMR1ON = 1;
  5834                           
  5835                           ;megaonoff.c: 528: TMR1L=0xA0;
  5836                           
  5837                           
  5838                           ;megaonoff.c: 532: TMR1H=0xAD;
  5839  011E  30AD               	movlw	173
  5840  011F  29E9               	goto	L46
  5841  0120                     i1l3214:	
  5842                           ;megaonoff.c: 536: case '6':
  5843                           
  5844                           ;megaonoff.c: 535: break;
  5845                           
  5846                           ;megaonoff.c: 534: T1CONbits.TMR1ON = 1;
  5847                           
  5848                           ;megaonoff.c: 533: TMR1L=0x30;
  5849                           
  5850                           
  5851                           ;megaonoff.c: 537: TMR1H=0xAE;
  5852  0120  30AE               	movlw	174
  5853  0121  29ED               	goto	L47
  5854  0122                     i1l3218:	
  5855                           ;megaonoff.c: 541: case '7':
  5856                           
  5857                           ;megaonoff.c: 540: break;
  5858                           
  5859                           ;megaonoff.c: 539: T1CONbits.TMR1ON = 1;
  5860                           
  5861                           ;megaonoff.c: 538: TMR1L=0xC0;
  5862                           
  5863                           
  5864                           ;megaonoff.c: 542: TMR1H=0xB0;
  5865  0122  30B0               	movlw	176
  5866  0123  29F1               	goto	L48
  5867  0124                     i1l3222:	
  5868                           ;megaonoff.c: 546: case '8':
  5869                           
  5870                           ;megaonoff.c: 545: break;
  5871                           
  5872                           ;megaonoff.c: 544: T1CONbits.TMR1ON = 1;
  5873                           
  5874                           ;megaonoff.c: 543: TMR1L=0x50;
  5875                           
  5876                           
  5877                           ;megaonoff.c: 547: TMR1H=0xB1;
  5878  0124  30B1               	movlw	177
  5879  0125  29F5               	goto	L18
  5880  0126                     i1l3226:	
  5881                           ;megaonoff.c: 551: case '9':
  5882                           
  5883                           ;megaonoff.c: 550: break;
  5884                           
  5885                           ;megaonoff.c: 549: T1CONbits.TMR1ON = 1;
  5886                           
  5887                           ;megaonoff.c: 548: TMR1L=0xE0;
  5888                           
  5889                           
  5890                           ;megaonoff.c: 552: TMR1H=0xB3;
  5891  0126  30B3               	movlw	179
  5892  0127  29A3               	goto	L34
  5893  0128                     i1l3232:	
  5894                           ;megaonoff.c: 558: }
  5895                           
  5896                           ;megaonoff.c: 557: break;
  5897                           
  5898                           ;megaonoff.c: 556: default:
  5899                           
  5900                           ;megaonoff.c: 555: break;
  5901                           
  5902                           ;megaonoff.c: 554: T1CONbits.TMR1ON = 1;
  5903                           
  5904                           ;megaonoff.c: 553: TMR1L=0x70;
  5905                           
  5906  0128  0877               	movf	_levelofDimmer_LSB,w
  5907                           
  5908                           ; Switch size 1, requested type "space"
  5909                           ; Number of cases is 10, Range of values is 48 to 57
  5910                           ; switch strategies available:
  5911                           ; Name         Instructions Cycles
  5912                           ; direct_byte           29     9 (fixed)
  5913                           ; simple_byte           31    16 (average)
  5914                           ; jumptable            263     9 (fixed)
  5915                           ;	Chosen strategy is direct_byte
  5916  0129  3ED0               	addlw	-48
  5917  012A  1C03               	skipc
  5918  012B  2A15               	goto	i1l411
  5919  012C  0084               	movwf	4
  5920  012D  300A               	movlw	10
  5921  012E  0204               	subwf	4,w
  5922  012F  1803               	skipnc
  5923  0130  2A15               	goto	i1l411
  5924  0131  3188               	movlp	high i1S5140
  5925  0132  3504               	lslf	4,w
  5926  0133  3E50               	addlw	low i1S5140
  5927  0134  0082               	movwf	2
  5928                           
  5929                           ;megaonoff.c: 559: break;
  5930  0135  2A15               	goto	i1l411
  5931  0136                     i1l3234:	
  5932                           ;megaonoff.c: 563: {
  5933                           ;megaonoff.c: 564: case '0':
  5934                           
  5935                           ;megaonoff.c: 562: switch(levelofDimmer_LSB)
  5936                           
  5937                           ;megaonoff.c: 560: case '5':
  5938                           
  5939                           
  5940                           ;megaonoff.c: 565: TMR1H=0xB5;
  5941  0136  30B5               	movlw	181
  5942  0137  29AB               	goto	L35
  5943  0138                     i1l3240:	
  5944                           ;megaonoff.c: 569: case '1':
  5945                           
  5946                           ;megaonoff.c: 568: break;
  5947                           
  5948                           ;megaonoff.c: 567: T1CONbits.TMR1ON = 1;
  5949                           
  5950                           ;megaonoff.c: 566: TMR1L=0x00;
  5951                           
  5952                           
  5953                           ;megaonoff.c: 570: TMR1H=0xB6;
  5954  0138  30B6               	movlw	182
  5955  0139  29AF               	goto	L36
  5956  013A                     i1l3244:	
  5957                           ;megaonoff.c: 574: case '2':
  5958                           
  5959                           ;megaonoff.c: 573: break;
  5960                           
  5961                           ;megaonoff.c: 572: T1CONbits.TMR1ON = 1;
  5962                           
  5963                           ;megaonoff.c: 571: TMR1L=0x90;
  5964                           
  5965                           
  5966                           ;megaonoff.c: 575: TMR1H=0xB8;
  5967  013A  30B8               	movlw	184
  5968  013B  29B3               	goto	L37
  5969  013C                     i1l3248:	
  5970                           ;megaonoff.c: 579: case '3':
  5971                           
  5972                           ;megaonoff.c: 578: break;
  5973                           
  5974                           ;megaonoff.c: 577: T1CONbits.TMR1ON = 1;
  5975                           
  5976                           ;megaonoff.c: 576: TMR1L=0x20;
  5977                           
  5978                           
  5979                           ;megaonoff.c: 580: TMR1H=0xB9;
  5980  013C  30B9               	movlw	185
  5981  013D  29B7               	goto	L38
  5982  013E                     i1l3252:	
  5983                           ;megaonoff.c: 584: case '4':
  5984                           
  5985                           ;megaonoff.c: 583: break;
  5986                           
  5987                           ;megaonoff.c: 582: T1CONbits.TMR1ON = 1;
  5988                           
  5989                           ;megaonoff.c: 581: TMR1L=0xB0;
  5990                           
  5991                           
  5992                           ;megaonoff.c: 585: TMR1H=0xBB;
  5993  013E  30BB               	movlw	187
  5994  013F  29BF               	goto	L39
  5995  0140                     i1l3256:	
  5996                           ;megaonoff.c: 589: case '5':
  5997                           
  5998                           ;megaonoff.c: 588: break;
  5999                           
  6000                           ;megaonoff.c: 587: T1CONbits.TMR1ON = 1;
  6001                           
  6002                           ;megaonoff.c: 586: TMR1L=0x40;
  6003                           
  6004                           
  6005                           ;megaonoff.c: 590: TMR1H=0xBC;
  6006  0140  30BC               	movlw	188
  6007  0141  29D1               	goto	L40
  6008  0142                     i1l3260:	
  6009                           ;megaonoff.c: 594: case '6':
  6010                           
  6011                           ;megaonoff.c: 593: break;
  6012                           
  6013                           ;megaonoff.c: 592: T1CONbits.TMR1ON = 1;
  6014                           
  6015                           ;megaonoff.c: 591: TMR1L=0xD0;
  6016                           
  6017                           
  6018                           ;megaonoff.c: 595: TMR1H=0xBE;
  6019  0142  30BE               	movlw	190
  6020  0143  29D5               	goto	L41
  6021  0144                     i1l3264:	
  6022                           ;megaonoff.c: 599: case '7':
  6023                           
  6024                           ;megaonoff.c: 598: break;
  6025                           
  6026                           ;megaonoff.c: 597: T1CONbits.TMR1ON = 1;
  6027                           
  6028                           ;megaonoff.c: 596: TMR1L=0x60;
  6029                           
  6030                           
  6031                           ;megaonoff.c: 600: TMR1H=0xBF;
  6032  0144  30BF               	movlw	191
  6033  0145  29D9               	goto	L42
  6034  0146                     i1l3268:	
  6035                           ;megaonoff.c: 604: case '8':
  6036                           
  6037                           ;megaonoff.c: 603: break;
  6038                           
  6039                           ;megaonoff.c: 602: T1CONbits.TMR1ON = 1;
  6040                           
  6041                           ;megaonoff.c: 601: TMR1L=0xF0;
  6042                           
  6043                           
  6044                           ;megaonoff.c: 605: TMR1H=0xC1;
  6045  0146  30C1               	movlw	193
  6046  0147  29DD               	goto	L43
  6047  0148                     i1l3272:	
  6048                           ;megaonoff.c: 609: case '9':
  6049                           
  6050                           ;megaonoff.c: 608: break;
  6051                           
  6052                           ;megaonoff.c: 607: T1CONbits.TMR1ON = 1;
  6053                           
  6054                           ;megaonoff.c: 606: TMR1L=0x80;
  6055                           
  6056                           
  6057                           ;megaonoff.c: 610: TMR1H=0xC3;
  6058  0148  30C3               	movlw	195
  6059  0149  29E1               	goto	L44
  6060  014A                     i1l3278:	
  6061                           ;megaonoff.c: 617: }
  6062                           
  6063                           ;megaonoff.c: 616: break;
  6064                           
  6065                           ;megaonoff.c: 615: default:
  6066                           
  6067                           ;megaonoff.c: 613: break;
  6068                           
  6069                           ;megaonoff.c: 612: T1CONbits.TMR1ON = 1;
  6070                           
  6071                           ;megaonoff.c: 611: TMR1L=0x10;
  6072                           
  6073  014A  0877               	movf	_levelofDimmer_LSB,w
  6074                           
  6075                           ; Switch size 1, requested type "space"
  6076                           ; Number of cases is 10, Range of values is 48 to 57
  6077                           ; switch strategies available:
  6078                           ; Name         Instructions Cycles
  6079                           ; direct_byte           29     9 (fixed)
  6080                           ; simple_byte           31    16 (average)
  6081                           ; jumptable            263     9 (fixed)
  6082                           ;	Chosen strategy is direct_byte
  6083  014B  3ED0               	addlw	-48
  6084  014C  1C03               	skipc
  6085  014D  2A15               	goto	i1l411
  6086  014E  0084               	movwf	4
  6087  014F  300A               	movlw	10
  6088  0150  0204               	subwf	4,w
  6089  0151  1803               	skipnc
  6090  0152  2A15               	goto	i1l411
  6091  0153  3188               	movlp	high i1S5142
  6092  0154  3504               	lslf	4,w
  6093  0155  3E64               	addlw	low i1S5142
  6094  0156  0082               	movwf	2
  6095                           
  6096                           ;megaonoff.c: 618: break;
  6097  0157  2A15               	goto	i1l411
  6098  0158                     i1l3280:	
  6099                           ;megaonoff.c: 622: {
  6100                           ;megaonoff.c: 623: case '0':
  6101                           
  6102                           ;megaonoff.c: 621: switch(levelofDimmer_LSB)
  6103                           
  6104                           ;megaonoff.c: 619: case '6':
  6105                           
  6106                           
  6107                           ;megaonoff.c: 624: TMR1H=0xC4;
  6108  0158  30C4               	movlw	196
  6109  0159  29E5               	goto	L45
  6110  015A                     i1l3284:	
  6111                           ;megaonoff.c: 628: case '1':
  6112                           
  6113                           ;megaonoff.c: 627: break;
  6114                           
  6115                           ;megaonoff.c: 626: T1CONbits.TMR1ON = 1;
  6116                           
  6117                           ;megaonoff.c: 625: TMR1L=0xA0;
  6118                           
  6119                           
  6120                           ;megaonoff.c: 629: TMR1H=0xC6;
  6121  015A  30C6               	movlw	198
  6122  015B  29E9               	goto	L46
  6123  015C                     i1l3288:	
  6124                           ;megaonoff.c: 633: case '2':
  6125                           
  6126                           ;megaonoff.c: 632: break;
  6127                           
  6128                           ;megaonoff.c: 631: T1CONbits.TMR1ON = 1;
  6129                           
  6130                           ;megaonoff.c: 630: TMR1L=0x30;
  6131                           
  6132                           
  6133                           ;megaonoff.c: 634: TMR1H=0xC7;
  6134  015C  30C7               	movlw	199
  6135  015D  29ED               	goto	L47
  6136  015E                     i1l3292:	
  6137                           ;megaonoff.c: 638: case '3':
  6138                           
  6139                           ;megaonoff.c: 637: break;
  6140                           
  6141                           ;megaonoff.c: 636: T1CONbits.TMR1ON = 1;
  6142                           
  6143                           ;megaonoff.c: 635: TMR1L=0xC0;
  6144                           
  6145                           
  6146                           ;megaonoff.c: 639: TMR1H=0xC9;
  6147  015E  30C9               	movlw	201
  6148  015F  29F1               	goto	L48
  6149  0160                     i1l3296:	
  6150                           ;megaonoff.c: 643: case '4':
  6151                           
  6152                           ;megaonoff.c: 642: break;
  6153                           
  6154                           ;megaonoff.c: 641: T1CONbits.TMR1ON = 1;
  6155                           
  6156                           ;megaonoff.c: 640: TMR1L=0x50;
  6157                           
  6158                           
  6159                           ;megaonoff.c: 644: TMR1H=0xCA;
  6160  0160  30CA               	movlw	202
  6161  0161  29F5               	goto	L18
  6162  0162                     i1l3300:	
  6163                           ;megaonoff.c: 648: case '5':
  6164                           
  6165                           ;megaonoff.c: 647: break;
  6166                           
  6167                           ;megaonoff.c: 646: T1CONbits.TMR1ON = 1;
  6168                           
  6169                           ;megaonoff.c: 645: TMR1L=0xE0;
  6170                           
  6171                           
  6172                           ;megaonoff.c: 649: TMR1H=0xCC;
  6173  0162  30CC               	movlw	204
  6174  0163  29A3               	goto	L34
  6175  0164                     i1l3304:	
  6176                           ;megaonoff.c: 653: case '6':
  6177                           
  6178                           ;megaonoff.c: 652: break;
  6179                           
  6180                           ;megaonoff.c: 651: T1CONbits.TMR1ON = 1;
  6181                           
  6182                           ;megaonoff.c: 650: TMR1L=0x70;
  6183                           
  6184                           
  6185                           ;megaonoff.c: 654: TMR1H=0xCE;
  6186  0164  30CE               	movlw	206
  6187  0165  29AB               	goto	L35
  6188  0166                     i1l3310:	
  6189                           ;megaonoff.c: 658: case '7':
  6190                           
  6191                           ;megaonoff.c: 657: break;
  6192                           
  6193                           ;megaonoff.c: 656: T1CONbits.TMR1ON = 1;
  6194                           
  6195                           ;megaonoff.c: 655: TMR1L=0x00;
  6196                           
  6197                           
  6198                           ;megaonoff.c: 659: TMR1H=0xCF;
  6199  0166  30CF               	movlw	207
  6200  0167  29AF               	goto	L36
  6201  0168                     i1l3314:	
  6202                           ;megaonoff.c: 663: case '8':
  6203                           
  6204                           ;megaonoff.c: 662: break;
  6205                           
  6206                           ;megaonoff.c: 661: T1CONbits.TMR1ON = 1;
  6207                           
  6208                           ;megaonoff.c: 660: TMR1L=0x90;
  6209                           
  6210                           
  6211                           ;megaonoff.c: 664: TMR1H=0xD1;
  6212  0168  30D1               	movlw	209
  6213  0169  29B3               	goto	L37
  6214  016A                     i1l3318:	
  6215                           ;megaonoff.c: 668: case '9':
  6216                           
  6217                           ;megaonoff.c: 667: break;
  6218                           
  6219                           ;megaonoff.c: 666: T1CONbits.TMR1ON = 1;
  6220                           
  6221                           ;megaonoff.c: 665: TMR1L=0x20;
  6222                           
  6223                           
  6224                           ;megaonoff.c: 669: TMR1H=0xD2;
  6225  016A  30D2               	movlw	210
  6226  016B  29B7               	goto	L38
  6227  016C                     i1l3324:	
  6228                           ;megaonoff.c: 675: }
  6229                           
  6230                           ;megaonoff.c: 674: break;
  6231                           
  6232                           ;megaonoff.c: 673: default:
  6233                           
  6234                           ;megaonoff.c: 672: break;
  6235                           
  6236                           ;megaonoff.c: 671: T1CONbits.TMR1ON = 1;
  6237                           
  6238                           ;megaonoff.c: 670: TMR1L=0xB0;
  6239                           
  6240  016C  0877               	movf	_levelofDimmer_LSB,w
  6241                           
  6242                           ; Switch size 1, requested type "space"
  6243                           ; Number of cases is 10, Range of values is 48 to 57
  6244                           ; switch strategies available:
  6245                           ; Name         Instructions Cycles
  6246                           ; direct_byte           29     9 (fixed)
  6247                           ; simple_byte           31    16 (average)
  6248                           ; jumptable            263     9 (fixed)
  6249                           ;	Chosen strategy is direct_byte
  6250  016D  3ED0               	addlw	-48
  6251  016E  1C03               	skipc
  6252  016F  2A15               	goto	i1l411
  6253  0170  0084               	movwf	4
  6254  0171  300A               	movlw	10
  6255  0172  0204               	subwf	4,w
  6256  0173  1803               	skipnc
  6257  0174  2A15               	goto	i1l411
  6258  0175  3188               	movlp	high i1S5144
  6259  0176  3504               	lslf	4,w
  6260  0177  3E78               	addlw	low i1S5144
  6261  0178  0082               	movwf	2
  6262                           
  6263                           ;megaonoff.c: 676: break;
  6264  0179  2A15               	goto	i1l411
  6265  017A                     i1l3326:	
  6266                           ;megaonoff.c: 680: {
  6267                           ;megaonoff.c: 681: case '0':
  6268                           
  6269                           ;megaonoff.c: 679: switch(levelofDimmer_LSB)
  6270                           
  6271                           ;megaonoff.c: 677: case '7':
  6272                           
  6273                           
  6274                           ;megaonoff.c: 682: TMR1H=0xD4;
  6275  017A  30D4               	movlw	212
  6276  017B  29BF               	goto	L39
  6277  017C                     i1l3330:	
  6278                           ;megaonoff.c: 686: case '1':
  6279                           
  6280                           ;megaonoff.c: 685: break;
  6281                           
  6282                           ;megaonoff.c: 684: T1CONbits.TMR1ON = 1;
  6283                           
  6284                           ;megaonoff.c: 683: TMR1L=0x40;
  6285                           
  6286                           
  6287                           ;megaonoff.c: 687: TMR1H=0xD5;
  6288  017C  30D5               	movlw	213
  6289  017D  29D1               	goto	L40
  6290  017E                     i1l3334:	
  6291                           ;megaonoff.c: 691: case '2':
  6292                           
  6293                           ;megaonoff.c: 690: break;
  6294                           
  6295                           ;megaonoff.c: 689: T1CONbits.TMR1ON = 1;
  6296                           
  6297                           ;megaonoff.c: 688: TMR1L=0xD0;
  6298                           
  6299                           
  6300                           ;megaonoff.c: 692: TMR1H=0xD7;
  6301  017E  30D7               	movlw	215
  6302  017F  29D5               	goto	L41
  6303  0180                     i1l3338:	
  6304                           ;megaonoff.c: 696: case '3':
  6305                           
  6306                           ;megaonoff.c: 695: break;
  6307                           
  6308                           ;megaonoff.c: 694: T1CONbits.TMR1ON = 1;
  6309                           
  6310                           ;megaonoff.c: 693: TMR1L=0x60;
  6311                           
  6312                           
  6313                           ;megaonoff.c: 697: TMR1H=0xD8;
  6314  0180  30D8               	movlw	216
  6315  0181  29D9               	goto	L42
  6316  0182                     i1l3342:	
  6317                           ;megaonoff.c: 701: case '4':
  6318                           
  6319                           ;megaonoff.c: 700: break;
  6320                           
  6321                           ;megaonoff.c: 699: T1CONbits.TMR1ON = 1;
  6322                           
  6323                           ;megaonoff.c: 698: TMR1L=0xF0;
  6324                           
  6325                           
  6326                           ;megaonoff.c: 702: TMR1H=0xDA;
  6327  0182  30DA               	movlw	218
  6328  0183  29DD               	goto	L43
  6329  0184                     i1l3346:	
  6330                           ;megaonoff.c: 706: case '5':
  6331                           
  6332                           ;megaonoff.c: 705: break;
  6333                           
  6334                           ;megaonoff.c: 704: T1CONbits.TMR1ON = 1;
  6335                           
  6336                           ;megaonoff.c: 703: TMR1L=0x80;
  6337                           
  6338                           
  6339                           ;megaonoff.c: 707: TMR1H=0xDC;
  6340  0184  30DC               	movlw	220
  6341  0185  29E1               	goto	L44
  6342  0186                     i1l3350:	
  6343                           ;megaonoff.c: 711: case '6':
  6344                           
  6345                           ;megaonoff.c: 710: break;
  6346                           
  6347                           ;megaonoff.c: 709: T1CONbits.TMR1ON = 1;
  6348                           
  6349                           ;megaonoff.c: 708: TMR1L=0x10;
  6350                           
  6351                           
  6352                           ;megaonoff.c: 712: TMR1H=0xDD;
  6353  0186  30DD               	movlw	221
  6354  0187  29E5               	goto	L45
  6355  0188                     i1l3354:	
  6356                           ;megaonoff.c: 716: case '7':
  6357                           
  6358                           ;megaonoff.c: 715: break;
  6359                           
  6360                           ;megaonoff.c: 714: T1CONbits.TMR1ON = 1;
  6361                           
  6362                           ;megaonoff.c: 713: TMR1L=0xA0;
  6363                           
  6364                           
  6365                           ;megaonoff.c: 717: TMR1H=0xDF;
  6366  0188  30DF               	movlw	223
  6367  0189  29E9               	goto	L46
  6368  018A                     i1l3358:	
  6369                           ;megaonoff.c: 721: case '8':
  6370                           
  6371                           ;megaonoff.c: 720: break;
  6372                           
  6373                           ;megaonoff.c: 719: T1CONbits.TMR1ON = 1;
  6374                           
  6375                           ;megaonoff.c: 718: TMR1L=0x30;
  6376                           
  6377                           
  6378                           ;megaonoff.c: 722: TMR1H=0xE0;
  6379  018A  30E0               	movlw	224
  6380  018B  29ED               	goto	L47
  6381  018C                     i1l3362:	
  6382                           ;megaonoff.c: 726: case '9':
  6383                           
  6384                           ;megaonoff.c: 725: break;
  6385                           
  6386                           ;megaonoff.c: 724: T1CONbits.TMR1ON = 1;
  6387                           
  6388                           ;megaonoff.c: 723: TMR1L=0xC0;
  6389                           
  6390                           
  6391                           ;megaonoff.c: 727: TMR1H=0xE2;
  6392  018C  30E2               	movlw	226
  6393  018D  29F1               	goto	L48
  6394  018E                     i1l3368:	
  6395                           ;megaonoff.c: 733: }
  6396                           
  6397                           ;megaonoff.c: 732: break;
  6398                           
  6399                           ;megaonoff.c: 731: default:
  6400                           
  6401                           ;megaonoff.c: 730: break;
  6402                           
  6403                           ;megaonoff.c: 729: T1CONbits.TMR1ON = 1;
  6404                           
  6405                           ;megaonoff.c: 728: TMR1L=0x50;
  6406                           
  6407  018E  0877               	movf	_levelofDimmer_LSB,w
  6408                           
  6409                           ; Switch size 1, requested type "space"
  6410                           ; Number of cases is 10, Range of values is 48 to 57
  6411                           ; switch strategies available:
  6412                           ; Name         Instructions Cycles
  6413                           ; direct_byte           29     9 (fixed)
  6414                           ; simple_byte           31    16 (average)
  6415                           ; jumptable            263     9 (fixed)
  6416                           ;	Chosen strategy is direct_byte
  6417  018F  3ED0               	addlw	-48
  6418  0190  1C03               	skipc
  6419  0191  2A15               	goto	i1l411
  6420  0192  0084               	movwf	4
  6421  0193  300A               	movlw	10
  6422  0194  0204               	subwf	4,w
  6423  0195  1803               	skipnc
  6424  0196  2A15               	goto	i1l411
  6425  0197  3188               	movlp	high i1S5146
  6426  0198  3504               	lslf	4,w
  6427  0199  3E8C               	addlw	low i1S5146
  6428  019A  0082               	movwf	2
  6429                           
  6430                           ;megaonoff.c: 734: break;
  6431  019B  2A15               	goto	i1l411
  6432  019C                     i1l3370:	
  6433                           ;megaonoff.c: 738: {
  6434                           ;megaonoff.c: 739: case '0':
  6435                           
  6436                           ;megaonoff.c: 737: switch(levelofDimmer_LSB)
  6437                           
  6438                           ;megaonoff.c: 735: case '8':
  6439                           
  6440                           
  6441                           ;megaonoff.c: 740: TMR1H=0xE3;
  6442  019C  30E3               	movlw	227
  6443  019D  29F5               	goto	L18
  6444  019E                     i1l3374:	
  6445                           ;megaonoff.c: 744: case '1':
  6446                           
  6447                           ;megaonoff.c: 743: break;
  6448                           
  6449                           ;megaonoff.c: 742: T1CONbits.TMR1ON = 1;
  6450                           
  6451                           ;megaonoff.c: 741: TMR1L=0xE0;
  6452                           
  6453                           
  6454                           ;megaonoff.c: 745: TMR1H=0xE4;
  6455  019E  30E4               	movlw	228
  6456  019F                     L51:	
  6457  019F  0097               	movwf	23	;volatile
  6458                           
  6459                           ;megaonoff.c: 746: TMR1L=0xA8;
  6460  01A0  30A8               	movlw	168
  6461  01A1  29F7               	goto	L2
  6462  01A2                     i1l3378:	
  6463                           ;megaonoff.c: 749: case '2':
  6464                           
  6465                           ;megaonoff.c: 748: break;
  6466                           
  6467                           ;megaonoff.c: 747: T1CONbits.TMR1ON = 1;
  6468                           
  6469                           
  6470                           ;megaonoff.c: 750: TMR1H=0xE5;
  6471  01A2  30E5               	movlw	229
  6472  01A3                     L34:	
  6473  01A3  0097               	movwf	23	;volatile
  6474                           
  6475                           ;megaonoff.c: 751: TMR1L=0x70;
  6476  01A4  3070               	movlw	112
  6477  01A5  29F7               	goto	L2
  6478  01A6                     i1l3382:	
  6479                           ;megaonoff.c: 754: case '3':
  6480                           
  6481                           ;megaonoff.c: 753: break;
  6482                           
  6483                           ;megaonoff.c: 752: T1CONbits.TMR1ON = 1;
  6484                           
  6485                           
  6486                           ;megaonoff.c: 755: TMR1H=0xE6;
  6487  01A6  30E6               	movlw	230
  6488  01A7  0097               	movwf	23	;volatile
  6489                           
  6490                           ;megaonoff.c: 756: TMR1L=0x38;
  6491  01A8  3038               	movlw	56
  6492  01A9  29F7               	goto	L2
  6493  01AA                     i1l3386:	
  6494                           ;megaonoff.c: 759: case '4':
  6495                           
  6496                           ;megaonoff.c: 758: break;
  6497                           
  6498                           ;megaonoff.c: 757: T1CONbits.TMR1ON = 1;
  6499                           
  6500                           
  6501                           ;megaonoff.c: 760: TMR1H=0xE7;
  6502  01AA  30E7               	movlw	231
  6503  01AB                     L35:	
  6504  01AB  0097               	movwf	23	;volatile
  6505                           
  6506                           ;megaonoff.c: 761: TMR1L=0x00;
  6507  01AC  0196               	clrf	22	;volatile
  6508  01AD  29F8               	goto	i1l3454
  6509  01AE                     i1l3392:	
  6510                           ;megaonoff.c: 764: case '5':
  6511                           
  6512                           ;megaonoff.c: 763: break;
  6513                           
  6514                           ;megaonoff.c: 762: T1CONbits.TMR1ON = 1;
  6515                           
  6516                           
  6517                           ;megaonoff.c: 765: TMR1H=0xE8;
  6518  01AE  30E8               	movlw	232
  6519  01AF                     L36:	
  6520  01AF  0097               	movwf	23	;volatile
  6521                           
  6522                           ;megaonoff.c: 766: TMR1L=0x90;
  6523  01B0  3090               	movlw	144
  6524  01B1  29F7               	goto	L2
  6525  01B2                     i1l3396:	
  6526                           ;megaonoff.c: 769: case '6':
  6527                           
  6528                           ;megaonoff.c: 768: break;
  6529                           
  6530                           ;megaonoff.c: 767: T1CONbits.TMR1ON = 1;
  6531                           
  6532                           
  6533                           ;megaonoff.c: 770: TMR1H=0xEA;
  6534  01B2  30EA               	movlw	234
  6535  01B3                     L37:	
  6536  01B3  0097               	movwf	23	;volatile
  6537                           
  6538                           ;megaonoff.c: 771: TMR1L=0x20;
  6539  01B4  3020               	movlw	32
  6540  01B5  29F7               	goto	L2
  6541  01B6                     i1l3400:	
  6542                           ;megaonoff.c: 774: case '7':
  6543                           
  6544                           ;megaonoff.c: 773: break;
  6545                           
  6546                           ;megaonoff.c: 772: T1CONbits.TMR1ON = 1;
  6547                           
  6548                           
  6549                           ;megaonoff.c: 775: TMR1H=0xEB;
  6550  01B6  30EB               	movlw	235
  6551  01B7                     L38:	
  6552  01B7  0097               	movwf	23	;volatile
  6553                           
  6554                           ;megaonoff.c: 776: TMR1L=0xB0;
  6555  01B8  30B0               	movlw	176
  6556  01B9  29F7               	goto	L2
  6557  01BA                     i1l3404:	
  6558                           ;megaonoff.c: 779: case '8':
  6559                           
  6560                           ;megaonoff.c: 778: break;
  6561                           
  6562                           ;megaonoff.c: 777: T1CONbits.TMR1ON = 1;
  6563                           
  6564                           
  6565                           ;megaonoff.c: 780: TMR1H=0xEC;
  6566  01BA  30EC               	movlw	236
  6567  01BB                     L53:	
  6568  01BB  0097               	movwf	23	;volatile
  6569                           
  6570                           ;megaonoff.c: 781: TMR1L=0x78;
  6571  01BC  3078               	movlw	120
  6572  01BD  29F7               	goto	L2
  6573  01BE                     i1l3408:	
  6574                           ;megaonoff.c: 784: case '9':
  6575                           
  6576                           ;megaonoff.c: 783: break;
  6577                           
  6578                           ;megaonoff.c: 782: T1CONbits.TMR1ON = 1;
  6579                           
  6580                           
  6581                           ;megaonoff.c: 785: TMR1H=0xED;
  6582  01BE  30ED               	movlw	237
  6583  01BF                     L39:	
  6584  01BF  0097               	movwf	23	;volatile
  6585                           
  6586                           ;megaonoff.c: 786: TMR1L=0x40;
  6587  01C0  3040               	movlw	64
  6588  01C1  29F7               	goto	L2
  6589  01C2                     i1l3414:	
  6590                           ;megaonoff.c: 791: }
  6591                           
  6592                           ;megaonoff.c: 790: break;
  6593                           
  6594                           ;megaonoff.c: 789: default:
  6595                           
  6596                           ;megaonoff.c: 788: break;
  6597                           
  6598                           ;megaonoff.c: 787: T1CONbits.TMR1ON = 1;
  6599                           
  6600  01C2  0877               	movf	_levelofDimmer_LSB,w
  6601                           
  6602                           ; Switch size 1, requested type "space"
  6603                           ; Number of cases is 10, Range of values is 48 to 57
  6604                           ; switch strategies available:
  6605                           ; Name         Instructions Cycles
  6606                           ; direct_byte           29     9 (fixed)
  6607                           ; simple_byte           31    16 (average)
  6608                           ; jumptable            263     9 (fixed)
  6609                           ;	Chosen strategy is direct_byte
  6610  01C3  3ED0               	addlw	-48
  6611  01C4  1C03               	skipc
  6612  01C5  2A15               	goto	i1l411
  6613  01C6  0084               	movwf	4
  6614  01C7  300A               	movlw	10
  6615  01C8  0204               	subwf	4,w
  6616  01C9  1803               	skipnc
  6617  01CA  2A15               	goto	i1l411
  6618  01CB  3188               	movlp	high i1S5148
  6619  01CC  3504               	lslf	4,w
  6620  01CD  3EA0               	addlw	low i1S5148
  6621  01CE  0082               	movwf	2
  6622                           
  6623                           ;megaonoff.c: 792: break;
  6624  01CF  2A15               	goto	i1l411
  6625  01D0                     i1l3416:	
  6626                           ;megaonoff.c: 796: {
  6627                           ;megaonoff.c: 797: case '0':
  6628                           
  6629                           ;megaonoff.c: 795: switch(levelofDimmer_LSB)
  6630                           
  6631                           ;megaonoff.c: 793: case '9':
  6632                           
  6633                           
  6634                           ;megaonoff.c: 798: TMR1H=0xEE;
  6635  01D0  30EE               	movlw	238
  6636  01D1                     L40:	
  6637  01D1  0097               	movwf	23	;volatile
  6638                           
  6639                           ;megaonoff.c: 799: TMR1L=0xD0;
  6640  01D2  30D0               	movlw	208
  6641  01D3  29F7               	goto	L2
  6642  01D4                     i1l3420:	
  6643                           ;megaonoff.c: 802: case '1':
  6644                           
  6645                           ;megaonoff.c: 801: break;
  6646                           
  6647                           ;megaonoff.c: 800: T1CONbits.TMR1ON = 1;
  6648                           
  6649                           
  6650                           ;megaonoff.c: 803: TMR1H=0xF0;
  6651  01D4  30F0               	movlw	240
  6652  01D5                     L41:	
  6653  01D5  0097               	movwf	23	;volatile
  6654                           
  6655                           ;megaonoff.c: 804: TMR1L=0x60;
  6656  01D6  3060               	movlw	96
  6657  01D7  29F7               	goto	L2
  6658  01D8                     i1l3424:	
  6659                           ;megaonoff.c: 807: case '2':
  6660                           
  6661                           ;megaonoff.c: 806: break;
  6662                           
  6663                           ;megaonoff.c: 805: T1CONbits.TMR1ON = 1;
  6664                           
  6665                           
  6666                           ;megaonoff.c: 808: TMR1H=0xF1;
  6667  01D8  30F1               	movlw	241
  6668  01D9                     L42:	
  6669  01D9  0097               	movwf	23	;volatile
  6670                           
  6671                           ;megaonoff.c: 809: TMR1L=0xF0;
  6672  01DA  30F0               	movlw	240
  6673  01DB  29F7               	goto	L2
  6674  01DC                     i1l3428:	
  6675                           ;megaonoff.c: 812: case '3':
  6676                           
  6677                           ;megaonoff.c: 811: break;
  6678                           
  6679                           ;megaonoff.c: 810: T1CONbits.TMR1ON = 1;
  6680                           
  6681                           
  6682                           ;megaonoff.c: 813: TMR1H=0xF3;
  6683  01DC  30F3               	movlw	243
  6684  01DD                     L43:	
  6685  01DD  0097               	movwf	23	;volatile
  6686                           
  6687                           ;megaonoff.c: 814: TMR1L=0x80;
  6688  01DE  3080               	movlw	128
  6689  01DF  29F7               	goto	L2
  6690  01E0                     i1l3432:	
  6691                           ;megaonoff.c: 817: case '4':
  6692                           
  6693                           ;megaonoff.c: 816: break;
  6694                           
  6695                           ;megaonoff.c: 815: T1CONbits.TMR1ON = 1;
  6696                           
  6697                           
  6698                           ;megaonoff.c: 818: TMR1H=0xF5;
  6699  01E0  30F5               	movlw	245
  6700  01E1                     L44:	
  6701  01E1  0097               	movwf	23	;volatile
  6702                           
  6703                           ;megaonoff.c: 819: TMR1L=0x10;
  6704  01E2  3010               	movlw	16
  6705  01E3  29F7               	goto	L2
  6706  01E4                     i1l3436:	
  6707                           ;megaonoff.c: 822: case '5':
  6708                           
  6709                           ;megaonoff.c: 821: break;
  6710                           
  6711                           ;megaonoff.c: 820: T1CONbits.TMR1ON = 1;
  6712                           
  6713                           
  6714                           ;megaonoff.c: 823: TMR1H=0xF6;
  6715  01E4  30F6               	movlw	246
  6716  01E5                     L45:	
  6717  01E5  0097               	movwf	23	;volatile
  6718                           
  6719                           ;megaonoff.c: 824: TMR1L=0xA0;
  6720  01E6  30A0               	movlw	160
  6721  01E7  29F7               	goto	L2
  6722  01E8                     i1l3440:	
  6723                           ;megaonoff.c: 827: case '6':
  6724                           
  6725                           ;megaonoff.c: 826: break;
  6726                           
  6727                           ;megaonoff.c: 825: T1CONbits.TMR1ON = 1;
  6728                           
  6729                           
  6730                           ;megaonoff.c: 828: TMR1H=0xF8;
  6731  01E8  30F8               	movlw	248
  6732  01E9                     L46:	
  6733  01E9  0097               	movwf	23	;volatile
  6734                           
  6735                           ;megaonoff.c: 829: TMR1L=0x30;
  6736  01EA  3030               	movlw	48
  6737  01EB  29F7               	goto	L2
  6738  01EC                     i1l3444:	
  6739                           ;megaonoff.c: 832: case '7':
  6740                           
  6741                           ;megaonoff.c: 831: break;
  6742                           
  6743                           ;megaonoff.c: 830: T1CONbits.TMR1ON = 1;
  6744                           
  6745                           
  6746                           ;megaonoff.c: 833: TMR1H=0xF9;
  6747  01EC  30F9               	movlw	249
  6748  01ED                     L47:	
  6749  01ED  0097               	movwf	23	;volatile
  6750                           
  6751                           ;megaonoff.c: 834: TMR1L=0xC0;
  6752  01EE  30C0               	movlw	192
  6753  01EF  29F7               	goto	L2
  6754  01F0                     i1l3448:	
  6755                           ;megaonoff.c: 837: case '8':
  6756                           
  6757                           ;megaonoff.c: 836: break;
  6758                           
  6759                           ;megaonoff.c: 835: T1CONbits.TMR1ON = 1;
  6760                           
  6761                           
  6762                           ;megaonoff.c: 838: TMR1H=0xFB;
  6763  01F0  30FB               	movlw	251
  6764  01F1                     L48:	
  6765  01F1  0097               	movwf	23	;volatile
  6766                           
  6767                           ;megaonoff.c: 839: TMR1L=0x50;
  6768  01F2  3050               	movlw	80
  6769  01F3  29F7               	goto	L2
  6770  01F4                     i1l3452:	
  6771                           ;megaonoff.c: 843: case '9':
  6772                           
  6773                           ;megaonoff.c: 842: break;
  6774                           
  6775                           ;megaonoff.c: 840: T1CONbits.TMR1ON = 1;
  6776                           
  6777                           
  6778                           ;megaonoff.c: 844: TMR1H=0xFC;
  6779  01F4  30FC               	movlw	252
  6780  01F5                     L18:	
  6781  01F5  0097               	movwf	23	;volatile
  6782                           
  6783                           ;megaonoff.c: 845: TMR1L=0xE0;
  6784  01F6  30E0               	movlw	224
  6785  01F7                     L2:	
  6786  01F7  0096               	movwf	22	;volatile
  6787  01F8                     i1l3454:	
  6788                           
  6789                           ;megaonoff.c: 846: T1CONbits.TMR1ON = 1;
  6790  01F8  1418               	bsf	24,0	;volatile
  6791                           
  6792                           ;megaonoff.c: 851: }
  6793                           
  6794                           ;megaonoff.c: 850: break;
  6795                           
  6796                           ;megaonoff.c: 849: default:
  6797                           
  6798                           ;megaonoff.c: 848: break;
  6799  01F9  2A15               	goto	i1l411
  6800  01FA                     i1l3458:	
  6801  01FA  0877               	movf	_levelofDimmer_LSB,w
  6802                           
  6803                           ; Switch size 1, requested type "space"
  6804                           ; Number of cases is 10, Range of values is 48 to 57
  6805                           ; switch strategies available:
  6806                           ; Name         Instructions Cycles
  6807                           ; direct_byte           29     9 (fixed)
  6808                           ; simple_byte           31    16 (average)
  6809                           ; jumptable            263     9 (fixed)
  6810                           ;	Chosen strategy is direct_byte
  6811  01FB  3ED0               	addlw	-48
  6812  01FC  1C03               	skipc
  6813  01FD  2A15               	goto	i1l411
  6814  01FE  0084               	movwf	4
  6815  01FF  300A               	movlw	10
  6816  0200  0204               	subwf	4,w
  6817  0201  1803               	skipnc
  6818  0202  2A15               	goto	i1l411
  6819  0203  3188               	movlp	high i1S5150
  6820  0204  3504               	lslf	4,w
  6821  0205  3EB4               	addlw	low i1S5150
  6822  0206  0082               	movwf	2
  6823                           
  6824                           ;megaonoff.c: 855: }
  6825                           
  6826                           ;megaonoff.c: 854: break;
  6827                           
  6828                           ;megaonoff.c: 853: default:
  6829                           
  6830                           ;megaonoff.c: 852: break;
  6831  0207  2A15               	goto	i1l411
  6832  0208                     i1l3462:	
  6833  0208  0878               	movf	_levelofDimmer_MSB,w
  6834                           
  6835                           ; Switch size 1, requested type "space"
  6836                           ; Number of cases is 10, Range of values is 48 to 57
  6837                           ; switch strategies available:
  6838                           ; Name         Instructions Cycles
  6839                           ; direct_byte           29     9 (fixed)
  6840                           ; simple_byte           31    16 (average)
  6841                           ; jumptable            263     9 (fixed)
  6842                           ;	Chosen strategy is direct_byte
  6843  0209  3ED0               	addlw	-48
  6844  020A  1C03               	skipc
  6845  020B  2A15               	goto	i1l411
  6846  020C  0084               	movwf	4
  6847  020D  300A               	movlw	10
  6848  020E  0204               	subwf	4,w
  6849  020F  1803               	skipnc
  6850  0210  2A15               	goto	i1l411
  6851  0211  3188               	movlp	high i1S5152
  6852  0212  3504               	lslf	4,w
  6853  0213  3EC8               	addlw	low i1S5152
  6854  0214  0082               	movwf	2
  6855  0215                     i1l411:	
  6856  0215  0874               	movf	??_isr+1,w
  6857  0216  00FF               	movwf	127
  6858  0217  107E               	bcf	126,0	;clear compiler interrupt flag (level 1)
  6859  0218  0009               	retfie
  6860  0219                     __end_of_isr:	
  6861                           
  6862                           	psect	swtext2
  6863  0800                     __pswtext2:	
  6864  0800                     i1S5132:	
  6865  0800  3180  2873         	ljmp	i1l3010
  6866  0802  3180  2875         	ljmp	i1l3014
  6867  0804  3180  2877         	ljmp	i1l3018
  6868  0806  3180  287B         	ljmp	i1l3022
  6869  0808  3180  287F         	ljmp	i1l3026
  6870  080A  3180  2881         	ljmp	i1l3030
  6871  080C  3180  2883         	ljmp	i1l3034
  6872  080E  3180  2885         	ljmp	i1l3040
  6873  0810  3180  2889         	ljmp	i1l3044
  6874  0812  3180  288A         	ljmp	i1l3048
  6875                           
  6876                           	psect	swtext3
  6877  0814                     __pswtext3:	
  6878  0814                     i1S5134:	
  6879  0814  3180  289C         	ljmp	i1l3056
  6880  0816  3180  289E         	ljmp	i1l3060
  6881  0818  3180  28A2         	ljmp	i1l3064
  6882  081A  3180  28A4         	ljmp	i1l3068
  6883  081C  3180  28A6         	ljmp	i1l3072
  6884  081E  3180  28A8         	ljmp	i1l3076
  6885  0820  3180  28AC         	ljmp	i1l3080
  6886  0822  3180  28AE         	ljmp	i1l3084
  6887  0824  3180  28B2         	ljmp	i1l3088
  6888  0826  3180  28B4         	ljmp	i1l3092
  6889                           
  6890                           	psect	swtext4
  6891  0828                     __pswtext4:	
  6892  0828                     i1S5136:	
  6893  0828  3180  28C6         	ljmp	i1l3100
  6894  082A  3180  28C8         	ljmp	i1l3104
  6895  082C  3180  28CC         	ljmp	i1l3108
  6896  082E  3180  28CE         	ljmp	i1l3112
  6897  0830  3180  28D2         	ljmp	i1l3116
  6898  0832  3180  28D4         	ljmp	i1l3120
  6899  0834  3180  28D8         	ljmp	i1l3124
  6900  0836  3180  28DA         	ljmp	i1l3128
  6901  0838  3180  28DE         	ljmp	i1l3132
  6902  083A  3180  28E0         	ljmp	i1l3136
  6903                           
  6904                           	psect	swtext5
  6905  083C                     __pswtext5:	
  6906  083C                     i1S5138:	
  6907  083C  3180  28F2         	ljmp	i1l3144
  6908  083E  3180  28F4         	ljmp	i1l3148
  6909  0840  3180  28F6         	ljmp	i1l3152
  6910  0842  3180  28F8         	ljmp	i1l3156
  6911  0844  3180  28FA         	ljmp	i1l3160
  6912  0846  3180  28FC         	ljmp	i1l3166
  6913  0848  3180  28FE         	ljmp	i1l3170
  6914  084A  3181  2900         	ljmp	i1l3174
  6915  084C  3181  2902         	ljmp	i1l3178
  6916  084E  3181  2904         	ljmp	i1l3182
  6917                           
  6918                           	psect	swtext6
  6919  0850                     __pswtext6:	
  6920  0850                     i1S5140:	
  6921  0850  3181  2914         	ljmp	i1l3190
  6922  0852  3181  2916         	ljmp	i1l3194
  6923  0854  3181  2918         	ljmp	i1l3198
  6924  0856  3181  291A         	ljmp	i1l3202
  6925  0858  3181  291C         	ljmp	i1l3206
  6926  085A  3181  291E         	ljmp	i1l3210
  6927  085C  3181  2920         	ljmp	i1l3214
  6928  085E  3181  2922         	ljmp	i1l3218
  6929  0860  3181  2924         	ljmp	i1l3222
  6930  0862  3181  2926         	ljmp	i1l3226
  6931                           
  6932                           	psect	swtext7
  6933  0864                     __pswtext7:	
  6934  0864                     i1S5142:	
  6935  0864  3181  2936         	ljmp	i1l3234
  6936  0866  3181  2938         	ljmp	i1l3240
  6937  0868  3181  293A         	ljmp	i1l3244
  6938  086A  3181  293C         	ljmp	i1l3248
  6939  086C  3181  293E         	ljmp	i1l3252
  6940  086E  3181  2940         	ljmp	i1l3256
  6941  0870  3181  2942         	ljmp	i1l3260
  6942  0872  3181  2944         	ljmp	i1l3264
  6943  0874  3181  2946         	ljmp	i1l3268
  6944  0876  3181  2948         	ljmp	i1l3272
  6945                           
  6946                           	psect	swtext8
  6947  0878                     __pswtext8:	
  6948  0878                     i1S5144:	
  6949  0878  3181  2958         	ljmp	i1l3280
  6950  087A  3181  295A         	ljmp	i1l3284
  6951  087C  3181  295C         	ljmp	i1l3288
  6952  087E  3181  295E         	ljmp	i1l3292
  6953  0880  3181  2960         	ljmp	i1l3296
  6954  0882  3181  2962         	ljmp	i1l3300
  6955  0884  3181  2964         	ljmp	i1l3304
  6956  0886  3181  2966         	ljmp	i1l3310
  6957  0888  3181  2968         	ljmp	i1l3314
  6958  088A  3181  296A         	ljmp	i1l3318
  6959                           
  6960                           	psect	swtext9
  6961  088C                     __pswtext9:	
  6962  088C                     i1S5146:	
  6963  088C  3181  297A         	ljmp	i1l3326
  6964  088E  3181  297C         	ljmp	i1l3330
  6965  0890  3181  297E         	ljmp	i1l3334
  6966  0892  3181  2980         	ljmp	i1l3338
  6967  0894  3181  2982         	ljmp	i1l3342
  6968  0896  3181  2984         	ljmp	i1l3346
  6969  0898  3181  2986         	ljmp	i1l3350
  6970  089A  3181  2988         	ljmp	i1l3354
  6971  089C  3181  298A         	ljmp	i1l3358
  6972  089E  3181  298C         	ljmp	i1l3362
  6973                           
  6974                           	psect	swtext10
  6975  08A0                     __pswtext10:	
  6976  08A0                     i1S5148:	
  6977  08A0  3181  299C         	ljmp	i1l3370
  6978  08A2  3181  299E         	ljmp	i1l3374
  6979  08A4  3181  29A2         	ljmp	i1l3378
  6980  08A6  3181  29A6         	ljmp	i1l3382
  6981  08A8  3181  29AA         	ljmp	i1l3386
  6982  08AA  3181  29AE         	ljmp	i1l3392
  6983  08AC  3181  29B2         	ljmp	i1l3396
  6984  08AE  3181  29B6         	ljmp	i1l3400
  6985  08B0  3181  29BA         	ljmp	i1l3404
  6986  08B2  3181  29BE         	ljmp	i1l3408
  6987                           
  6988                           	psect	swtext11
  6989  08B4                     __pswtext11:	
  6990  08B4                     i1S5150:	
  6991  08B4  3181  29D0         	ljmp	i1l3416
  6992  08B6  3181  29D4         	ljmp	i1l3420
  6993  08B8  3181  29D8         	ljmp	i1l3424
  6994  08BA  3181  29DC         	ljmp	i1l3428
  6995  08BC  3181  29E0         	ljmp	i1l3432
  6996  08BE  3181  29E4         	ljmp	i1l3436
  6997  08C0  3181  29E8         	ljmp	i1l3440
  6998  08C2  3181  29EC         	ljmp	i1l3444
  6999  08C4  3181  29F0         	ljmp	i1l3448
  7000  08C6  3181  29F4         	ljmp	i1l3452
  7001                           
  7002                           	psect	swtext12
  7003  08C8                     __pswtext12:	
  7004  08C8                     i1S5152:	
  7005  08C8  3180  288E         	ljmp	i1l3054
  7006  08CA  3180  28B8         	ljmp	i1l3098
  7007  08CC  3180  28E4         	ljmp	i1l3142
  7008  08CE  3181  2906         	ljmp	i1l3188
  7009  08D0  3181  2928         	ljmp	i1l3232
  7010  08D2  3181  294A         	ljmp	i1l3278
  7011  08D4  3181  296C         	ljmp	i1l3324
  7012  08D6  3181  298E         	ljmp	i1l3368
  7013  08D8  3181  29C2         	ljmp	i1l3414
  7014  08DA  3181  29FA         	ljmp	i1l3458
  7015                           
  7016                           	psect	text30
  7017  0F46                     __ptext30:	
  7018 ;; *************** function _errorsISR *****************
  7019 ;; Defined at:
  7020 ;;		line 1672 in file "megaonoff.c"
  7021 ;; Parameters:    Size  Location     Type
  7022 ;;  errNum          2    0[COMMON] PTR const unsigned char 
  7023 ;;		 -> STR_2(5), STR_1(5), 
  7024 ;; Auto vars:     Size  Location     Type
  7025 ;;		None
  7026 ;; Return value:  Size  Location     Type
  7027 ;;                  1    wreg      void 
  7028 ;; Registers used:
  7029 ;;		wreg, fsr0l, fsr0h, status,2, status,0, pclath
  7030 ;; Tracked objects:
  7031 ;;		On entry : 0/0
  7032 ;;		On exit  : 0/0
  7033 ;;		Unchanged: 0/0
  7034 ;; Data sizes:     COMMON   BANK0   BANK1   BANK2   BANK3   BANK4   BANK5   BANK6   BANK7   BANK8   BANK9
  7035 ;;      Params:         2       0       0       0       0       0       0       0       0       0       0
  7036 ;;      Locals:         0       0       0       0       0       0       0       0       0       0       0
  7037 ;;      Temps:          1       0       0       0       0       0       0       0       0       0       0
  7038 ;;      Totals:         3       0       0       0       0       0       0       0       0       0       0
  7039 ;;Total ram usage:        3 bytes
  7040 ;; Hardware stack levels used:    1
  7041 ;; This function calls:
  7042 ;;		Nothing
  7043 ;; This function is called by:
  7044 ;;		_isr
  7045 ;; This function uses a non-reentrant model
  7046 ;;
  7047                           
  7048                           
  7049                           ;psect for function _errorsISR
  7050  0F46                     _errorsISR:	
  7051  0F46                     i1l2760:	
  7052                           ;megaonoff.c: 1674: while(*errNum != (0))
  7053                           
  7054                           ;incstack = 0
  7055                           ; Regs used in _errorsISR: [wreg-fsr0h+status,2+status,0+pclath]
  7056                           
  7057  0F46  0870               	movf	errorsISR@errNum,w
  7058  0F47  0084               	movwf	4
  7059  0F48  0871               	movf	errorsISR@errNum+1,w
  7060  0F49  0085               	movwf	5
  7061  0F4A  0012               	moviw fsr0++
  7062  0F4B  1903               	btfsc	3,2
  7063  0F4C  0008               	return
  7064  0F4D                     i1l535:	
  7065                           ;megaonoff.c: 1675: {
  7066                           ;megaonoff.c: 1676: while (!TX1STAbits.TRMT);
  7067                           
  7068  0F4D  0023               	movlb	3	; select bank3
  7069  0F4E  1C9E               	btfss	30,1	;volatile
  7070  0F4F  2F4D               	goto	i1l535
  7071                           
  7072                           ;megaonoff.c: 1677: TX1REG = *errNum;
  7073  0F50  0870               	movf	errorsISR@errNum,w
  7074  0F51  0084               	movwf	4
  7075  0F52  0871               	movf	errorsISR@errNum+1,w
  7076  0F53  0085               	movwf	5
  7077  0F54  0800               	movf	0,w	;code access
  7078  0F55  009A               	movwf	26	;volatile
  7079                           
  7080                           ;megaonoff.c: 1678: *errNum++;
  7081  0F56  3001               	movlw	1
  7082  0F57  07F0               	addwf	errorsISR@errNum,f
  7083  0F58  3000               	movlw	0
  7084  0F59  3DF1               	addwfc	errorsISR@errNum+1,f
  7085  0F5A  2F46               	goto	i1l2760
  7086  0F5B                     __end_of_errorsISR:	
  7087  007E                     btemp	set	126	;btemp
  7088  007E                     int$flags	set	126
  7089  007E                     wtemp0	set	126


Data Sizes:
    Strings     15
    Constant    0
    Data        120
    BSS         24
    Persistent  0
    Stack       0

Auto Spaces:
    Space          Size  Autos    Used
    COMMON           14      5       9
    BANK0            80     41      77
    BANK1            80      4      50
    BANK2            80      0      58
    BANK3            80      0       0
    BANK4            80      0       0
    BANK5            80      0       0
    BANK6            80      0       0
    BANK7            80      0       0
    BANK8            80      0       0
    BANK9            32      0       0

Pointer List with Targets:

    atoi@s	PTR const unsigned char  size(1) Largest target is 2
		 -> applianceControl@dimmerSpeedStringBuffer(BANK0[2]), applianceControl@switchNumberStringBuffer(BANK0[2]), 

    sendAcknowledgment@currentStateBuffer	PTR unsigned char  size(1) Largest target is 58
		 -> currentStateBuffer(BANK2[58]), 

    errorsMain@errNum	PTR const unsigned char  size(2) Largest target is 5
		 -> STR_3(CODE[5]), 

    errorsISR@errNum	PTR const unsigned char  size(2) Largest target is 5
		 -> STR_2(CODE[5]), STR_1(CODE[5]), 


Critical Paths under _main in COMMON

    None.

Critical Paths under _isr in COMMON

    _isr->_errorsISR

Critical Paths under _main in BANK0

    _main->_applianceControl
    _applianceControl->_atoi
    _atoi->___wmul

Critical Paths under _isr in BANK0

    None.

Critical Paths under _main in BANK1

    None.

Critical Paths under _isr in BANK1

    None.

Critical Paths under _main in BANK2

    None.

Critical Paths under _isr in BANK2

    None.

Critical Paths under _main in BANK3

    None.

Critical Paths under _isr in BANK3

    None.

Critical Paths under _main in BANK4

    None.

Critical Paths under _isr in BANK4

    None.

Critical Paths under _main in BANK5

    None.

Critical Paths under _isr in BANK5

    None.

Critical Paths under _main in BANK6

    None.

Critical Paths under _isr in BANK6

    None.

Critical Paths under _main in BANK7

    None.

Critical Paths under _isr in BANK7

    None.

Critical Paths under _main in BANK8

    None.

Critical Paths under _isr in BANK8

    None.

Critical Paths under _main in BANK9

    None.

Critical Paths under _isr in BANK9

    None.

Call Graph Tables:

 ---------------------------------------------------------------------------------
 (Depth) Function   	        Calls       Base Space   Used Autos Params    Refs
 ---------------------------------------------------------------------------------
 (0) _main                                                10    10      0    3649
                                             35 BANK0      6     6      0
                                              0 BANK1      4     4      0
                _GPIO_pin_Initialize
     _ReceivingIndicationLedBlinking
           _SwitchOffStatustToGatway
            _SwitchOnStatustToGatway
  _TransmissionIndicationLedBlinking
                  _allPeripheralInit
                   _applianceControl
             _copyReceivedDataBuffer
                         _errorsMain
 ---------------------------------------------------------------------------------
 (1) _errorsMain                                           3     1      2     142
                                              0 BANK0      3     1      2
 ---------------------------------------------------------------------------------
 (1) _copyReceivedDataBuffer                               3     3      0     164
                                              0 BANK0      3     3      0
 ---------------------------------------------------------------------------------
 (1) _applianceControl                                    21    15      6    2567
                                             14 BANK0     21    15      6
                               _atoi
                 _sendAcknowledgment
 ---------------------------------------------------------------------------------
 (2) _sendAcknowledgment                                   4     4      0     104
                                              0 BANK0      4     4      0
 ---------------------------------------------------------------------------------
 (2) _atoi                                                 8     6      2     789
                                              6 BANK0      8     6      2
                             ___wmul
                            _isdigit
 ---------------------------------------------------------------------------------
 (3) _isdigit                                              2     2      0      99
                                              0 BANK0      2     2      0
 ---------------------------------------------------------------------------------
 (3) ___wmul                                               6     2      4     290
                                              0 BANK0      6     2      4
 ---------------------------------------------------------------------------------
 (1) _allPeripheralInit                                    0     0      0       0
                   _CCP10_Initialize
                    _CCP7_Initialize
                    _CCP8_Initialize
                    _CCP9_Initialize
                  _EUSART_Initialize
                   _TMR10_Initialize
                    _TMR1_Initialize
                    _TMR2_Initialize
                    _TMR3_Initialize
                    _TMR4_Initialize
                    _TMR5_Initialize
                    _TMR6_Initialize
                    _TMR8_Initialize
 ---------------------------------------------------------------------------------
 (2) _TMR8_Initialize                                      0     0      0       0
 ---------------------------------------------------------------------------------
 (2) _TMR6_Initialize                                      0     0      0       0
 ---------------------------------------------------------------------------------
 (2) _TMR5_Initialize                                      0     0      0       0
 ---------------------------------------------------------------------------------
 (2) _TMR4_Initialize                                      0     0      0       0
 ---------------------------------------------------------------------------------
 (2) _TMR3_Initialize                                      0     0      0       0
 ---------------------------------------------------------------------------------
 (2) _TMR2_Initialize                                      0     0      0       0
 ---------------------------------------------------------------------------------
 (2) _TMR1_Initialize                                      0     0      0       0
 ---------------------------------------------------------------------------------
 (2) _TMR10_Initialize                                     0     0      0       0
 ---------------------------------------------------------------------------------
 (2) _EUSART_Initialize                                    0     0      0       0
 ---------------------------------------------------------------------------------
 (2) _CCP9_Initialize                                      0     0      0       0
 ---------------------------------------------------------------------------------
 (2) _CCP8_Initialize                                      0     0      0       0
 ---------------------------------------------------------------------------------
 (2) _CCP7_Initialize                                      0     0      0       0
 ---------------------------------------------------------------------------------
 (2) _CCP10_Initialize                                     0     0      0       0
 ---------------------------------------------------------------------------------
 (1) _TransmissionIndicationLedBlinking                    2     2      0       0
                                              0 BANK0      2     2      0
 ---------------------------------------------------------------------------------
 (1) _SwitchOnStatustToGatway                              2     2      0      31
                                              0 BANK0      2     2      0
 ---------------------------------------------------------------------------------
 (1) _SwitchOffStatustToGatway                             2     2      0      31
                                              0 BANK0      2     2      0
 ---------------------------------------------------------------------------------
 (1) _ReceivingIndicationLedBlinking                       2     2      0       0
                                              0 BANK0      2     2      0
 ---------------------------------------------------------------------------------
 (1) _GPIO_pin_Initialize                                  0     0      0       0
                      _clearAllPorts
                      _pinINIT_extra
 ---------------------------------------------------------------------------------
 (2) _pinINIT_extra                                        0     0      0       0
 ---------------------------------------------------------------------------------
 (2) _clearAllPorts                                        0     0      0       0
 ---------------------------------------------------------------------------------
 Estimated maximum stack depth 3
 ---------------------------------------------------------------------------------
 (Depth) Function   	        Calls       Base Space   Used Autos Params    Refs
 ---------------------------------------------------------------------------------
 (4) _isr                                                  2     2      0     173
                                              3 COMMON     2     2      0
                          _errorsISR
 ---------------------------------------------------------------------------------
 (5) _errorsISR                                            3     1      2     173
                                              0 COMMON     3     1      2
 ---------------------------------------------------------------------------------
 Estimated maximum stack depth 5
 ---------------------------------------------------------------------------------

 Call Graph Graphs:

 _main (ROOT)
   _GPIO_pin_Initialize
     _clearAllPorts
     _pinINIT_extra
   _ReceivingIndicationLedBlinking
   _SwitchOffStatustToGatway
   _SwitchOnStatustToGatway
   _TransmissionIndicationLedBlinking
   _allPeripheralInit
     _CCP10_Initialize
     _CCP7_Initialize
     _CCP8_Initialize
     _CCP9_Initialize
     _EUSART_Initialize
     _TMR10_Initialize
     _TMR1_Initialize
     _TMR2_Initialize
     _TMR3_Initialize
     _TMR4_Initialize
     _TMR5_Initialize
     _TMR6_Initialize
     _TMR8_Initialize
   _applianceControl
     _atoi
       ___wmul
       _isdigit
     _sendAcknowledgment
   _copyReceivedDataBuffer
   _errorsMain

 _isr (ROOT)
   _errorsISR

 Address spaces:
Name               Size   Autos  Total    Cost      Usage
BIGRAM             2F0      0       0       0        0.0%
NULL                 0      0       0       0        0.0%
CODE                 0      0       0       0        0.0%
BITCOMMON            E      0       0       1        0.0%
BITSFR0              0      0       0       1        0.0%
SFR0                 0      0       0       1        0.0%
COMMON               E      5       9       2       64.3%
BITSFR1              0      0       0       2        0.0%
SFR1                 0      0       0       2        0.0%
BITSFR2              0      0       0       3        0.0%
SFR2                 0      0       0       3        0.0%
STACK                0      0       0       3        0.0%
BITSFR3              0      0       0       4        0.0%
SFR3                 0      0       0       4        0.0%
ABS                  0      0      C2       4        0.0%
BITBANK0            50      0       0       5        0.0%
BITSFR4              0      0       0       5        0.0%
SFR4                 0      0       0       5        0.0%
BANK0               50     29      4D       6       96.3%
BITSFR5              0      0       0       6        0.0%
SFR5                 0      0       0       6        0.0%
BITBANK1            50      0       0       7        0.0%
BITSFR6              0      0       0       7        0.0%
SFR6                 0      0       0       7        0.0%
BANK1               50      4      32       8       62.5%
BITSFR7              0      0       0       8        0.0%
SFR7                 0      0       0       8        0.0%
BITBANK2            50      0       0       9        0.0%
BITSFR8              0      0       0       9        0.0%
SFR8                 0      0       0       9        0.0%
BANK2               50      0      3A      10       72.5%
BITSFR9              0      0       0      10        0.0%
SFR9                 0      0       0      10        0.0%
BITBANK3            50      0       0      11        0.0%
BITSFR10             0      0       0      11        0.0%
SFR10                0      0       0      11        0.0%
BANK3               50      0       0      12        0.0%
BITSFR11             0      0       0      12        0.0%
SFR11                0      0       0      12        0.0%
BITBANK4            50      0       0      13        0.0%
BITSFR12             0      0       0      13        0.0%
SFR12                0      0       0      13        0.0%
BANK4               50      0       0      14        0.0%
BITSFR13             0      0       0      14        0.0%
SFR13                0      0       0      14        0.0%
BITBANK5            50      0       0      15        0.0%
BITSFR14             0      0       0      15        0.0%
SFR14                0      0       0      15        0.0%
BANK5               50      0       0      16        0.0%
BITSFR15             0      0       0      16        0.0%
SFR15                0      0       0      16        0.0%
BITBANK6            50      0       0      17        0.0%
BITSFR16             0      0       0      17        0.0%
SFR16                0      0       0      17        0.0%
BANK6               50      0       0      18        0.0%
BITSFR17             0      0       0      18        0.0%
SFR17                0      0       0      18        0.0%
BITBANK7            50      0       0      19        0.0%
BITSFR18             0      0       0      19        0.0%
SFR18                0      0       0      19        0.0%
BANK7               50      0       0      20        0.0%
BITSFR19             0      0       0      20        0.0%
SFR19                0      0       0      20        0.0%
BITBANK8            50      0       0      21        0.0%
BITSFR20             0      0       0      21        0.0%
SFR20                0      0       0      21        0.0%
BANK8               50      0       0      22        0.0%
BITSFR21             0      0       0      22        0.0%
SFR21                0      0       0      22        0.0%
BITBANK9            20      0       0      23        0.0%
BITSFR22             0      0       0      23        0.0%
SFR22                0      0       0      23        0.0%
BANK9               20      0       0      24        0.0%
BITSFR23             0      0       0      24        0.0%
SFR23                0      0       0      24        0.0%
BITSFR24             0      0       0      25        0.0%
SFR24                0      0       0      25        0.0%
DATA                 0      0      C2      25        0.0%
BITSFR25             0      0       0      26        0.0%
SFR25                0      0       0      26        0.0%
BITSFR26             0      0       0      27        0.0%
SFR26                0      0       0      27        0.0%
BITSFR27             0      0       0      28        0.0%
SFR27                0      0       0      28        0.0%
BITSFR28             0      0       0      29        0.0%
SFR28                0      0       0      29        0.0%
BITSFR29             0      0       0      30        0.0%
SFR29                0      0       0      30        0.0%
BITSFR30             0      0       0      31        0.0%
SFR30                0      0       0      31        0.0%
BITSFR31             0      0       0      32        0.0%
SFR31                0      0       0      32        0.0%


Microchip Technology PIC Macro Assembler V1.45 build -152302408 
Symbol Table                                                                                   Wed Jan 30 16:05:51 2019

                 __size_of_allPeripheralInit 0027                                            pc 0002  
                                __CFG_CP$OFF 0000                                           _M1 005B  
                                         _M2 0059                                           _M3 0057  
                                         _M4 0055                                           _M5 0053  
                                         _M6 0051                                           _M7 004F  
                                         _M8 004D                                           _M9 004B  
                        ___wmul@multiplicand 0022                 applianceControl@integerSpeed 0036  
                                        l421 02FF                                          l455 0533  
                                        l480 0639                                          l544 0F8E  
                                        l485 0667                                          l559 0FC4  
                                        l584 0FA8                                          _GIE 005F  
                                        _PR2 001B                    __size_of_applianceControl 010C  
                                        _isr 0004                              _TMR2_Initialize 0EBD  
                               __CFG_BORV$LO 0000                                          wreg 0009  
                               __CFG_FOSC$HS 0000                                         S5130 08DC  
                               __CFG_LVP$OFF 0000                                         l4122 0FA2  
                                       l4142 0F0E                                         l4150 066A  
                                       l4160 068C                                         l4152 0676  
                                       l4170 06BE                                         l4148 0671  
                                       l4166 0693                                         l5126 064B  
                                       l4502 0F86                                         l4176 06CE  
                                       l4168 0697                                         l5128 065A  
                                       l4600 0362                                         l4188 0FBF  
                                       l4460 0604                                         l4700 0430  
                                       l4620 038A                                         l4604 036A  
                                       l4470 062B                                         l4462 060B  
                                       l4518 028B                                         l4472 0633  
                                       l4464 0613                                         l4456 05F7  
                                       l4712 044A                                         l4632 03A4  
                                       l4616 0384                                         l4536 02C7  
                                       l4474 063C                                         l4466 061B  
                                       l4458 05FE                                         l4482 0654  
                                       l4554 0302                                         l4468 0623  
                                       l4812 0516                                         l4732 0472  
                                       l4716 0450                                         l4652 03CC  
                                       l4636 03AC                                         l4572 0328  
                                       l4548 02E2                                         l4478 0646  
                                       l4830 053B                                         l4808 0510  
                                       l4760 04AC                                         l4744 048C  
                                       l4728 046A                                         l4680 0408  
                                       l4664 03E6                                         l4648 03C6  
                                       l4584 0342                                         l4568 0320  
                                       l4842 0555                                         l4780 04D4  
                                       l4764 04B4                                         l4748 0492  
                                       l4684 040E                                         l4668 03EE  
                                       l4588 0348                                         l4792 04EE  
                                       l4776 04CE                                         l4696 0428  
                                       l4796 04F6                                         ?_isr 0070  
                                       STR_1 1005                                         STR_2 100A  
                                       STR_3 1000                                         u2325 0FA9  
                                       u2335 0FAE                                         u3307 0F29  
                                       u3317 0716                                         u3327 0722  
                                       u2455 0787                                         u3337 072E  
                                       u3347 073B                                         u2555 02E0  
                                       u3357 074A                                         u2565 02FD  
                                       u3367 0756                                         u3377 0762  
                                       u3297 025A                                         u3387 076F  
                                       _PEIE 005E                                         u3397 0F18  
                                       _TMR2 001A                                         _TMR4 0415  
                                       _TMR6 041C                                         _TMR8 0595  
                                       _WPUB 020D                                         _WPUD 020F  
                                       _WPUE 0210                                         _WPUG 048D  
                               __CFG_WRT$OFF 0000                                         _atoi 0668  
                                       _main 0254                                         fsr0h 0005  
                                       fsr1h 0007                                         indf0 0000  
                                       fsr0l 0004                                         indf1 0001  
                                       fsr1l 0006                                         btemp 007E  
                    _copy_parentalLockBuffer 00B2                                         start 0219  
                              __CFG_IESO$OFF 0000                              _TMR3_Initialize 0EE7  
                     __size_of_pinINIT_extra 0015                                        ??_isr 0073  
        applianceControl@charParentalControl 0032                    __size_of_CCP10_Initialize 000A  
                                      ?_atoi 0026                                        ?_main 0070  
                              __CFG_WDTE$OFF 0000                                        _T1CON 0018  
                                      _T2CON 001C                                        _T3CON 0413  
                                      _RC1IF 008D                                        _T4CON 0417  
                                      _T5CON 041A                                        _T6CON 041E  
                                      _T8CON 0597                                        i1l411 0215  
                                      i1l260 0054                                        i1l264 006A  
                                      i1l257 003D                                        i1l535 0F4D  
                                      _TMR10 059C                                        _TMR1H 0017  
                                      _TMR3H 0412                                        _TMR1L 0016  
                                      _TMR3L 0411                                        _TMR5H 0419  
                                      _TMR5L 0418                              _TMR4_Initialize 0EDC  
                             __CFG_FCMEN$OFF 0000                              _CCP7_Initialize 0E9F  
                            __end_of_isdigit 0F10                                        atoi@a 002B  
                                      atoi@s 002D                      __end_of_TMR1_Initialize 0EDC  
                             __CFG_BOREN$OFF 0000                                        status 0003  
                                      wtemp0 007E                        __end_of_clearAllPorts 0F46  
                        _GPIO_pin_Initialize 07D2                              _TMR5_Initialize 0EC7  
                             __CFG_MCLRE$OFF 0000                              __initialization 021B  
                    ?_copyReceivedDataBuffer 0070                                 __end_of_atoi 06D3  
                               __end_of_main 055C                              _CCP8_Initialize 0EA9  
                    __end_of_TMR2_Initialize 0EC7                               __CFG_LPBOR$OFF 0000  
                                     ??_atoi 0028                                       ??_main 0043  
                       ?_GPIO_pin_Initialize 0070    __end_of_TransmissionIndicationLedBlinking 0F32  
 __size_of_TransmissionIndicationLedBlinking 0011          ??_TransmissionIndicationLedBlinking 0020  
         ?_TransmissionIndicationLedBlinking 0070            _TransmissionIndicationLedBlinking 0F21  
                              _pinINIT_extra 0F5B                              _TMR6_Initialize 0E83  
                            _CCP9_Initialize 0EB3                                       i1S5140 0850  
                                     i1S5132 0800                                       i1S5150 08B4  
                                     i1S5142 0864                                       i1S5134 0814  
                                     i1S5152 08C8                                       i1S5144 0878  
                                     i1S5136 0828                                       i1S5146 088C  
                                     i1S5138 083C                                       i1S5148 08A0  
                                     _T10CON 059E                                       _CCPR7H 0615  
                                     _CCPR8H 0618                                       _CCPR9H 061B  
                                     _CCPR7L 0614                                       _CCPR8L 0617  
                                     _CCPR9L 061A                                       _ANSELA 018C  
                                     _ANSELB 018D                                       _ANSELD 018F  
                                     _ANSELE 0190                                       _ANSELF 040C  
                                     _ANSELG 040D                                       _T1GCON 0019  
                                     _T3GCON 0414                                       _T5GCON 041B  
                                     _RC1REG 0199                                       _RC1STA 019D  
                                     i1l3010 0073                                       i1l3100 00C6  
                                     i1l3030 0081                                       i1l3022 007B  
                                     i1l3014 0075                                       i1l3120 00D4  
                                     i1l3112 00CE                                       i1l3104 00C8  
                                     i1l3040 0085                                       i1l3210 011E  
                                     i1l3202 011A                                       i1l3034 0083  
                                     i1l3026 007F                                       i1l3018 0077  
                                     i1l3300 0162                                       i1l3132 00DE  
                                     i1l3124 00D8                                       i1l3116 00D2  
                                     i1l3108 00CC                                       i1l3060 009E  
                                     i1l3044 0089                                       i1l3310 0166  
                                     i1l3222 0124                                       i1l3214 0120  
                                     i1l3206 011C                                       i1l3142 00E4  
                                     i1l3054 008E                                       i1l3400 01B6  
                                     i1l3304 0164                                       i1l3240 0138  
                                     i1l3232 0128                                       i1l3160 00FA  
                                     i1l3152 00F6                                       i1l3144 00F2  
                                     i1l3136 00E0                                       i1l3128 00DA  
                                     i1l3080 00AC                                       i1l3072 00A6  
                                     i1l3064 00A2                                       i1l3056 009C  
                                     i1l3048 008A                                       i1l3330 017C  
                                     i1l3314 0168                                       i1l3234 0136  
                                     i1l3226 0126                                       i1l3218 0122  
                                     i1l3170 00FE                                       i1l3420 01D4  
                                     i1l3404 01BA                                       i1l3324 016C  
                                     i1l3260 0142                                       i1l3252 013E  
                                     i1l3244 013A                                       i1l3156 00F8  
                                     i1l3148 00F4                                       i1l3092 00B4  
                                     i1l3084 00AE                                       i1l3076 00A8  
                                     i1l3068 00A4                                       i1l3414 01C2  
                                     i1l3350 0186                                       i1l3342 0182  
                                     i1l3334 017E                                       i1l3326 017A  
                                     i1l3318 016A                                       i1l3190 0114  
                                     i1l3182 0104                                       i1l3174 0100  
                                     i1l3166 00FC                                       i1l3440 01E8  
                                     i1l3432 01E0                                       i1l3424 01D8  
                                     i1l3416 01D0                                       i1l3408 01BE  
                                     i1l3280 0158                                       i1l3272 0148  
                                     i1l3264 0144                                       i1l3256 0140  
                                     i1l3248 013C                                       i1l3088 00B2  
                                     i1l3370 019C                                       i1l3362 018C  
                                     i1l3354 0188                                       i1l3346 0184  
                                     i1l3338 0180                                       i1l3194 0116  
                                     i1l3178 0102                                       i1l3098 00B8  
                                     i1l3452 01F4                                       i1l3444 01EC  
                                     i1l3436 01E4                                       i1l3428 01DC  
                                     i1l3292 015E                                       i1l3284 015A  
                                     i1l3268 0146                                       i1l3188 0106  
                    __end_of_TMR3_Initialize 0EF3                                       i1l3454 01F8  
                                     i1l3382 01A6                                       i1l3374 019E  
                                     i1l3358 018A                                       i1l3278 014A  
                                     i1l3198 0118                                       i1l3462 0208  
                                     i1l2760 0F46                                       i1l3448 01F0  
                                     i1l3392 01AE                                       i1l3368 018E  
                                     i1l3296 0160                                       i1l3288 015C  
                                     i1l3458 01FA                                       i1l3386 01AA  
                                     i1l3378 01A2                                       i1l3396 01B2  
                                     i1l2962 0017                                       u140_25 0032  
                                     i1l2994 0062                                       i1l2978 0049  
                                     _TX1REG 019A                                       _TX1STA 019E  
                             __CFG_PWRTE$OFF 0000               __end_of_copyReceivedDataBuffer 07A4  
                __size_of_sendAcknowledgment 001E                                       ___wmul 0F9F  
                    __end_of_TMR4_Initialize 0EE7                      __end_of_CCP7_Initialize 0EA9  
                      ??_GPIO_pin_Initialize 0075                     _mainReceivedDataPosition 0075  
                           _applianceControl 055C                                 __pdataCOMMON 0077  
                                  ??_isdigit 0075                               ?_pinINIT_extra 0070  
                            _TMR8_Initialize 0E8C                   ??_SwitchOffStatustToGatway 0020  
                           ?_TMR1_Initialize 0070                      __end_of_TMR5_Initialize 0ED1  
                    __end_of__initialization 0250                      __end_of_CCP8_Initialize 0EB3  
                             __pcstackCOMMON 0070             __size_of_SwitchOnStatustToGatway 0034  
                  __size_of_TMR10_Initialize 0009                                 __pidataBANK0 0EF3  
                               __pidataBANK1 07A4                                 __pidataBANK2 06D3  
                           ?_TMR2_Initialize 0070                             _CCP10_Initialize 0E95  
                    __end_of_TMR6_Initialize 0E8C                      __end_of_CCP9_Initialize 0EBD  
                                 __pbssBANK0 0049                             ?_TMR3_Initialize 0070  
                            __CFG_VCAPEN$OFF 0000                           __size_of_errorsISR 0015  
                                 __pmaintext 0254                                      ?___wmul 0020  
                                 __pintentry 0004                                      _CCP10IF 00A7  
                 sendAcknowledgment@Tx_count 0021                                      _CCP7CON 0616  
                                    _CCP9CON 061C                                      _CCPR10H 061E  
                                    _CCPR10L 061D                             ?_TMR4_Initialize 0070  
                    __end_of_TMR8_Initialize 0E95                              ??_pinINIT_extra 0075  
                           ?_CCP7_Initialize 0070                                      _SP1BRGH 019C  
                                    _SP1BRGL 019B                                   __pswtext10 08A0  
                                 __pswtext11 08B4                                   __pswtext12 08C8  
                           ?_TMR5_Initialize 0070  applianceControl@currentStateBufferPositions 003F  
                           ?_CCP8_Initialize 0070             applianceControl@chDimmerSpeedLSB 0031  
           applianceControl@chDimmerSpeedMSB 0030                              __size_of___wmul 001C  
                            __CFG_STVREN$OFF 0000                             ?_TMR6_Initialize 0070  
                                 _errorsMain 0F86                                      __ptext1 0F86  
                                    __ptext2 0775                                      __ptext3 055C  
                                    __ptext4 0FBB                                      __ptext5 0668  
                                    __ptext6 0F01                                      __ptext7 0F9F  
                                    __ptext8 0FD9                                      __ptext9 0E8C  
                                  _T1CONbits 0018                             ?_CCP9_Initialize 0070  
                                  _T2CONbits 001C                                      _isdigit 0F01  
                               __size_of_isr 0215                            __end_of_errorsISR 0F5B  
       sendAcknowledgment@currentStateBuffer 0023             __end_of_SwitchOffStatustToGatway 0775  
                                    main@man 00D0                                      clrloop0 0E6F  
                       end_of_initialization 0250                                      init_ram 0E74  
                                    initloop 0E75                            _EUSART_Initialize 0F70  
                          _levelofDimmer_LSB 0077                            _levelofDimmer_MSB 0078  
                   __end_of_applianceControl 0668           applianceControl@integerSwitchState 0041  
                    _SwitchOnStatustToGatway 070D                           ?_EUSART_Initialize 0070  
                           _TMR10_Initialize 0E7A                          ??_EUSART_Initialize 0075  
                           ?_TMR8_Initialize 0070                                    _PORTBbits 000D  
                                  _PORTDbits 000F                                    _PORTEbits 0010  
                                  _PORTFbits 028C                                    _PORTGbits 028D  
     __end_of_ReceivingIndicationLedBlinking 0F21      __size_of_ReceivingIndicationLedBlinking 0011  
             _ReceivingIndicationLedBlinking 0F10                       __size_of_clearAllPorts 0014  
                                  _TRISBbits 008D                                    _TRISCbits 008E  
                                  _TRISDbits 008F                                    _TRISEbits 0090  
                                  _TRISFbits 030C                                    _TRISGbits 030D  
    SwitchOffStatustToGatway@SwitchOffNumber 0021                     __end_of_CCP10_Initialize 0E9F  
                  __end_of_EUSART_Initialize 0F86     applianceControl@switchNumberStringBuffer 0039  
                 __end_of_sendAcknowledgment 0FD9                  __end_of_GPIO_pin_Initialize 07FE  
                             __end_of___wmul 0FBB                       _mainReceivedDataBuffer 00A0  
                              __pidataCOMMON 07FE                                  ?_errorsMain 0020  
                        start_initialization 021B                                  __end_of_isr 0219  
                      applianceControl@F3734 006B                        applianceControl@F3736 0069  
                  ??_SwitchOnStatustToGatway 0020                                _clearAllPorts 0F32  
                   __size_of_TMR1_Initialize 000B      copyReceivedDataBuffer@dataBufferCounter 0021  
                                   ??___wmul 0075            __size_of_SwitchOffStatustToGatway 0034  
                  ?_SwitchOffStatustToGatway 0070                                  __pdataBANK0 005F  
                                __pdataBANK1 00A0                                  __pdataBANK2 0120  
                           _mainDataReceived 005D                                  __pbssCOMMON 0075  
                                  ___latbits 0002                                __pcstackBANK0 0020  
                              __pcstackBANK1 00CE                     __size_of_TMR2_Initialize 000A  
                               _isdigit$1120 0020                     ??_copyReceivedDataBuffer 0020  
                 __size_of_EUSART_Initialize 0016                          __size_of_errorsMain 0019  
                             ?_clearAllPorts 0070                              errorsISR@errNum 0070  
                   __size_of_TMR3_Initialize 000C                             errorsMain@errNum 0020  
            __end_of_SwitchOnStatustToGatway 0741                                    __pswtext1 08DC  
                                  __pswtext2 0800                                    __pswtext3 0814  
                                  __pswtext4 0828                                    __pswtext5 083C  
                                  __pswtext6 0850                                    __pswtext7 0864  
                                  __pswtext8 0878                                    __pswtext9 088C  
                                   _CCP10CON 061F                                     _BAUD1CON 019F  
                      __end_of_pinINIT_extra 0F70                                     ?_isdigit 0070  
                   __size_of_TMR4_Initialize 000B          applianceControl@charFinalFrameState 0033  
                   __end_of_TMR10_Initialize 0E83                                    _errorsISR 0F46  
                   __size_of_CCP7_Initialize 000A      applianceControl@dimmerSpeedStringBuffer 003B  
                             ___wmul@product 0024                                    clear_ram0 0E6E  
                                   _PIE1bits 0091                                     _PIE2bits 0092  
                                   _PIE3bits 0093                                     _PIE4bits 0094  
                          ?_applianceControl 002E                                     _PIR1bits 0011  
                                   _PIR2bits 0012                                     _PIR3bits 0013  
                                   _PIR4bits 0014                     __size_of_TMR5_Initialize 000A  
                         ??_applianceControl 0034                     __size_of_CCP8_Initialize 000A  
                          ??_TMR1_Initialize 0075                            ___wmul@multiplier 0020  
      SwitchOnStatustToGatway@SwitchOnNumber 0021                applianceControl@charSwitchLSB 002E  
              applianceControl@charSwitchMSB 0038                     __size_of_TMR6_Initialize 0009  
                                 ?_errorsISR 0070                     __size_of_CCP9_Initialize 000A  
            __size_of_copyReceivedDataBuffer 002F                            ??_TMR2_Initialize 0075  
                          ?_CCP10_Initialize 0070                              ??_clearAllPorts 0075  
           ??_ReceivingIndicationLedBlinking 0020              ?_ReceivingIndicationLedBlinking 0070  
                         ??_CCP10_Initialize 0075             _start_PWM_Generation_in_ISR_FLAG 0049  
                          _allPeripheralInit 0FD9                                 ??_errorsMain 0022  
                         _sendAcknowledgment 0FBB                            ??_TMR3_Initialize 0075  
                         ?_allPeripheralInit 0070                             __size_of_isdigit 000F  
                        ?_sendAcknowledgment 0070                                     __ptext10 0E83  
                                   __ptext11 0EC7                                     __ptext20 0E9F  
                                   __ptext12 0EDC                                     __ptext21 0E95  
                                   __ptext13 0EE7                                     __ptext30 0F46  
                                   __ptext22 0F21                                     __ptext14 0EBD  
                                   __ptext23 070D                                     __ptext15 0ED1  
                                   __ptext24 0741                                     __ptext16 0E7A  
                                   __ptext25 0F10                                     __ptext17 0F70  
                                   __ptext26 07D2                                     __ptext18 0EB3  
                                   __ptext27 0F5B                                     __ptext19 0EA9  
                                   __ptext28 0F32                     __size_of_TMR8_Initialize 0009  
                        ??_allPeripheralInit 0075              applianceControl@charSwitchSTATE 002F  
                      main@dataBufferCounter 00CE                            ??_TMR4_Initialize 0075  
                              __size_of_atoi 006B                                __size_of_main 0308  
                         __end_of_errorsMain 0F9F                            ??_CCP7_Initialize 0075  
                         _currentStateBuffer 0120                                   _RC1STAbits 019D  
                       ??_sendAcknowledgment 0020                    __end_of_allPeripheralInit 1000  
                                   int$flags 007E                                     atoi@sign 002A  
                     _copyReceivedDataBuffer 0775                            ??_TMR5_Initialize 0075  
                     _tempReceivedDataBuffer 005F                 __size_of_GPIO_pin_Initialize 002C  
                          ??_CCP8_Initialize 0075                                     isdigit@c 0021  
                                ??_errorsISR 0072                                     intlevel1 0000  
                          ??_TMR6_Initialize 0075                            __CFG_CLKOUTEN$OFF 0000  
        applianceControl@integerSwitchNumber 003D                            ??_CCP9_Initialize 0075  
                         _parentalLockBuffer 00C0                                __pstringtext1 1000  
                              __pstringtext2 1005                                __pstringtext3 100A  
                              __pstringtext4 0000                                   _TX1STAbits 019E  
                          ?_TMR10_Initialize 0070                     ?_SwitchOnStatustToGatway 0070  
                         ??_TMR10_Initialize 0075                            ??_TMR8_Initialize 0075  
                            _TMR1_Initialize 0ED1                     _SwitchOffStatustToGatway 0741  
