

Microchip Technology PIC LITE Macro Assembler V1.45 build -152302408 
                                                                                               Wed Jan 30 16:53:26 2019

Microchip Technology Omniscient Code Generator v1.45 (Free mode) build 201711160504
     1                           	processor	16F1526
     2                           	opt	pw 120
     3                           	opt	lm
     4                           	psect	idataCOMMON,global,class=CODE,delta=2
     5                           	psect	idataBANK0,global,class=CODE,delta=2
     6                           	psect	idataBANK1,global,class=CODE,delta=2
     7                           	psect	idataBANK2,global,class=CODE,delta=2
     8                           	psect	stringtext1,global,class=STRCODE,delta=2
     9                           	psect	stringtext2,global,class=STRCODE,delta=2
    10                           	psect	stringtext3,global,class=STRCODE,delta=2
    11                           	psect	stringtext4,global,class=STRCODE,delta=2
    12                           	psect	cinit,global,class=CODE,merge=1,delta=2
    13                           	psect	bssCOMMON,global,class=COMMON,space=1,delta=1
    14                           	psect	dataCOMMON,global,class=COMMON,space=1,delta=1
    15                           	psect	bssBANK0,global,class=BANK0,space=1,delta=1
    16                           	psect	dataBANK0,global,class=BANK0,space=1,delta=1
    17                           	psect	dataBANK1,global,class=BANK1,space=1,delta=1
    18                           	psect	dataBANK2,global,class=BANK2,space=1,delta=1
    19                           	psect	inittext,global,class=CODE,delta=2
    20                           	psect	clrtext,global,class=CODE,delta=2
    21                           	psect	cstackBANK1,global,class=BANK1,space=1,delta=1
    22                           	psect	cstackCOMMON,global,class=COMMON,space=1,delta=1
    23                           	psect	cstackBANK0,global,class=BANK0,space=1,delta=1
    24                           	psect	maintext,global,class=CODE,merge=1,split=1,delta=2
    25                           	psect	text1,local,class=CODE,merge=1,delta=2
    26                           	psect	text2,local,class=CODE,merge=1,delta=2
    27                           	psect	text3,local,class=CODE,merge=1,delta=2
    28                           	psect	swtext1,local,class=CONST,delta=2
    29                           	psect	text4,local,class=CODE,merge=1,delta=2
    30                           	psect	text5,local,class=CODE,merge=1,delta=2,group=1
    31                           	psect	text6,local,class=CODE,merge=1,delta=2,group=1
    32                           	psect	text7,local,class=CODE,merge=1,delta=2,group=1
    33                           	psect	text8,local,class=CODE,merge=1,delta=2
    34                           	psect	text9,local,class=CODE,merge=1,delta=2
    35                           	psect	text10,local,class=CODE,merge=1,delta=2
    36                           	psect	text11,local,class=CODE,merge=1,delta=2
    37                           	psect	text12,local,class=CODE,merge=1,delta=2
    38                           	psect	text13,local,class=CODE,merge=1,delta=2
    39                           	psect	text14,local,class=CODE,merge=1,delta=2
    40                           	psect	text15,local,class=CODE,merge=1,delta=2
    41                           	psect	text16,local,class=CODE,merge=1,delta=2
    42                           	psect	text17,local,class=CODE,merge=1,delta=2
    43                           	psect	text18,local,class=CODE,merge=1,delta=2
    44                           	psect	text19,local,class=CODE,merge=1,delta=2
    45                           	psect	intentry,global,class=CODE,delta=2
    46                           	psect	swtext2,local,class=CONST,delta=2
    47                           	psect	swtext3,local,class=CONST,delta=2
    48                           	psect	swtext4,local,class=CONST,delta=2
    49                           	psect	swtext5,local,class=CONST,delta=2
    50                           	psect	swtext6,local,class=CONST,delta=2
    51                           	psect	swtext7,local,class=CONST,delta=2
    52                           	psect	swtext8,local,class=CONST,delta=2
    53                           	psect	swtext9,local,class=CONST,delta=2
    54                           	psect	swtext10,local,class=CONST,delta=2
    55                           	psect	swtext11,local,class=CONST,delta=2
    56                           	psect	swtext12,local,class=CONST,delta=2
    57                           	psect	text21,local,class=CODE,merge=1,delta=2
    58                           	dabs	1,0x7E,2
    59  0000                     
    60                           ; Version 1.45
    61                           ; Generated 16/11/2017 GMT
    62                           ; 
    63                           ; Copyright © 2017, Microchip Technology Inc. and its subsidiaries ("Microchip")
    64                           ; All rights reserved.
    65                           ; 
    66                           ; This software is developed by Microchip Technology Inc. and its subsidiaries ("Microch
      +                          ip").
    67                           ; 
    68                           ; Redistribution and use in source and binary forms, with or without modification, are
    69                           ; permitted provided that the following conditions are met:
    70                           ; 
    71                           ;     1. Redistributions of source code must retain the above copyright notice, this lis
      +                          t of
    72                           ;        conditions and the following disclaimer.
    73                           ; 
    74                           ;     2. Redistributions in binary form must reproduce the above copyright notice, this 
      +                          list
    75                           ;        of conditions and the following disclaimer in the documentation and/or other
    76                           ;        materials provided with the distribution.
    77                           ; 
    78                           ;     3. Microchip's name may not be used to endorse or promote products derived from th
      +                          is
    79                           ;        software without specific prior written permission.
    80                           ; 
    81                           ; THIS SOFTWARE IS PROVIDED BY MICROCHIP "AS IS" AND ANY EXPRESS OR IMPLIED WARRANTIES,
    82                           ; INCLUDING, BUT NOT LIMITED TO, THE IMPLIED WARRANTIES OF MERCHANTABILITY AND FITNESS F
      +                          OR
    83                           ; PURPOSE ARE DISCLAIMED.  IN NO EVENT SHALL MICROCHIP BE LIABLE FOR ANY DIRECT, INDIREC
      +                          T,
    84                           ; INCIDENTAL, SPECIAL, EXEMPLARY, OR CONSEQUENTIAL DAMAGES (INCLUDING BUT NOT LIMITED TO
    85                           ; PROCUREMENT OF SUBSTITUTE GOODS OR SERVICES; LOSS OF USE, DATA OR PROFITS; OR BUSINESS
    86                           ; INTERRUPTION) HOWSOEVER CAUSED AND ON ANY THEORY OF LIABILITY, WHETHER IN CONTRACT, ST
      +                          RICT
    87                           ; LIABILITY, OR TORT (INCLUDING NEGLIGENCE OR OTHERWISE) ARISING IN ANY WAY OUT OF THE U
      +                          SE OF
    88                           ; THIS SOFTWARE, EVEN IF ADVISED OF THE POSSIBILITY OF SUCH DAMAGE.
    89                           ; 
    90                           ; 
    91                           ; Code-generator required, PIC16F1526 Definitions
    92                           ; 
    93                           ; SFR Addresses
    94  0000                     	;# 
    95  0001                     	;# 
    96  0002                     	;# 
    97  0003                     	;# 
    98  0004                     	;# 
    99  0005                     	;# 
   100  0006                     	;# 
   101  0007                     	;# 
   102  0008                     	;# 
   103  0009                     	;# 
   104  000A                     	;# 
   105  000B                     	;# 
   106  000C                     	;# 
   107  000D                     	;# 
   108  000E                     	;# 
   109  000F                     	;# 
   110  0010                     	;# 
   111  0011                     	;# 
   112  0012                     	;# 
   113  0013                     	;# 
   114  0014                     	;# 
   115  0015                     	;# 
   116  0016                     	;# 
   117  0016                     	;# 
   118  0017                     	;# 
   119  0018                     	;# 
   120  0019                     	;# 
   121  001A                     	;# 
   122  001B                     	;# 
   123  001C                     	;# 
   124  008C                     	;# 
   125  008D                     	;# 
   126  008E                     	;# 
   127  008F                     	;# 
   128  0090                     	;# 
   129  0091                     	;# 
   130  0092                     	;# 
   131  0093                     	;# 
   132  0094                     	;# 
   133  0095                     	;# 
   134  0096                     	;# 
   135  0097                     	;# 
   136  0099                     	;# 
   137  009A                     	;# 
   138  009B                     	;# 
   139  009B                     	;# 
   140  009C                     	;# 
   141  009D                     	;# 
   142  009E                     	;# 
   143  010C                     	;# 
   144  010D                     	;# 
   145  010E                     	;# 
   146  010F                     	;# 
   147  0110                     	;# 
   148  0116                     	;# 
   149  0117                     	;# 
   150  011D                     	;# 
   151  018C                     	;# 
   152  018D                     	;# 
   153  018F                     	;# 
   154  0190                     	;# 
   155  0191                     	;# 
   156  0191                     	;# 
   157  0192                     	;# 
   158  0193                     	;# 
   159  0193                     	;# 
   160  0194                     	;# 
   161  0195                     	;# 
   162  0196                     	;# 
   163  0197                     	;# 
   164  0199                     	;# 
   165  0199                     	;# 
   166  0199                     	;# 
   167  019A                     	;# 
   168  019A                     	;# 
   169  019A                     	;# 
   170  019B                     	;# 
   171  019B                     	;# 
   172  019B                     	;# 
   173  019B                     	;# 
   174  019B                     	;# 
   175  019C                     	;# 
   176  019C                     	;# 
   177  019C                     	;# 
   178  019D                     	;# 
   179  019D                     	;# 
   180  019D                     	;# 
   181  019E                     	;# 
   182  019E                     	;# 
   183  019E                     	;# 
   184  019F                     	;# 
   185  019F                     	;# 
   186  019F                     	;# 
   187  020D                     	;# 
   188  020F                     	;# 
   189  0210                     	;# 
   190  0211                     	;# 
   191  0211                     	;# 
   192  0212                     	;# 
   193  0212                     	;# 
   194  0213                     	;# 
   195  0213                     	;# 
   196  0214                     	;# 
   197  0214                     	;# 
   198  0215                     	;# 
   199  0215                     	;# 
   200  0215                     	;# 
   201  0216                     	;# 
   202  0216                     	;# 
   203  0217                     	;# 
   204  0217                     	;# 
   205  0219                     	;# 
   206  021A                     	;# 
   207  021B                     	;# 
   208  021C                     	;# 
   209  021D                     	;# 
   210  021E                     	;# 
   211  021F                     	;# 
   212  028C                     	;# 
   213  028D                     	;# 
   214  0291                     	;# 
   215  0291                     	;# 
   216  0292                     	;# 
   217  0293                     	;# 
   218  0298                     	;# 
   219  0298                     	;# 
   220  0299                     	;# 
   221  029A                     	;# 
   222  029D                     	;# 
   223  029E                     	;# 
   224  029F                     	;# 
   225  030C                     	;# 
   226  030D                     	;# 
   227  0311                     	;# 
   228  0311                     	;# 
   229  0312                     	;# 
   230  0313                     	;# 
   231  0318                     	;# 
   232  0318                     	;# 
   233  0319                     	;# 
   234  031A                     	;# 
   235  031C                     	;# 
   236  031C                     	;# 
   237  031D                     	;# 
   238  031E                     	;# 
   239  038C                     	;# 
   240  038D                     	;# 
   241  0394                     	;# 
   242  0395                     	;# 
   243  0396                     	;# 
   244  040C                     	;# 
   245  040D                     	;# 
   246  0411                     	;# 
   247  0411                     	;# 
   248  0412                     	;# 
   249  0413                     	;# 
   250  0414                     	;# 
   251  0415                     	;# 
   252  0416                     	;# 
   253  0417                     	;# 
   254  0418                     	;# 
   255  0418                     	;# 
   256  0419                     	;# 
   257  041A                     	;# 
   258  041B                     	;# 
   259  041C                     	;# 
   260  041D                     	;# 
   261  041E                     	;# 
   262  048D                     	;# 
   263  0491                     	;# 
   264  0491                     	;# 
   265  0492                     	;# 
   266  0492                     	;# 
   267  0493                     	;# 
   268  0493                     	;# 
   269  0493                     	;# 
   270  0494                     	;# 
   271  0494                     	;# 
   272  0495                     	;# 
   273  0495                     	;# 
   274  0496                     	;# 
   275  0496                     	;# 
   276  0497                     	;# 
   277  0497                     	;# 
   278  0595                     	;# 
   279  0596                     	;# 
   280  0597                     	;# 
   281  059C                     	;# 
   282  059D                     	;# 
   283  059E                     	;# 
   284  0611                     	;# 
   285  0611                     	;# 
   286  0612                     	;# 
   287  0613                     	;# 
   288  0614                     	;# 
   289  0614                     	;# 
   290  0615                     	;# 
   291  0616                     	;# 
   292  0617                     	;# 
   293  0617                     	;# 
   294  0618                     	;# 
   295  0619                     	;# 
   296  061A                     	;# 
   297  061A                     	;# 
   298  061B                     	;# 
   299  061C                     	;# 
   300  061D                     	;# 
   301  061D                     	;# 
   302  061E                     	;# 
   303  061F                     	;# 
   304  0FE4                     	;# 
   305  0FE5                     	;# 
   306  0FE6                     	;# 
   307  0FE7                     	;# 
   308  0FE8                     	;# 
   309  0FE9                     	;# 
   310  0FEA                     	;# 
   311  0FEB                     	;# 
   312  0FED                     	;# 
   313  0FEE                     	;# 
   314  0FEF                     	;# 
   315                           
   316                           	psect	idataCOMMON
   317  0002                     __pidataCOMMON:	
   318                           
   319                           ;initializer for _levelofDimmer_LSB
   320  0002  3430               	retlw	48
   321                           
   322                           ;initializer for _levelofDimmer_MSB
   323  0003  3430               	retlw	48
   324                           
   325                           	psect	idataBANK0
   326  0F1F                     __pidataBANK0:	
   327                           
   328                           ;initializer for _tempReceivedDataBuffer
   329  0F1F  3423               	retlw	35
   330  0F20  3400               	retlw	0
   331  0F21  3400               	retlw	0
   332  0F22  3400               	retlw	0
   333  0F23  3400               	retlw	0
   334  0F24  3400               	retlw	0
   335  0F25  3400               	retlw	0
   336  0F26  3400               	retlw	0
   337  0F27  3400               	retlw	0
   338  0F28  3400               	retlw	0
   339                           
   340                           ;initializer for applianceControl@F3727
   341  0F29  3423               	retlw	35
   342  0F2A  3400               	retlw	0
   343                           
   344                           ;initializer for applianceControl@F3725
   345  0F2B  3423               	retlw	35
   346  0F2C  3400               	retlw	0
   347                           
   348                           	psect	idataBANK1
   349  07A0                     __pidataBANK1:	
   350                           
   351                           ;initializer for _mainReceivedDataBuffer
   352  07A0  3423               	retlw	35
   353  07A1  3400               	retlw	0
   354  07A2  3400               	retlw	0
   355  07A3  3400               	retlw	0
   356  07A4  3400               	retlw	0
   357  07A5  3400               	retlw	0
   358  07A6  3400               	retlw	0
   359  07A7  3400               	retlw	0
   360  07A8  3400               	retlw	0
   361  07A9  3400               	retlw	0
   362  07AA  3400               	retlw	0
   363  07AB  3400               	retlw	0
   364  07AC  3400               	retlw	0
   365  07AD  3400               	retlw	0
   366  07AE  3400               	retlw	0
   367  07AF  3400               	retlw	0
   368  07B0  3400               	retlw	0
   369  07B1  3400               	retlw	0
   370                           
   371                           ;initializer for _copy_parentalLockBuffer
   372  07B2  3430               	retlw	48
   373  07B3  3430               	retlw	48
   374  07B4  3430               	retlw	48
   375  07B5  3430               	retlw	48
   376  07B6  3430               	retlw	48
   377  07B7  3430               	retlw	48
   378  07B8  3430               	retlw	48
   379  07B9  3430               	retlw	48
   380  07BA  3430               	retlw	48
   381  07BB  3430               	retlw	48
   382  07BC  3430               	retlw	48
   383  07BD  3430               	retlw	48
   384  07BE  3400               	retlw	0
   385  07BF  3400               	retlw	0
   386                           
   387                           ;initializer for _parentalLockBuffer
   388  07C0  3430               	retlw	48
   389  07C1  3430               	retlw	48
   390  07C2  3430               	retlw	48
   391  07C3  3430               	retlw	48
   392  07C4  3430               	retlw	48
   393  07C5  3430               	retlw	48
   394  07C6  3430               	retlw	48
   395  07C7  3430               	retlw	48
   396  07C8  3430               	retlw	48
   397  07C9  3430               	retlw	48
   398  07CA  3430               	retlw	48
   399  07CB  3430               	retlw	48
   400  07CC  3400               	retlw	0
   401  07CD  3400               	retlw	0
   402                           
   403                           	psect	idataBANK2
   404  06CF                     __pidataBANK2:	
   405                           
   406                           ;initializer for _currentStateBuffer
   407  06CF  3423               	retlw	35
   408  06D0  3400               	retlw	0
   409  06D1  3400               	retlw	0
   410  06D2  3400               	retlw	0
   411  06D3  3400               	retlw	0
   412  06D4  3400               	retlw	0
   413  06D5  3400               	retlw	0
   414  06D6  3400               	retlw	0
   415  06D7  3400               	retlw	0
   416  06D8  3400               	retlw	0
   417  06D9  3400               	retlw	0
   418  06DA  3400               	retlw	0
   419  06DB  3400               	retlw	0
   420  06DC  3400               	retlw	0
   421  06DD  3400               	retlw	0
   422  06DE  3400               	retlw	0
   423  06DF  3400               	retlw	0
   424  06E0  3400               	retlw	0
   425  06E1  3400               	retlw	0
   426  06E2  3400               	retlw	0
   427  06E3  3400               	retlw	0
   428  06E4  3400               	retlw	0
   429  06E5  3400               	retlw	0
   430  06E6  3400               	retlw	0
   431  06E7  3400               	retlw	0
   432  06E8  3400               	retlw	0
   433  06E9  3400               	retlw	0
   434  06EA  3400               	retlw	0
   435  06EB  3400               	retlw	0
   436  06EC  3400               	retlw	0
   437  06ED  3400               	retlw	0
   438  06EE  3400               	retlw	0
   439  06EF  3400               	retlw	0
   440  06F0  3400               	retlw	0
   441  06F1  3400               	retlw	0
   442  06F2  3400               	retlw	0
   443  06F3  3400               	retlw	0
   444  06F4  3400               	retlw	0
   445  06F5  3400               	retlw	0
   446  06F6  3400               	retlw	0
   447  06F7  3400               	retlw	0
   448  06F8  3400               	retlw	0
   449  06F9  3400               	retlw	0
   450  06FA  3400               	retlw	0
   451  06FB  3400               	retlw	0
   452  06FC  3400               	retlw	0
   453  06FD  3400               	retlw	0
   454  06FE  3400               	retlw	0
   455  06FF  3400               	retlw	0
   456  0700  3400               	retlw	0
   457  0701  3400               	retlw	0
   458  0702  3400               	retlw	0
   459  0703  3400               	retlw	0
   460  0704  3400               	retlw	0
   461  0705  3400               	retlw	0
   462  0706  3400               	retlw	0
   463  0707  3400               	retlw	0
   464  0708  3400               	retlw	0
   465  0014                     _PIR4bits	set	20
   466  0019                     _T1GCON	set	25
   467  0018                     _T1CON	set	24
   468  000D                     _PORTBbits	set	13
   469  0010                     _PORTEbits	set	16
   470  000F                     _PORTDbits	set	15
   471  0016                     _TMR1L	set	22
   472  0017                     _TMR1H	set	23
   473  0018                     _T1CONbits	set	24
   474  0011                     _PIR1bits	set	17
   475  0013                     _PIR3bits	set	19
   476  005E                     _PEIE	set	94
   477  005F                     _GIE	set	95
   478  00A6                     _CCP9IF	set	166
   479  008D                     _RC1IF	set	141
   480  0094                     _PIE4bits	set	148
   481  008E                     _TRISCbits	set	142
   482  0090                     _TRISEbits	set	144
   483  008D                     _TRISBbits	set	141
   484  008F                     _TRISDbits	set	143
   485  0091                     _PIE1bits	set	145
   486  0093                     _PIE3bits	set	147
   487  018C                     _ANSELA	set	396
   488  018D                     _ANSELB	set	397
   489  018F                     _ANSELD	set	399
   490  0190                     _ANSELE	set	400
   491  019A                     _TX1REG	set	410
   492  019E                     _TX1STAbits	set	414
   493  019C                     _SP1BRGH	set	412
   494  019B                     _SP1BRGL	set	411
   495  019E                     _TX1STA	set	414
   496  019D                     _RC1STA	set	413
   497  019F                     _BAUD1CON	set	415
   498  0199                     _RC1REG	set	409
   499  019D                     _RC1STAbits	set	413
   500  020D                     _WPUB	set	525
   501  020F                     _WPUD	set	527
   502  0210                     _WPUE	set	528
   503  028D                     _PORTGbits	set	653
   504  028C                     _PORTFbits	set	652
   505  030C                     _TRISFbits	set	780
   506  030D                     _TRISGbits	set	781
   507  040C                     _ANSELF	set	1036
   508  040D                     _ANSELG	set	1037
   509  0414                     _T3GCON	set	1044
   510  0413                     _T3CON	set	1043
   511  0411                     _TMR3L	set	1041
   512  0412                     _TMR3H	set	1042
   513  0413                     _T3CONbits	set	1043
   514  048D                     _WPUG	set	1165
   515  061A                     _CCPR9L	set	1562
   516  061B                     _CCPR9H	set	1563
   517  061C                     _CCP9CON	set	1564
   518                           
   519                           	psect	stringtext1
   520  1000                     __pstringtext1:	
   521  1000                     STR_3:	
   522  1000  3445               	retlw	69	;'E'
   523  1001  3452               	retlw	82	;'R'
   524  1002  344C               	retlw	76	;'L'
   525  1003  3453               	retlw	83	;'S'
   526  1004  3400               	retlw	0
   527                           
   528                           	psect	stringtext2
   529  1005                     __pstringtext2:	
   530  1005                     STR_1:	
   531  1005  3445               	retlw	69	;'E'
   532  1006  3452               	retlw	82	;'R'
   533  1007  344F               	retlw	79	;'O'
   534  1008  3456               	retlw	86	;'V'
   535  1009  3400               	retlw	0
   536                           
   537                           	psect	stringtext3
   538  100A                     __pstringtext3:	
   539  100A                     STR_2:	
   540  100A  3445               	retlw	69	;'E'
   541  100B  3452               	retlw	82	;'R'
   542  100C  3452               	retlw	82	;'R'
   543  100D  3458               	retlw	88	;'X'
   544  100E  3400               	retlw	0
   545                           
   546                           	psect	stringtext4
   547  0000                     __pstringtext4:	
   548                           
   549                           ; #config settings
   550  0000                     
   551                           	psect	cinit
   552  0217                     start_initialization:	
   553  0217                     __initialization:	
   554                           
   555                           ; Initialize objects allocated to COMMON
   556  0217  3180  2002  3182   	fcall	__pidataCOMMON	;fetch initializer
   557  021A  00F7               	movwf	__pdataCOMMON& (0+127)
   558  021B  3180  2003  3182   	fcall	__pidataCOMMON+1	;fetch initializer
   559  021E  00F8               	movwf	(__pdataCOMMON+1)& (0+127)
   560                           
   561                           ; Initialize objects allocated to BANK0
   562  021F  301F               	movlw	low __pidataBANK0
   563  0220  0084               	movwf	4
   564  0221  308F               	movlw	(high __pidataBANK0)| (0+128)
   565  0222  0085               	movwf	5
   566  0223  305F               	movlw	low __pdataBANK0
   567  0224  0086               	movwf	6
   568  0225  3000               	movlw	high __pdataBANK0
   569  0226  0087               	movwf	7
   570  0227  300E               	movlw	14
   571  0228  318E  26F8  3182   	fcall	init_ram
   572                           
   573                           ; Initialize objects allocated to BANK1
   574  022B  30A0               	movlw	low __pidataBANK1
   575  022C  0084               	movwf	4
   576  022D  3087               	movlw	(high __pidataBANK1)| (0+128)
   577  022E  0085               	movwf	5
   578  022F  30A0               	movlw	low __pdataBANK1
   579  0230  0086               	movwf	6
   580  0231  3000               	movlw	high __pdataBANK1
   581  0232  0087               	movwf	7
   582  0233  302E               	movlw	46
   583  0234  318E  26F8  3182   	fcall	init_ram
   584                           
   585                           ; Initialize objects allocated to BANK2
   586  0237  30CF               	movlw	low __pidataBANK2
   587  0238  0084               	movwf	4
   588  0239  3086               	movlw	(high __pidataBANK2)| (0+128)
   589  023A  0085               	movwf	5
   590  023B  3020               	movlw	low __pdataBANK2
   591  023C  0086               	movwf	6
   592  023D  3001               	movlw	high __pdataBANK2
   593  023E  0087               	movwf	7
   594  023F  303A               	movlw	58
   595  0240  318E  26F8  3182   	fcall	init_ram
   596                           
   597                           ; Clear objects allocated to COMMON
   598  0243  01F5               	clrf	__pbssCOMMON& (0+127)
   599  0244  01F6               	clrf	(__pbssCOMMON+1)& (0+127)
   600                           
   601                           ; Clear objects allocated to BANK0
   602  0245  3049               	movlw	low __pbssBANK0
   603  0246  0084               	movwf	4
   604  0247  3000               	movlw	high __pbssBANK0
   605  0248  0085               	movwf	5
   606  0249  3016               	movlw	22
   607  024A  318E  26F2         	fcall	clear_ram0
   608  024C                     end_of_initialization:	
   609                           ;End of C runtime variable initialization code
   610                           
   611  024C                     __end_of__initialization:	
   612  024C  107E               	bcf	int$flags,0	;clear compiler interrupt flag (level 1)
   613  024D  0020               	movlb	0
   614  024E  3182  2A50         	ljmp	_main	;jump to C main() function
   615                           
   616                           	psect	bssCOMMON
   617  0075                     __pbssCOMMON:	
   618  0075                     _mainReceivedDataPosition:	
   619  0075                     	ds	2
   620                           
   621                           	psect	dataCOMMON
   622  0077                     __pdataCOMMON:	
   623  0077                     _levelofDimmer_LSB:	
   624  0077                     	ds	1
   625  0078                     _levelofDimmer_MSB:	
   626  0078                     	ds	1
   627                           
   628                           	psect	bssBANK0
   629  0049                     __pbssBANK0:	
   630  0049                     _start_PWM_Generation_in_ISR_FLAG:	
   631  0049                     	ds	2
   632  004B                     _M9:	
   633  004B                     	ds	2
   634  004D                     _M8:	
   635  004D                     	ds	2
   636  004F                     _M7:	
   637  004F                     	ds	2
   638  0051                     _M6:	
   639  0051                     	ds	2
   640  0053                     _M5:	
   641  0053                     	ds	2
   642  0055                     _M4:	
   643  0055                     	ds	2
   644  0057                     _M3:	
   645  0057                     	ds	2
   646  0059                     _M2:	
   647  0059                     	ds	2
   648  005B                     _M1:	
   649  005B                     	ds	2
   650  005D                     _mainDataReceived:	
   651  005D                     	ds	2
   652                           
   653                           	psect	dataBANK0
   654  005F                     __pdataBANK0:	
   655  005F                     _tempReceivedDataBuffer:	
   656  005F                     	ds	10
   657  0069                     applianceControl@F3727:	
   658  0069                     	ds	2
   659  006B                     applianceControl@F3725:	
   660  006B                     	ds	2
   661                           
   662                           	psect	dataBANK1
   663  00A0                     __pdataBANK1:	
   664  00A0                     _mainReceivedDataBuffer:	
   665  00A0                     	ds	18
   666  00B2                     _copy_parentalLockBuffer:	
   667  00B2                     	ds	14
   668  00C0                     _parentalLockBuffer:	
   669  00C0                     	ds	14
   670                           
   671                           	psect	dataBANK2
   672  0120                     __pdataBANK2:	
   673  0120                     _currentStateBuffer:	
   674  0120                     	ds	58
   675                           
   676                           	psect	inittext
   677  0EF8                     init_ram:	
   678  0EF8  00FE               	movwf	126
   679  0EF9                     initloop:	
   680  0EF9  0012               	moviw fsr0++
   681  0EFA  001E               	movwi fsr1++
   682  0EFB  0BFE               	decfsz	126,f
   683  0EFC  2EF9               	goto	initloop
   684  0EFD  3400               	retlw	0
   685                           
   686                           	psect	clrtext
   687  0EF2                     clear_ram0:	
   688                           ;	Called with FSR0 containing the base address, and
   689                           ;	WREG with the size to clear
   690                           
   691  0EF2  0064               	clrwdt	;clear the watchdog before getting into this loop
   692  0EF3                     clrloop0:	
   693  0EF3  0180               	clrf	0	;clear RAM location pointed to by FSR
   694  0EF4  3101               	addfsr 0,1
   695  0EF5  0B89               	decfsz	9,f	;Have we reached the end of clearing yet?
   696  0EF6  2EF3               	goto	clrloop0	;have we reached the end yet?
   697  0EF7  3400               	retlw	0	;all done for this memory range, return
   698                           
   699                           	psect	cstackBANK1
   700  00CE                     __pcstackBANK1:	
   701  00CE                     main@dataBufferCounter:	
   702                           
   703                           ; 2 bytes @ 0x0
   704  00CE                     	ds	2
   705  00D0                     main@man:	
   706                           
   707                           ; 2 bytes @ 0x2
   708  00D0                     	ds	2
   709                           
   710                           	psect	cstackCOMMON
   711  0070                     __pcstackCOMMON:	
   712  0070                     ?_isdigit:	
   713  0070                     ?_errorsISR:	
   714                           ; 1 bit 
   715                           
   716  0070                     ?_GPIO_pin_Initialize:	
   717                           ; 1 bytes @ 0x0
   718                           
   719  0070                     ?_allPeripheralInit:	
   720                           ; 1 bytes @ 0x0
   721                           
   722  0070                     ?_ReceivingIndicationLedBlinking:	
   723                           ; 1 bytes @ 0x0
   724                           
   725  0070                     ?_copyReceivedDataBuffer:	
   726                           ; 1 bytes @ 0x0
   727                           
   728  0070                     ?_SwitchOnStatustToGatway:	
   729                           ; 1 bytes @ 0x0
   730                           
   731  0070                     ?_TransmissionIndicationLedBlinking:	
   732                           ; 1 bytes @ 0x0
   733                           
   734  0070                     ?_SwitchOffStatustToGatway:	
   735                           ; 1 bytes @ 0x0
   736                           
   737  0070                     ?_sendAcknowledgment:	
   738                           ; 1 bytes @ 0x0
   739                           
   740  0070                     ?_clearAllPorts:	
   741                           ; 1 bytes @ 0x0
   742                           
   743  0070                     ?_pinINIT_extra:	
   744                           ; 1 bytes @ 0x0
   745                           
   746  0070                     ?_EUSART_Initialize:	
   747                           ; 1 bytes @ 0x0
   748                           
   749  0070                     ?_TMR1_Initialize:	
   750                           ; 1 bytes @ 0x0
   751                           
   752  0070                     ?_TMR3_Initialize:	
   753                           ; 1 bytes @ 0x0
   754                           
   755  0070                     ?_CCP9_Initialize:	
   756                           ; 1 bytes @ 0x0
   757                           
   758  0070                     ?_isr:	
   759                           ; 1 bytes @ 0x0
   760                           
   761  0070                     ?_main:	
   762                           ; 1 bytes @ 0x0
   763                           
   764  0070                     errorsISR@errNum:	
   765                           ; 2 bytes @ 0x0
   766                           
   767                           
   768                           ; 2 bytes @ 0x0
   769  0070                     	ds	2
   770  0072                     ??_errorsISR:	
   771                           
   772                           ; 1 bytes @ 0x2
   773  0072                     	ds	1
   774  0073                     ??_isr:	
   775                           
   776                           ; 1 bytes @ 0x3
   777  0073                     	ds	2
   778  0075                     ??_GPIO_pin_Initialize:	
   779  0075                     ??_allPeripheralInit:	
   780                           ; 1 bytes @ 0x5
   781                           
   782  0075                     ??_clearAllPorts:	
   783                           ; 1 bytes @ 0x5
   784                           
   785  0075                     ??_pinINIT_extra:	
   786                           ; 1 bytes @ 0x5
   787                           
   788  0075                     ??_EUSART_Initialize:	
   789                           ; 1 bytes @ 0x5
   790                           
   791  0075                     ??_TMR1_Initialize:	
   792                           ; 1 bytes @ 0x5
   793                           
   794  0075                     ??_TMR3_Initialize:	
   795                           ; 1 bytes @ 0x5
   796                           
   797  0075                     ??_CCP9_Initialize:	
   798                           ; 1 bytes @ 0x5
   799                           
   800  0075                     ??_isdigit:	
   801                           ; 1 bytes @ 0x5
   802                           
   803  0075                     ??___wmul:	
   804                           ; 1 bytes @ 0x5
   805                           
   806                           
   807                           	psect	cstackBANK0
   808  0020                     __pcstackBANK0:	
   809                           ; 1 bytes @ 0x5
   810                           
   811  0020                     ??_ReceivingIndicationLedBlinking:	
   812  0020                     ??_copyReceivedDataBuffer:	
   813                           ; 1 bytes @ 0x0
   814                           
   815  0020                     ?_errorsMain:	
   816                           ; 1 bytes @ 0x0
   817                           
   818  0020                     ??_SwitchOnStatustToGatway:	
   819                           ; 1 bytes @ 0x0
   820                           
   821  0020                     ??_TransmissionIndicationLedBlinking:	
   822                           ; 1 bytes @ 0x0
   823                           
   824  0020                     ??_SwitchOffStatustToGatway:	
   825                           ; 1 bytes @ 0x0
   826                           
   827  0020                     ??_sendAcknowledgment:	
   828                           ; 1 bytes @ 0x0
   829                           
   830  0020                     ?___wmul:	
   831                           ; 1 bytes @ 0x0
   832                           
   833  0020                     _isdigit$987:	
   834                           ; 2 bytes @ 0x0
   835                           
   836  0020                     errorsMain@errNum:	
   837                           ; 1 bytes @ 0x0
   838                           
   839  0020                     ___wmul@multiplier:	
   840                           ; 2 bytes @ 0x0
   841                           
   842                           
   843                           ; 2 bytes @ 0x0
   844  0020                     	ds	1
   845  0021                     SwitchOffStatustToGatway@SwitchOffNumber:	
   846  0021                     SwitchOnStatustToGatway@SwitchOnNumber:	
   847                           ; 1 bytes @ 0x1
   848                           
   849  0021                     isdigit@c:	
   850                           ; 1 bytes @ 0x1
   851                           
   852  0021                     sendAcknowledgment@Tx_count:	
   853                           ; 1 bytes @ 0x1
   854                           
   855  0021                     copyReceivedDataBuffer@dataBufferCounter:	
   856                           ; 2 bytes @ 0x1
   857                           
   858                           
   859                           ; 2 bytes @ 0x1
   860  0021                     	ds	1
   861  0022                     ??_errorsMain:	
   862  0022                     ___wmul@multiplicand:	
   863                           ; 1 bytes @ 0x2
   864                           
   865                           
   866                           ; 2 bytes @ 0x2
   867  0022                     	ds	1
   868  0023                     sendAcknowledgment@currentStateBuffer:	
   869                           
   870                           ; 1 bytes @ 0x3
   871  0023                     	ds	1
   872  0024                     ___wmul@product:	
   873                           
   874                           ; 2 bytes @ 0x4
   875  0024                     	ds	2
   876  0026                     ?_atoi:	
   877                           
   878                           ; 2 bytes @ 0x6
   879  0026                     	ds	2
   880  0028                     ??_atoi:	
   881                           
   882                           ; 1 bytes @ 0x8
   883  0028                     	ds	2
   884  002A                     atoi@sign:	
   885                           
   886                           ; 1 bytes @ 0xA
   887  002A                     	ds	1
   888  002B                     atoi@a:	
   889                           
   890                           ; 2 bytes @ 0xB
   891  002B                     	ds	2
   892  002D                     atoi@s:	
   893                           
   894                           ; 1 bytes @ 0xD
   895  002D                     	ds	1
   896  002E                     ?_applianceControl:	
   897  002E                     applianceControl@charSwitchLSB:	
   898                           ; 1 bytes @ 0xE
   899                           
   900                           
   901                           ; 1 bytes @ 0xE
   902  002E                     	ds	1
   903  002F                     applianceControl@charSwitchSTATE:	
   904                           
   905                           ; 1 bytes @ 0xF
   906  002F                     	ds	1
   907  0030                     applianceControl@chDimmerSpeedMSB:	
   908                           
   909                           ; 1 bytes @ 0x10
   910  0030                     	ds	1
   911  0031                     applianceControl@chDimmerSpeedLSB:	
   912                           
   913                           ; 1 bytes @ 0x11
   914  0031                     	ds	1
   915  0032                     applianceControl@charParentalControl:	
   916                           
   917                           ; 1 bytes @ 0x12
   918  0032                     	ds	1
   919  0033                     applianceControl@charFinalFrameState:	
   920                           
   921                           ; 1 bytes @ 0x13
   922  0033                     	ds	1
   923  0034                     ??_applianceControl:	
   924                           
   925                           ; 1 bytes @ 0x14
   926  0034                     	ds	2
   927  0036                     applianceControl@integerSpeed:	
   928                           
   929                           ; 2 bytes @ 0x16
   930  0036                     	ds	2
   931  0038                     applianceControl@charSwitchMSB:	
   932                           
   933                           ; 1 bytes @ 0x18
   934  0038                     	ds	1
   935  0039                     applianceControl@switchNumberStringBuffer:	
   936                           
   937                           ; 2 bytes @ 0x19
   938  0039                     	ds	2
   939  003B                     applianceControl@dimmerSpeedStringBuffer:	
   940                           
   941                           ; 2 bytes @ 0x1B
   942  003B                     	ds	2
   943  003D                     applianceControl@integerSwitchNumber:	
   944                           
   945                           ; 2 bytes @ 0x1D
   946  003D                     	ds	2
   947  003F                     applianceControl@currentStateBufferPositions:	
   948                           
   949                           ; 2 bytes @ 0x1F
   950  003F                     	ds	2
   951  0041                     applianceControl@integerSwitchState:	
   952                           
   953                           ; 2 bytes @ 0x21
   954  0041                     	ds	2
   955  0043                     ??_main:	
   956                           
   957                           ; 1 bytes @ 0x23
   958  0043                     	ds	6
   959                           
   960                           	psect	maintext
   961  0250                     __pmaintext:	
   962 ;;
   963 ;;Main: autosize = 0, tempsize = 6, incstack = 0, save=0
   964 ;;
   965 ;; *************** function _main *****************
   966 ;; Defined at:
   967 ;;		line 851 in file "megaonoff.c"
   968 ;; Parameters:    Size  Location     Type
   969 ;;		None
   970 ;; Auto vars:     Size  Location     Type
   971 ;;  dataBufferCo    2    0[BANK1 ] int 
   972 ;;  man             2    2[BANK1 ] int 
   973 ;; Return value:  Size  Location     Type
   974 ;;                  2  344[None  ] int 
   975 ;; Registers used:
   976 ;;		wreg, fsr0l, fsr0h, fsr1l, fsr1h, status,2, status,0, pclath, cstack
   977 ;; Tracked objects:
   978 ;;		On entry : B1F/0
   979 ;;		On exit  : 0/0
   980 ;;		Unchanged: 0/0
   981 ;; Data sizes:     COMMON   BANK0   BANK1   BANK2   BANK3   BANK4   BANK5   BANK6   BANK7   BANK8   BANK9
   982 ;;      Params:         0       0       0       0       0       0       0       0       0       0       0
   983 ;;      Locals:         0       0       4       0       0       0       0       0       0       0       0
   984 ;;      Temps:          0       6       0       0       0       0       0       0       0       0       0
   985 ;;      Totals:         0       6       4       0       0       0       0       0       0       0       0
   986 ;;Total ram usage:       10 bytes
   987 ;; Hardware stack levels required when called:    5
   988 ;; This function calls:
   989 ;;		_GPIO_pin_Initialize
   990 ;;		_ReceivingIndicationLedBlinking
   991 ;;		_SwitchOffStatustToGatway
   992 ;;		_SwitchOnStatustToGatway
   993 ;;		_TransmissionIndicationLedBlinking
   994 ;;		_allPeripheralInit
   995 ;;		_applianceControl
   996 ;;		_copyReceivedDataBuffer
   997 ;;		_errorsMain
   998 ;; This function is called by:
   999 ;;		Startup code after reset
  1000 ;; This function uses a non-reentrant model
  1001 ;;
  1002                           
  1003                           
  1004                           ;psect for function _main
  1005  0250                     _main:	
  1006                           
  1007                           ;megaonoff.c: 852: _delay((unsigned long)((2000)*(16000000/4000.0)));
  1008                           
  1009                           ;incstack = 0
  1010                           ; Regs used in _main: [wreg-fsr1h+status,2+status,0+pclath+cstack]
  1011  0250  3029               	movlw	41
  1012  0251  0020               	movlb	0	; select bank0
  1013  0252  00C4               	movwf	??_main+1
  1014  0253  3096               	movlw	150
  1015  0254  00C3               	movwf	??_main
  1016  0255  307F               	movlw	127
  1017  0256                     u3217:	
  1018  0256  0B89               	decfsz	9,f
  1019  0257  2A56               	goto	u3217
  1020  0258  0BC3               	decfsz	??_main,f
  1021  0259  2A56               	goto	u3217
  1022  025A  0BC4               	decfsz	??_main+1,f
  1023  025B  2A56               	goto	u3217
  1024                           
  1025                           ;megaonoff.c: 853: M1=1; M2=1; M3=1; M4=1; M5=1; M6=1; M7=1;M8=1;
  1026  025C  3001               	movlw	1
  1027  025D  0020               	movlb	0	; select bank0
  1028  025E  00DB               	movwf	_M1
  1029  025F  3000               	movlw	0
  1030  0260  00DC               	movwf	_M1+1
  1031  0261  3001               	movlw	1
  1032  0262  00D9               	movwf	_M2
  1033  0263  3000               	movlw	0
  1034  0264  00DA               	movwf	_M2+1
  1035  0265  3001               	movlw	1
  1036  0266  00D7               	movwf	_M3
  1037  0267  3000               	movlw	0
  1038  0268  00D8               	movwf	_M3+1
  1039  0269  3001               	movlw	1
  1040  026A  00D5               	movwf	_M4
  1041  026B  3000               	movlw	0
  1042  026C  00D6               	movwf	_M4+1
  1043  026D  3001               	movlw	1
  1044  026E  00D3               	movwf	_M5
  1045  026F  3000               	movlw	0
  1046  0270  00D4               	movwf	_M5+1
  1047  0271  3001               	movlw	1
  1048  0272  00D1               	movwf	_M6
  1049  0273  3000               	movlw	0
  1050  0274  00D2               	movwf	_M6+1
  1051  0275  3001               	movlw	1
  1052  0276  00CF               	movwf	_M7
  1053  0277  3000               	movlw	0
  1054  0278  00D0               	movwf	_M7+1
  1055  0279  3001               	movlw	1
  1056  027A  00CD               	movwf	_M8
  1057  027B  3000               	movlw	0
  1058  027C  00CE               	movwf	_M8+1
  1059                           
  1060                           ;megaonoff.c: 854: M9=1;
  1061  027D  3001               	movlw	1
  1062  027E  00CB               	movwf	_M9
  1063  027F  3000               	movlw	0
  1064  0280  00CC               	movwf	_M9+1
  1065                           
  1066                           ;megaonoff.c: 855: GPIO_pin_Initialize();
  1067  0281  3187  27CE  3182   	fcall	_GPIO_pin_Initialize
  1068                           
  1069                           ;megaonoff.c: 856: allPeripheralInit();
  1070  0284  3187  27F4  3182   	fcall	_allPeripheralInit
  1071  0287                     l4108:	
  1072                           ;megaonoff.c: 858: while(1){
  1073                           
  1074                           
  1075                           ;megaonoff.c: 859: if(mainDataReceived==1){
  1076  0287  0020               	movlb	0	; select bank0
  1077  0288  035D               	decf	_mainDataReceived,w
  1078  0289  045E               	iorwf	_mainDataReceived+1,w
  1079  028A  1D03               	btfss	3,2
  1080  028B  2AFE               	goto	l4144
  1081                           
  1082                           ;megaonoff.c: 860: mainDataReceived=0;
  1083  028C  01DD               	clrf	_mainDataReceived
  1084  028D  01DE               	clrf	_mainDataReceived+1
  1085                           
  1086                           ;megaonoff.c: 861: if(mainReceivedDataBuffer[0]=='%' && mainReceivedDataBuffer[1]=='%' &
      +                          & mainReceivedDataBuffer[14]=='@' && mainReceivedDataBuffer[15]=='@'){
  1087  028E  3025               	movlw	37
  1088  028F  0021               	movlb	1	; select bank1
  1089  0290  0620               	xorwf	_mainReceivedDataBuffer^(0+128),w
  1090  0291  1D03               	btfss	3,2
  1091  0292  2AC3               	goto	l4126
  1092  0293  3025               	movlw	37
  1093  0294  0621               	xorwf	(_mainReceivedDataBuffer^(0+128)+1),w
  1094  0295  1D03               	btfss	3,2
  1095  0296  2AC3               	goto	l4126
  1096  0297  3040               	movlw	64
  1097  0298  062E               	xorwf	(_mainReceivedDataBuffer^(0+128)+14),w
  1098  0299  1D03               	btfss	3,2
  1099  029A  2AC3               	goto	l4126
  1100  029B  3040               	movlw	64
  1101  029C  062F               	xorwf	(_mainReceivedDataBuffer^(0+128)+15),w
  1102  029D  1D03               	btfss	3,2
  1103  029E  2AC3               	goto	l4126
  1104                           
  1105                           ;megaonoff.c: 862: ReceivingIndicationLedBlinking();
  1106  029F  318F  274B  3182   	fcall	_ReceivingIndicationLedBlinking
  1107                           
  1108                           ;megaonoff.c: 863: copyReceivedDataBuffer();
  1109  02A2  3187  2771  3182   	fcall	_copyReceivedDataBuffer
  1110                           
  1111                           ;megaonoff.c: 865: applianceControl(tempReceivedDataBuffer[0],
  1112                           ;megaonoff.c: 866: tempReceivedDataBuffer[1],
  1113                           ;megaonoff.c: 867: tempReceivedDataBuffer[2],
  1114                           ;megaonoff.c: 868: tempReceivedDataBuffer[3],
  1115                           ;megaonoff.c: 869: tempReceivedDataBuffer[4],
  1116                           ;megaonoff.c: 870: tempReceivedDataBuffer[5],
  1117                           ;megaonoff.c: 871: tempReceivedDataBuffer[6]);
  1118  02A5  0020               	movlb	0	; select bank0
  1119  02A6  0860               	movf	_tempReceivedDataBuffer+1,w
  1120  02A7  00C3               	movwf	??_main
  1121  02A8  0843               	movf	??_main,w
  1122  02A9  00AE               	movwf	applianceControl@charSwitchLSB
  1123  02AA  0861               	movf	_tempReceivedDataBuffer+2,w
  1124  02AB  00C4               	movwf	??_main+1
  1125  02AC  0844               	movf	??_main+1,w
  1126  02AD  00AF               	movwf	applianceControl@charSwitchSTATE
  1127  02AE  0862               	movf	_tempReceivedDataBuffer+3,w
  1128  02AF  00C5               	movwf	??_main+2
  1129  02B0  0845               	movf	??_main+2,w
  1130  02B1  00B0               	movwf	applianceControl@chDimmerSpeedMSB
  1131  02B2  0863               	movf	_tempReceivedDataBuffer+4,w
  1132  02B3  00C6               	movwf	??_main+3
  1133  02B4  0846               	movf	??_main+3,w
  1134  02B5  00B1               	movwf	applianceControl@chDimmerSpeedLSB
  1135  02B6  0864               	movf	_tempReceivedDataBuffer+5,w
  1136  02B7  00C7               	movwf	??_main+4
  1137  02B8  0847               	movf	??_main+4,w
  1138  02B9  00B2               	movwf	applianceControl@charParentalControl
  1139  02BA  0865               	movf	_tempReceivedDataBuffer+6,w
  1140  02BB  00C8               	movwf	??_main+5
  1141  02BC  0848               	movf	??_main+5,w
  1142  02BD  00B3               	movwf	applianceControl@charFinalFrameState
  1143  02BE  085F               	movf	_tempReceivedDataBuffer,w
  1144  02BF  3185  2558  3182   	fcall	_applianceControl
  1145                           
  1146                           ;megaonoff.c: 873: }
  1147  02C2  2AFE               	goto	l4144
  1148  02C3                     l4126:	
  1149                           
  1150                           ;megaonoff.c: 874: else
  1151                           ;megaonoff.c: 875: {
  1152                           ;megaonoff.c: 877: errorsMain("ERLS");
  1153  02C3  3000               	movlw	low (STR_3| (0+32768))
  1154  02C4  0020               	movlb	0	; select bank0
  1155  02C5  00A0               	movwf	errorsMain@errNum
  1156  02C6  3090               	movlw	high (STR_3| (0+32768))
  1157  02C7  00A1               	movwf	errorsMain@errNum+1
  1158  02C8  318F  27AD  3182   	fcall	_errorsMain
  1159                           
  1160                           ;megaonoff.c: 878: RC1STAbits.SPEN=0;
  1161  02CB  0023               	movlb	3	; select bank3
  1162  02CC  139D               	bcf	29,7	;volatile
  1163                           
  1164                           ;megaonoff.c: 879: RC1STAbits.CREN = 0;
  1165  02CD  121D               	bcf	29,4	;volatile
  1166                           
  1167                           ;megaonoff.c: 880: for(int dataBufferCounter = 0; dataBufferCounter< 15; dataBufferCount
      +                          er++)
  1168  02CE  0021               	movlb	1	; select bank1
  1169  02CF  01CE               	clrf	main@dataBufferCounter^(0+128)
  1170  02D0  01CF               	clrf	(main@dataBufferCounter+1)^(0+128)
  1171  02D1  084F               	movf	(main@dataBufferCounter+1)^(0+128),w
  1172  02D2  3A80               	xorlw	128
  1173  02D3  0020               	movlb	0	; select bank0
  1174  02D4  00C3               	movwf	??_main
  1175  02D5  3080               	movlw	128
  1176  02D6  0243               	subwf	??_main,w
  1177  02D7  1D03               	skipz
  1178  02D8  2ADC               	goto	u2475
  1179  02D9  300F               	movlw	15
  1180  02DA  0021               	movlb	1	; select bank1
  1181  02DB  024E               	subwf	main@dataBufferCounter^(0+128),w
  1182  02DC                     u2475:	
  1183  02DC  1803               	btfsc	3,0
  1184  02DD  2AFB               	goto	l350
  1185  02DE                     l4138:	
  1186                           
  1187                           ;megaonoff.c: 881: {
  1188                           ;megaonoff.c: 882: mainReceivedDataBuffer[dataBufferCounter] = '#';
  1189  02DE  3023               	movlw	35
  1190  02DF  0020               	movlb	0	; select bank0
  1191  02E0  00C3               	movwf	??_main
  1192  02E1  0021               	movlb	1	; select bank1
  1193  02E2  084E               	movf	main@dataBufferCounter^(0+128),w
  1194  02E3  3EA0               	addlw	(low (_mainReceivedDataBuffer| 0))& (0+255)
  1195  02E4  0086               	movwf	6
  1196  02E5  0187               	clrf	7
  1197  02E6  0020               	movlb	0	; select bank0
  1198  02E7  0843               	movf	??_main,w
  1199  02E8  0081               	movwf	1
  1200  02E9  3001               	movlw	1
  1201  02EA  0021               	movlb	1	; select bank1
  1202  02EB  07CE               	addwf	main@dataBufferCounter^(0+128),f
  1203  02EC  3000               	movlw	0
  1204  02ED  3DCF               	addwfc	(main@dataBufferCounter+1)^(0+128),f
  1205  02EE  084F               	movf	(main@dataBufferCounter+1)^(0+128),w
  1206  02EF  3A80               	xorlw	128
  1207  02F0  0020               	movlb	0	; select bank0
  1208  02F1  00C3               	movwf	??_main
  1209  02F2  3080               	movlw	128
  1210  02F3  0243               	subwf	??_main,w
  1211  02F4  1D03               	skipz
  1212  02F5  2AF9               	goto	u2485
  1213  02F6  300F               	movlw	15
  1214  02F7  0021               	movlb	1	; select bank1
  1215  02F8  024E               	subwf	main@dataBufferCounter^(0+128),w
  1216  02F9                     u2485:	
  1217  02F9  1C03               	skipc
  1218  02FA  2ADE               	goto	l4138
  1219  02FB                     l350:	
  1220                           
  1221                           ;megaonoff.c: 883: }
  1222                           ;megaonoff.c: 884: RC1STAbits.CREN = 1;
  1223  02FB  0023               	movlb	3	; select bank3
  1224  02FC  161D               	bsf	29,4	;volatile
  1225                           
  1226                           ;megaonoff.c: 885: RC1STAbits.SPEN=1;
  1227  02FD  179D               	bsf	29,7	;volatile
  1228  02FE                     l4144:	
  1229                           
  1230                           ;megaonoff.c: 886: }
  1231                           ;megaonoff.c: 887: }
  1232                           ;megaonoff.c: 901: int man = 1;
  1233  02FE  3001               	movlw	1
  1234  02FF  0021               	movlb	1	; select bank1
  1235  0300  00D0               	movwf	main@man^(0+128)
  1236  0301  3000               	movlw	0
  1237  0302  00D1               	movwf	(main@man^(0+128)+1)
  1238                           
  1239                           ;megaonoff.c: 902: if(copy_parentalLockBuffer[1] == '0' && PORTDbits.RD6 == 0 && M1 == 0
      +                          )
  1240  0303  3030               	movlw	48
  1241  0304  0633               	xorwf	(_copy_parentalLockBuffer^(0+128)+1),w
  1242  0305  1D03               	btfss	3,2
  1243  0306  2B24               	goto	l4162
  1244  0307  0020               	movlb	0	; select bank0
  1245  0308  1B0F               	btfsc	15,6	;volatile
  1246  0309  2B24               	goto	l4162
  1247  030A  085B               	movf	_M1,w
  1248  030B  045C               	iorwf	_M1+1,w
  1249  030C  1D03               	btfss	3,2
  1250  030D  2B24               	goto	l4162
  1251                           
  1252                           ;megaonoff.c: 903: {
  1253                           ;megaonoff.c: 904: if(man == 1)
  1254  030E  0021               	movlb	1	; select bank1
  1255  030F  0350               	decf	main@man^(0+128),w
  1256  0310  0451               	iorwf	(main@man+1)^(0+128),w
  1257  0311  1D03               	btfss	3,2
  1258  0312  2B1C               	goto	l4158
  1259                           
  1260                           ;megaonoff.c: 905: {
  1261                           ;megaonoff.c: 906: SwitchOnStatustToGatway('1');
  1262  0313  3031               	movlw	49
  1263  0314  3187  2709  3182   	fcall	_SwitchOnStatustToGatway
  1264                           
  1265                           ;megaonoff.c: 908: TransmissionIndicationLedBlinking();
  1266  0317  318F  275C  3182   	fcall	_TransmissionIndicationLedBlinking
  1267                           
  1268                           ;megaonoff.c: 909: PORTEbits.RE0=1;
  1269  031A  0020               	movlb	0	; select bank0
  1270  031B  1410               	bsf	16,0	;volatile
  1271  031C                     l4158:	
  1272                           
  1273                           ;megaonoff.c: 911: }
  1274                           ;megaonoff.c: 912: man=0;
  1275  031C  0021               	movlb	1	; select bank1
  1276  031D  01D0               	clrf	main@man^(0+128)
  1277  031E  01D1               	clrf	(main@man+1)^(0+128)
  1278                           
  1279                           ;megaonoff.c: 913: M1=1;
  1280  031F  3001               	movlw	1
  1281  0320  0020               	movlb	0	; select bank0
  1282  0321  00DB               	movwf	_M1
  1283  0322  3000               	movlw	0
  1284  0323  00DC               	movwf	_M1+1
  1285  0324                     l4162:	
  1286                           
  1287                           ;megaonoff.c: 915: }
  1288                           ;megaonoff.c: 917: if(copy_parentalLockBuffer[1] == '0' && PORTDbits.RD6 == 1 && M1 == 1
      +                          )
  1289  0324  3030               	movlw	48
  1290  0325  0021               	movlb	1	; select bank1
  1291  0326  0633               	xorwf	(_copy_parentalLockBuffer^(0+128)+1),w
  1292  0327  1D03               	btfss	3,2
  1293  0328  2B44               	goto	l4178
  1294  0329  0020               	movlb	0	; select bank0
  1295  032A  1F0F               	btfss	15,6	;volatile
  1296  032B  2B44               	goto	l4178
  1297  032C  035B               	decf	_M1,w
  1298  032D  045C               	iorwf	_M1+1,w
  1299  032E  1D03               	btfss	3,2
  1300  032F  2B44               	goto	l4178
  1301                           
  1302                           ;megaonoff.c: 918: {
  1303                           ;megaonoff.c: 920: if(man==1)
  1304  0330  0021               	movlb	1	; select bank1
  1305  0331  0350               	decf	main@man^(0+128),w
  1306  0332  0451               	iorwf	(main@man+1)^(0+128),w
  1307  0333  1D03               	btfss	3,2
  1308  0334  2B3E               	goto	l4174
  1309                           
  1310                           ;megaonoff.c: 921: {
  1311                           ;megaonoff.c: 922: SwitchOffStatustToGatway('1');
  1312  0335  3031               	movlw	49
  1313  0336  3187  273D  3182   	fcall	_SwitchOffStatustToGatway
  1314                           
  1315                           ;megaonoff.c: 923: TransmissionIndicationLedBlinking();
  1316  0339  318F  275C  3182   	fcall	_TransmissionIndicationLedBlinking
  1317                           
  1318                           ;megaonoff.c: 924: PORTEbits.RE0=0;
  1319  033C  0020               	movlb	0	; select bank0
  1320  033D  1010               	bcf	16,0	;volatile
  1321  033E                     l4174:	
  1322                           
  1323                           ;megaonoff.c: 925: }
  1324                           ;megaonoff.c: 926: man=0;
  1325  033E  0021               	movlb	1	; select bank1
  1326  033F  01D0               	clrf	main@man^(0+128)
  1327  0340  01D1               	clrf	(main@man+1)^(0+128)
  1328                           
  1329                           ;megaonoff.c: 927: M1=0;
  1330  0341  0020               	movlb	0	; select bank0
  1331  0342  01DB               	clrf	_M1
  1332  0343  01DC               	clrf	_M1+1
  1333  0344                     l4178:	
  1334                           
  1335                           ;megaonoff.c: 928: }
  1336                           ;megaonoff.c: 932: if(copy_parentalLockBuffer[2] == '0' && PORTDbits.RD7 == 0 && M2 == 0
      +                          )
  1337  0344  3030               	movlw	48
  1338  0345  0021               	movlb	1	; select bank1
  1339  0346  0634               	xorwf	(_copy_parentalLockBuffer^(0+128)+2),w
  1340  0347  1D03               	btfss	3,2
  1341  0348  2B66               	goto	l4194
  1342  0349  0020               	movlb	0	; select bank0
  1343  034A  1B8F               	btfsc	15,7	;volatile
  1344  034B  2B66               	goto	l4194
  1345  034C  0859               	movf	_M2,w
  1346  034D  045A               	iorwf	_M2+1,w
  1347  034E  1D03               	btfss	3,2
  1348  034F  2B66               	goto	l4194
  1349                           
  1350                           ;megaonoff.c: 933: {
  1351                           ;megaonoff.c: 934: if(man==1)
  1352  0350  0021               	movlb	1	; select bank1
  1353  0351  0350               	decf	main@man^(0+128),w
  1354  0352  0451               	iorwf	(main@man+1)^(0+128),w
  1355  0353  1D03               	btfss	3,2
  1356  0354  2B5E               	goto	l4190
  1357                           
  1358                           ;megaonoff.c: 935: {
  1359                           ;megaonoff.c: 936: SwitchOnStatustToGatway('2');
  1360  0355  3032               	movlw	50
  1361  0356  3187  2709  3182   	fcall	_SwitchOnStatustToGatway
  1362                           
  1363                           ;megaonoff.c: 937: TransmissionIndicationLedBlinking();
  1364  0359  318F  275C  3182   	fcall	_TransmissionIndicationLedBlinking
  1365                           
  1366                           ;megaonoff.c: 938: PORTEbits.RE1=1;
  1367  035C  0020               	movlb	0	; select bank0
  1368  035D  1490               	bsf	16,1	;volatile
  1369  035E                     l4190:	
  1370                           
  1371                           ;megaonoff.c: 939: }
  1372                           ;megaonoff.c: 940: man=0;
  1373  035E  0021               	movlb	1	; select bank1
  1374  035F  01D0               	clrf	main@man^(0+128)
  1375  0360  01D1               	clrf	(main@man+1)^(0+128)
  1376                           
  1377                           ;megaonoff.c: 941: M2=1;
  1378  0361  3001               	movlw	1
  1379  0362  0020               	movlb	0	; select bank0
  1380  0363  00D9               	movwf	_M2
  1381  0364  3000               	movlw	0
  1382  0365  00DA               	movwf	_M2+1
  1383  0366                     l4194:	
  1384                           
  1385                           ;megaonoff.c: 942: }
  1386                           ;megaonoff.c: 944: if(copy_parentalLockBuffer[2] == '0' && PORTDbits.RD7 == 1 && M2 == 1
      +                          )
  1387  0366  3030               	movlw	48
  1388  0367  0021               	movlb	1	; select bank1
  1389  0368  0634               	xorwf	(_copy_parentalLockBuffer^(0+128)+2),w
  1390  0369  1D03               	btfss	3,2
  1391  036A  2B86               	goto	l4210
  1392  036B  0020               	movlb	0	; select bank0
  1393  036C  1F8F               	btfss	15,7	;volatile
  1394  036D  2B86               	goto	l4210
  1395  036E  0359               	decf	_M2,w
  1396  036F  045A               	iorwf	_M2+1,w
  1397  0370  1D03               	btfss	3,2
  1398  0371  2B86               	goto	l4210
  1399                           
  1400                           ;megaonoff.c: 945: {
  1401                           ;megaonoff.c: 946: if(man==1)
  1402  0372  0021               	movlb	1	; select bank1
  1403  0373  0350               	decf	main@man^(0+128),w
  1404  0374  0451               	iorwf	(main@man+1)^(0+128),w
  1405  0375  1D03               	btfss	3,2
  1406  0376  2B80               	goto	l4206
  1407                           
  1408                           ;megaonoff.c: 947: {
  1409                           ;megaonoff.c: 948: SwitchOffStatustToGatway('2');
  1410  0377  3032               	movlw	50
  1411  0378  3187  273D  3182   	fcall	_SwitchOffStatustToGatway
  1412                           
  1413                           ;megaonoff.c: 949: TransmissionIndicationLedBlinking();
  1414  037B  318F  275C  3182   	fcall	_TransmissionIndicationLedBlinking
  1415                           
  1416                           ;megaonoff.c: 950: PORTEbits.RE1=0;
  1417  037E  0020               	movlb	0	; select bank0
  1418  037F  1090               	bcf	16,1	;volatile
  1419  0380                     l4206:	
  1420                           
  1421                           ;megaonoff.c: 951: }
  1422                           ;megaonoff.c: 952: man=0;
  1423  0380  0021               	movlb	1	; select bank1
  1424  0381  01D0               	clrf	main@man^(0+128)
  1425  0382  01D1               	clrf	(main@man+1)^(0+128)
  1426                           
  1427                           ;megaonoff.c: 953: M2=0;
  1428  0383  0020               	movlb	0	; select bank0
  1429  0384  01D9               	clrf	_M2
  1430  0385  01DA               	clrf	_M2+1
  1431  0386                     l4210:	
  1432                           
  1433                           ;megaonoff.c: 954: }
  1434                           ;megaonoff.c: 959: if(copy_parentalLockBuffer[3] == '0' && PORTBbits.RB0 == 0 && M3 == 0
      +                          )
  1435  0386  3030               	movlw	48
  1436  0387  0021               	movlb	1	; select bank1
  1437  0388  0635               	xorwf	(_copy_parentalLockBuffer^(0+128)+3),w
  1438  0389  1D03               	btfss	3,2
  1439  038A  2BA8               	goto	l4226
  1440  038B  0020               	movlb	0	; select bank0
  1441  038C  180D               	btfsc	13,0	;volatile
  1442  038D  2BA8               	goto	l4226
  1443  038E  0857               	movf	_M3,w
  1444  038F  0458               	iorwf	_M3+1,w
  1445  0390  1D03               	btfss	3,2
  1446  0391  2BA8               	goto	l4226
  1447                           
  1448                           ;megaonoff.c: 960: {
  1449                           ;megaonoff.c: 961: if(man == 1)
  1450  0392  0021               	movlb	1	; select bank1
  1451  0393  0350               	decf	main@man^(0+128),w
  1452  0394  0451               	iorwf	(main@man+1)^(0+128),w
  1453  0395  1D03               	btfss	3,2
  1454  0396  2BA0               	goto	l4222
  1455                           
  1456                           ;megaonoff.c: 962: {
  1457                           ;megaonoff.c: 963: SwitchOnStatustToGatway('3');
  1458  0397  3033               	movlw	51
  1459  0398  3187  2709  3182   	fcall	_SwitchOnStatustToGatway
  1460                           
  1461                           ;megaonoff.c: 964: TransmissionIndicationLedBlinking();
  1462  039B  318F  275C  3182   	fcall	_TransmissionIndicationLedBlinking
  1463                           
  1464                           ;megaonoff.c: 965: PORTGbits.RG0=1;
  1465  039E  0025               	movlb	5	; select bank5
  1466  039F  140D               	bsf	13,0	;volatile
  1467  03A0                     l4222:	
  1468                           
  1469                           ;megaonoff.c: 966: }
  1470                           ;megaonoff.c: 967: man=0;
  1471  03A0  0021               	movlb	1	; select bank1
  1472  03A1  01D0               	clrf	main@man^(0+128)
  1473  03A2  01D1               	clrf	(main@man+1)^(0+128)
  1474                           
  1475                           ;megaonoff.c: 968: M3=1;
  1476  03A3  3001               	movlw	1
  1477  03A4  0020               	movlb	0	; select bank0
  1478  03A5  00D7               	movwf	_M3
  1479  03A6  3000               	movlw	0
  1480  03A7  00D8               	movwf	_M3+1
  1481  03A8                     l4226:	
  1482                           
  1483                           ;megaonoff.c: 970: }
  1484                           ;megaonoff.c: 972: if(copy_parentalLockBuffer[3] == '0' && PORTBbits.RB0 == 1 && M3 == 1
      +                          )
  1485  03A8  3030               	movlw	48
  1486  03A9  0021               	movlb	1	; select bank1
  1487  03AA  0635               	xorwf	(_copy_parentalLockBuffer^(0+128)+3),w
  1488  03AB  1D03               	btfss	3,2
  1489  03AC  2BC8               	goto	l4242
  1490  03AD  0020               	movlb	0	; select bank0
  1491  03AE  1C0D               	btfss	13,0	;volatile
  1492  03AF  2BC8               	goto	l4242
  1493  03B0  0357               	decf	_M3,w
  1494  03B1  0458               	iorwf	_M3+1,w
  1495  03B2  1D03               	btfss	3,2
  1496  03B3  2BC8               	goto	l4242
  1497                           
  1498                           ;megaonoff.c: 973: {
  1499                           ;megaonoff.c: 974: if(man==1)
  1500  03B4  0021               	movlb	1	; select bank1
  1501  03B5  0350               	decf	main@man^(0+128),w
  1502  03B6  0451               	iorwf	(main@man+1)^(0+128),w
  1503  03B7  1D03               	btfss	3,2
  1504  03B8  2BC2               	goto	l4238
  1505                           
  1506                           ;megaonoff.c: 975: {
  1507                           ;megaonoff.c: 976: SwitchOffStatustToGatway('3');
  1508  03B9  3033               	movlw	51
  1509  03BA  3187  273D  3182   	fcall	_SwitchOffStatustToGatway
  1510                           
  1511                           ;megaonoff.c: 978: TransmissionIndicationLedBlinking();
  1512  03BD  318F  275C  3182   	fcall	_TransmissionIndicationLedBlinking
  1513                           
  1514                           ;megaonoff.c: 979: PORTGbits.RG0=0;
  1515  03C0  0025               	movlb	5	; select bank5
  1516  03C1  100D               	bcf	13,0	;volatile
  1517  03C2                     l4238:	
  1518                           
  1519                           ;megaonoff.c: 980: }
  1520                           ;megaonoff.c: 981: man=0;
  1521  03C2  0021               	movlb	1	; select bank1
  1522  03C3  01D0               	clrf	main@man^(0+128)
  1523  03C4  01D1               	clrf	(main@man+1)^(0+128)
  1524                           
  1525                           ;megaonoff.c: 982: M3=0;
  1526  03C5  0020               	movlb	0	; select bank0
  1527  03C6  01D7               	clrf	_M3
  1528  03C7  01D8               	clrf	_M3+1
  1529  03C8                     l4242:	
  1530                           
  1531                           ;megaonoff.c: 984: }
  1532                           ;megaonoff.c: 989: if(copy_parentalLockBuffer[4] == '0' && PORTBbits.RB1 == 0 && M4 == 0
      +                          )
  1533  03C8  3030               	movlw	48
  1534  03C9  0021               	movlb	1	; select bank1
  1535  03CA  0636               	xorwf	(_copy_parentalLockBuffer^(0+128)+4),w
  1536  03CB  1D03               	btfss	3,2
  1537  03CC  2BEA               	goto	l4258
  1538  03CD  0020               	movlb	0	; select bank0
  1539  03CE  188D               	btfsc	13,1	;volatile
  1540  03CF  2BEA               	goto	l4258
  1541  03D0  0855               	movf	_M4,w
  1542  03D1  0456               	iorwf	_M4+1,w
  1543  03D2  1D03               	btfss	3,2
  1544  03D3  2BEA               	goto	l4258
  1545                           
  1546                           ;megaonoff.c: 990: {
  1547                           ;megaonoff.c: 991: if(man==1)
  1548  03D4  0021               	movlb	1	; select bank1
  1549  03D5  0350               	decf	main@man^(0+128),w
  1550  03D6  0451               	iorwf	(main@man+1)^(0+128),w
  1551  03D7  1D03               	btfss	3,2
  1552  03D8  2BE2               	goto	l4254
  1553                           
  1554                           ;megaonoff.c: 992: {
  1555                           ;megaonoff.c: 993: SwitchOnStatustToGatway('4');
  1556  03D9  3034               	movlw	52
  1557  03DA  3187  2709  3182   	fcall	_SwitchOnStatustToGatway
  1558                           
  1559                           ;megaonoff.c: 994: TransmissionIndicationLedBlinking();
  1560  03DD  318F  275C  3182   	fcall	_TransmissionIndicationLedBlinking
  1561                           
  1562                           ;megaonoff.c: 995: PORTGbits.RG3=1;
  1563  03E0  0025               	movlb	5	; select bank5
  1564  03E1  158D               	bsf	13,3	;volatile
  1565  03E2                     l4254:	
  1566                           
  1567                           ;megaonoff.c: 996: }
  1568                           ;megaonoff.c: 997: man=0;
  1569  03E2  0021               	movlb	1	; select bank1
  1570  03E3  01D0               	clrf	main@man^(0+128)
  1571  03E4  01D1               	clrf	(main@man+1)^(0+128)
  1572                           
  1573                           ;megaonoff.c: 998: M4=1;
  1574  03E5  3001               	movlw	1
  1575  03E6  0020               	movlb	0	; select bank0
  1576  03E7  00D5               	movwf	_M4
  1577  03E8  3000               	movlw	0
  1578  03E9  00D6               	movwf	_M4+1
  1579  03EA                     l4258:	
  1580                           
  1581                           ;megaonoff.c: 1000: }
  1582                           ;megaonoff.c: 1002: if(copy_parentalLockBuffer[4] == '0' && PORTBbits.RB1 == 1 && M4 == 
      +                          1)
  1583  03EA  3030               	movlw	48
  1584  03EB  0021               	movlb	1	; select bank1
  1585  03EC  0636               	xorwf	(_copy_parentalLockBuffer^(0+128)+4),w
  1586  03ED  1D03               	btfss	3,2
  1587  03EE  2C0A               	goto	l4274
  1588  03EF  0020               	movlb	0	; select bank0
  1589  03F0  1C8D               	btfss	13,1	;volatile
  1590  03F1  2C0A               	goto	l4274
  1591  03F2  0355               	decf	_M4,w
  1592  03F3  0456               	iorwf	_M4+1,w
  1593  03F4  1D03               	btfss	3,2
  1594  03F5  2C0A               	goto	l4274
  1595                           
  1596                           ;megaonoff.c: 1003: {
  1597                           ;megaonoff.c: 1004: if(man==1)
  1598  03F6  0021               	movlb	1	; select bank1
  1599  03F7  0350               	decf	main@man^(0+128),w
  1600  03F8  0451               	iorwf	(main@man+1)^(0+128),w
  1601  03F9  1D03               	btfss	3,2
  1602  03FA  2C04               	goto	l4270
  1603                           
  1604                           ;megaonoff.c: 1005: {
  1605                           ;megaonoff.c: 1007: SwitchOffStatustToGatway('4');
  1606  03FB  3034               	movlw	52
  1607  03FC  3187  273D  3182   	fcall	_SwitchOffStatustToGatway
  1608                           
  1609                           ;megaonoff.c: 1008: TransmissionIndicationLedBlinking();
  1610  03FF  318F  275C  3182   	fcall	_TransmissionIndicationLedBlinking
  1611                           
  1612                           ;megaonoff.c: 1009: PORTGbits.RG3=0;
  1613  0402  0025               	movlb	5	; select bank5
  1614  0403  118D               	bcf	13,3	;volatile
  1615  0404                     l4270:	
  1616                           
  1617                           ;megaonoff.c: 1010: }
  1618                           ;megaonoff.c: 1011: man=0;
  1619  0404  0021               	movlb	1	; select bank1
  1620  0405  01D0               	clrf	main@man^(0+128)
  1621  0406  01D1               	clrf	(main@man+1)^(0+128)
  1622                           
  1623                           ;megaonoff.c: 1012: M4=0;
  1624  0407  0020               	movlb	0	; select bank0
  1625  0408  01D5               	clrf	_M4
  1626  0409  01D6               	clrf	_M4+1
  1627  040A                     l4274:	
  1628                           
  1629                           ;megaonoff.c: 1014: }
  1630                           ;megaonoff.c: 1016: if(copy_parentalLockBuffer[5] == '0' && PORTBbits.RB2 == 0 && M5 == 
      +                          0)
  1631  040A  3030               	movlw	48
  1632  040B  0021               	movlb	1	; select bank1
  1633  040C  0637               	xorwf	(_copy_parentalLockBuffer^(0+128)+5),w
  1634  040D  1D03               	btfss	3,2
  1635  040E  2C2C               	goto	l4290
  1636  040F  0020               	movlb	0	; select bank0
  1637  0410  190D               	btfsc	13,2	;volatile
  1638  0411  2C2C               	goto	l4290
  1639  0412  0853               	movf	_M5,w
  1640  0413  0454               	iorwf	_M5+1,w
  1641  0414  1D03               	btfss	3,2
  1642  0415  2C2C               	goto	l4290
  1643                           
  1644                           ;megaonoff.c: 1017: {
  1645                           ;megaonoff.c: 1018: if(man==1)
  1646  0416  0021               	movlb	1	; select bank1
  1647  0417  0350               	decf	main@man^(0+128),w
  1648  0418  0451               	iorwf	(main@man+1)^(0+128),w
  1649  0419  1D03               	btfss	3,2
  1650  041A  2C24               	goto	l4286
  1651                           
  1652                           ;megaonoff.c: 1019: {
  1653                           ;megaonoff.c: 1020: SwitchOnStatustToGatway('5');
  1654  041B  3035               	movlw	53
  1655  041C  3187  2709  3182   	fcall	_SwitchOnStatustToGatway
  1656                           
  1657                           ;megaonoff.c: 1021: TransmissionIndicationLedBlinking();
  1658  041F  318F  275C  3182   	fcall	_TransmissionIndicationLedBlinking
  1659                           
  1660                           ;megaonoff.c: 1022: PORTGbits.RG4=1;
  1661  0422  0025               	movlb	5	; select bank5
  1662  0423  160D               	bsf	13,4	;volatile
  1663  0424                     l4286:	
  1664                           
  1665                           ;megaonoff.c: 1023: }
  1666                           ;megaonoff.c: 1024: man=0;
  1667  0424  0021               	movlb	1	; select bank1
  1668  0425  01D0               	clrf	main@man^(0+128)
  1669  0426  01D1               	clrf	(main@man+1)^(0+128)
  1670                           
  1671                           ;megaonoff.c: 1025: M5=1;
  1672  0427  3001               	movlw	1
  1673  0428  0020               	movlb	0	; select bank0
  1674  0429  00D3               	movwf	_M5
  1675  042A  3000               	movlw	0
  1676  042B  00D4               	movwf	_M5+1
  1677  042C                     l4290:	
  1678                           
  1679                           ;megaonoff.c: 1027: }
  1680                           ;megaonoff.c: 1029: if(copy_parentalLockBuffer[5] == '0' && PORTBbits.RB2 == 1 && M5 == 
      +                          1)
  1681  042C  3030               	movlw	48
  1682  042D  0021               	movlb	1	; select bank1
  1683  042E  0637               	xorwf	(_copy_parentalLockBuffer^(0+128)+5),w
  1684  042F  1D03               	btfss	3,2
  1685  0430  2C4C               	goto	l4306
  1686  0431  0020               	movlb	0	; select bank0
  1687  0432  1D0D               	btfss	13,2	;volatile
  1688  0433  2C4C               	goto	l4306
  1689  0434  0353               	decf	_M5,w
  1690  0435  0454               	iorwf	_M5+1,w
  1691  0436  1D03               	btfss	3,2
  1692  0437  2C4C               	goto	l4306
  1693                           
  1694                           ;megaonoff.c: 1030: {
  1695                           ;megaonoff.c: 1031: if(man==1)
  1696  0438  0021               	movlb	1	; select bank1
  1697  0439  0350               	decf	main@man^(0+128),w
  1698  043A  0451               	iorwf	(main@man+1)^(0+128),w
  1699  043B  1D03               	btfss	3,2
  1700  043C  2C46               	goto	l4302
  1701                           
  1702                           ;megaonoff.c: 1032: {
  1703                           ;megaonoff.c: 1034: SwitchOffStatustToGatway('5');
  1704  043D  3035               	movlw	53
  1705  043E  3187  273D  3182   	fcall	_SwitchOffStatustToGatway
  1706                           
  1707                           ;megaonoff.c: 1035: TransmissionIndicationLedBlinking();
  1708  0441  318F  275C  3182   	fcall	_TransmissionIndicationLedBlinking
  1709                           
  1710                           ;megaonoff.c: 1036: PORTGbits.RG4=0;
  1711  0444  0025               	movlb	5	; select bank5
  1712  0445  120D               	bcf	13,4	;volatile
  1713  0446                     l4302:	
  1714                           
  1715                           ;megaonoff.c: 1037: }
  1716                           ;megaonoff.c: 1038: man=0;
  1717  0446  0021               	movlb	1	; select bank1
  1718  0447  01D0               	clrf	main@man^(0+128)
  1719  0448  01D1               	clrf	(main@man+1)^(0+128)
  1720                           
  1721                           ;megaonoff.c: 1039: M5=0;
  1722  0449  0020               	movlb	0	; select bank0
  1723  044A  01D3               	clrf	_M5
  1724  044B  01D4               	clrf	_M5+1
  1725  044C                     l4306:	
  1726                           
  1727                           ;megaonoff.c: 1041: }
  1728                           ;megaonoff.c: 1044: if(copy_parentalLockBuffer[6] == '0' && PORTBbits.RB3 == 0 && M6 == 
      +                          0)
  1729  044C  3030               	movlw	48
  1730  044D  0021               	movlb	1	; select bank1
  1731  044E  0638               	xorwf	(_copy_parentalLockBuffer^(0+128)+6),w
  1732  044F  1D03               	btfss	3,2
  1733  0450  2C6E               	goto	l4322
  1734  0451  0020               	movlb	0	; select bank0
  1735  0452  198D               	btfsc	13,3	;volatile
  1736  0453  2C6E               	goto	l4322
  1737  0454  0851               	movf	_M6,w
  1738  0455  0452               	iorwf	_M6+1,w
  1739  0456  1D03               	btfss	3,2
  1740  0457  2C6E               	goto	l4322
  1741                           
  1742                           ;megaonoff.c: 1045: {
  1743                           ;megaonoff.c: 1046: if(man==1)
  1744  0458  0021               	movlb	1	; select bank1
  1745  0459  0350               	decf	main@man^(0+128),w
  1746  045A  0451               	iorwf	(main@man+1)^(0+128),w
  1747  045B  1D03               	btfss	3,2
  1748  045C  2C66               	goto	l4318
  1749                           
  1750                           ;megaonoff.c: 1047: {
  1751                           ;megaonoff.c: 1048: SwitchOnStatustToGatway('6');
  1752  045D  3036               	movlw	54
  1753  045E  3187  2709  3182   	fcall	_SwitchOnStatustToGatway
  1754                           
  1755                           ;megaonoff.c: 1049: TransmissionIndicationLedBlinking();
  1756  0461  318F  275C  3182   	fcall	_TransmissionIndicationLedBlinking
  1757                           
  1758                           ;megaonoff.c: 1050: PORTFbits.RF6=1;
  1759  0464  0025               	movlb	5	; select bank5
  1760  0465  170C               	bsf	12,6	;volatile
  1761  0466                     l4318:	
  1762                           
  1763                           ;megaonoff.c: 1051: }
  1764                           ;megaonoff.c: 1052: man=0;
  1765  0466  0021               	movlb	1	; select bank1
  1766  0467  01D0               	clrf	main@man^(0+128)
  1767  0468  01D1               	clrf	(main@man+1)^(0+128)
  1768                           
  1769                           ;megaonoff.c: 1053: M6=1;
  1770  0469  3001               	movlw	1
  1771  046A  0020               	movlb	0	; select bank0
  1772  046B  00D1               	movwf	_M6
  1773  046C  3000               	movlw	0
  1774  046D  00D2               	movwf	_M6+1
  1775  046E                     l4322:	
  1776                           
  1777                           ;megaonoff.c: 1055: }
  1778                           ;megaonoff.c: 1057: if(copy_parentalLockBuffer[6] == '0' && PORTBbits.RB3 == 1 && M6 == 
      +                          1)
  1779  046E  3030               	movlw	48
  1780  046F  0021               	movlb	1	; select bank1
  1781  0470  0638               	xorwf	(_copy_parentalLockBuffer^(0+128)+6),w
  1782  0471  1D03               	btfss	3,2
  1783  0472  2C8E               	goto	l4338
  1784  0473  0020               	movlb	0	; select bank0
  1785  0474  1D8D               	btfss	13,3	;volatile
  1786  0475  2C8E               	goto	l4338
  1787  0476  0351               	decf	_M6,w
  1788  0477  0452               	iorwf	_M6+1,w
  1789  0478  1D03               	btfss	3,2
  1790  0479  2C8E               	goto	l4338
  1791                           
  1792                           ;megaonoff.c: 1058: {
  1793                           ;megaonoff.c: 1059: if(man==1)
  1794  047A  0021               	movlb	1	; select bank1
  1795  047B  0350               	decf	main@man^(0+128),w
  1796  047C  0451               	iorwf	(main@man+1)^(0+128),w
  1797  047D  1D03               	btfss	3,2
  1798  047E  2C88               	goto	l4334
  1799                           
  1800                           ;megaonoff.c: 1060: {
  1801                           ;megaonoff.c: 1062: SwitchOffStatustToGatway('6');
  1802  047F  3036               	movlw	54
  1803  0480  3187  273D  3182   	fcall	_SwitchOffStatustToGatway
  1804                           
  1805                           ;megaonoff.c: 1063: TransmissionIndicationLedBlinking();
  1806  0483  318F  275C  3182   	fcall	_TransmissionIndicationLedBlinking
  1807                           
  1808                           ;megaonoff.c: 1064: PORTFbits.RF6=0;
  1809  0486  0025               	movlb	5	; select bank5
  1810  0487  130C               	bcf	12,6	;volatile
  1811  0488                     l4334:	
  1812                           
  1813                           ;megaonoff.c: 1065: }
  1814                           ;megaonoff.c: 1066: man=0;
  1815  0488  0021               	movlb	1	; select bank1
  1816  0489  01D0               	clrf	main@man^(0+128)
  1817  048A  01D1               	clrf	(main@man+1)^(0+128)
  1818                           
  1819                           ;megaonoff.c: 1067: M6=0;
  1820  048B  0020               	movlb	0	; select bank0
  1821  048C  01D1               	clrf	_M6
  1822  048D  01D2               	clrf	_M6+1
  1823  048E                     l4338:	
  1824                           
  1825                           ;megaonoff.c: 1069: }
  1826                           ;megaonoff.c: 1073: if(copy_parentalLockBuffer[7] == '0' && PORTBbits.RB4 == 0 && M7 == 
      +                          0)
  1827  048E  3030               	movlw	48
  1828  048F  0021               	movlb	1	; select bank1
  1829  0490  0639               	xorwf	(_copy_parentalLockBuffer^(0+128)+7),w
  1830  0491  1D03               	btfss	3,2
  1831  0492  2CB0               	goto	l4354
  1832  0493  0020               	movlb	0	; select bank0
  1833  0494  1A0D               	btfsc	13,4	;volatile
  1834  0495  2CB0               	goto	l4354
  1835  0496  084F               	movf	_M7,w
  1836  0497  0450               	iorwf	_M7+1,w
  1837  0498  1D03               	btfss	3,2
  1838  0499  2CB0               	goto	l4354
  1839                           
  1840                           ;megaonoff.c: 1074: {
  1841                           ;megaonoff.c: 1075: if(man==1)
  1842  049A  0021               	movlb	1	; select bank1
  1843  049B  0350               	decf	main@man^(0+128),w
  1844  049C  0451               	iorwf	(main@man+1)^(0+128),w
  1845  049D  1D03               	btfss	3,2
  1846  049E  2CA8               	goto	l4350
  1847                           
  1848                           ;megaonoff.c: 1076: {
  1849                           ;megaonoff.c: 1077: SwitchOnStatustToGatway('7');
  1850  049F  3037               	movlw	55
  1851  04A0  3187  2709  3182   	fcall	_SwitchOnStatustToGatway
  1852                           
  1853                           ;megaonoff.c: 1078: TransmissionIndicationLedBlinking();
  1854  04A3  318F  275C  3182   	fcall	_TransmissionIndicationLedBlinking
  1855                           
  1856                           ;megaonoff.c: 1079: PORTFbits.RF5=1;
  1857  04A6  0025               	movlb	5	; select bank5
  1858  04A7  168C               	bsf	12,5	;volatile
  1859  04A8                     l4350:	
  1860                           
  1861                           ;megaonoff.c: 1080: }
  1862                           ;megaonoff.c: 1081: man=0;
  1863  04A8  0021               	movlb	1	; select bank1
  1864  04A9  01D0               	clrf	main@man^(0+128)
  1865  04AA  01D1               	clrf	(main@man+1)^(0+128)
  1866                           
  1867                           ;megaonoff.c: 1082: M7=1;
  1868  04AB  3001               	movlw	1
  1869  04AC  0020               	movlb	0	; select bank0
  1870  04AD  00CF               	movwf	_M7
  1871  04AE  3000               	movlw	0
  1872  04AF  00D0               	movwf	_M7+1
  1873  04B0                     l4354:	
  1874                           
  1875                           ;megaonoff.c: 1084: }
  1876                           ;megaonoff.c: 1086: if(copy_parentalLockBuffer[7] == '0' && PORTBbits.RB4 == 1 && M7 == 
      +                          1)
  1877  04B0  3030               	movlw	48
  1878  04B1  0021               	movlb	1	; select bank1
  1879  04B2  0639               	xorwf	(_copy_parentalLockBuffer^(0+128)+7),w
  1880  04B3  1D03               	btfss	3,2
  1881  04B4  2CD0               	goto	l4370
  1882  04B5  0020               	movlb	0	; select bank0
  1883  04B6  1E0D               	btfss	13,4	;volatile
  1884  04B7  2CD0               	goto	l4370
  1885  04B8  034F               	decf	_M7,w
  1886  04B9  0450               	iorwf	_M7+1,w
  1887  04BA  1D03               	btfss	3,2
  1888  04BB  2CD0               	goto	l4370
  1889                           
  1890                           ;megaonoff.c: 1087: {
  1891                           ;megaonoff.c: 1088: if(man==1)
  1892  04BC  0021               	movlb	1	; select bank1
  1893  04BD  0350               	decf	main@man^(0+128),w
  1894  04BE  0451               	iorwf	(main@man+1)^(0+128),w
  1895  04BF  1D03               	btfss	3,2
  1896  04C0  2CCA               	goto	l4366
  1897                           
  1898                           ;megaonoff.c: 1089: {
  1899                           ;megaonoff.c: 1091: SwitchOffStatustToGatway('7');
  1900  04C1  3037               	movlw	55
  1901  04C2  3187  273D  3182   	fcall	_SwitchOffStatustToGatway
  1902                           
  1903                           ;megaonoff.c: 1092: TransmissionIndicationLedBlinking();
  1904  04C5  318F  275C  3182   	fcall	_TransmissionIndicationLedBlinking
  1905                           
  1906                           ;megaonoff.c: 1093: PORTFbits.RF5=0;
  1907  04C8  0025               	movlb	5	; select bank5
  1908  04C9  128C               	bcf	12,5	;volatile
  1909  04CA                     l4366:	
  1910                           
  1911                           ;megaonoff.c: 1094: }
  1912                           ;megaonoff.c: 1095: man=0;
  1913  04CA  0021               	movlb	1	; select bank1
  1914  04CB  01D0               	clrf	main@man^(0+128)
  1915  04CC  01D1               	clrf	(main@man+1)^(0+128)
  1916                           
  1917                           ;megaonoff.c: 1096: M7=0;
  1918  04CD  0020               	movlb	0	; select bank0
  1919  04CE  01CF               	clrf	_M7
  1920  04CF  01D0               	clrf	_M7+1
  1921  04D0                     l4370:	
  1922                           
  1923                           ;megaonoff.c: 1098: }
  1924                           ;megaonoff.c: 1103: if(copy_parentalLockBuffer[8] == '0' && PORTBbits.RB5 == 0 && M8 == 
      +                          0)
  1925  04D0  3030               	movlw	48
  1926  04D1  0021               	movlb	1	; select bank1
  1927  04D2  063A               	xorwf	(_copy_parentalLockBuffer^(0+128)+8),w
  1928  04D3  1D03               	btfss	3,2
  1929  04D4  2CF2               	goto	l4386
  1930  04D5  0020               	movlb	0	; select bank0
  1931  04D6  1A8D               	btfsc	13,5	;volatile
  1932  04D7  2CF2               	goto	l4386
  1933  04D8  084D               	movf	_M8,w
  1934  04D9  044E               	iorwf	_M8+1,w
  1935  04DA  1D03               	btfss	3,2
  1936  04DB  2CF2               	goto	l4386
  1937                           
  1938                           ;megaonoff.c: 1104: {
  1939                           ;megaonoff.c: 1105: if(man==1)
  1940  04DC  0021               	movlb	1	; select bank1
  1941  04DD  0350               	decf	main@man^(0+128),w
  1942  04DE  0451               	iorwf	(main@man+1)^(0+128),w
  1943  04DF  1D03               	btfss	3,2
  1944  04E0  2CEA               	goto	l4382
  1945                           
  1946                           ;megaonoff.c: 1106: {
  1947                           ;megaonoff.c: 1107: SwitchOnStatustToGatway('8');
  1948  04E1  3038               	movlw	56
  1949  04E2  3187  2709  3182   	fcall	_SwitchOnStatustToGatway
  1950                           
  1951                           ;megaonoff.c: 1108: TransmissionIndicationLedBlinking();
  1952  04E5  318F  275C  3182   	fcall	_TransmissionIndicationLedBlinking
  1953                           
  1954                           ;megaonoff.c: 1109: PORTFbits.RF4=1;
  1955  04E8  0025               	movlb	5	; select bank5
  1956  04E9  160C               	bsf	12,4	;volatile
  1957  04EA                     l4382:	
  1958                           
  1959                           ;megaonoff.c: 1110: }
  1960                           ;megaonoff.c: 1111: man=0;
  1961  04EA  0021               	movlb	1	; select bank1
  1962  04EB  01D0               	clrf	main@man^(0+128)
  1963  04EC  01D1               	clrf	(main@man+1)^(0+128)
  1964                           
  1965                           ;megaonoff.c: 1112: M8=1;
  1966  04ED  3001               	movlw	1
  1967  04EE  0020               	movlb	0	; select bank0
  1968  04EF  00CD               	movwf	_M8
  1969  04F0  3000               	movlw	0
  1970  04F1  00CE               	movwf	_M8+1
  1971  04F2                     l4386:	
  1972                           
  1973                           ;megaonoff.c: 1114: }
  1974                           ;megaonoff.c: 1116: if(copy_parentalLockBuffer[8] == '0' && PORTBbits.RB5 == 1 && M8 == 
      +                          1)
  1975  04F2  3030               	movlw	48
  1976  04F3  0021               	movlb	1	; select bank1
  1977  04F4  063A               	xorwf	(_copy_parentalLockBuffer^(0+128)+8),w
  1978  04F5  1D03               	btfss	3,2
  1979  04F6  2D12               	goto	l4402
  1980  04F7  0020               	movlb	0	; select bank0
  1981  04F8  1E8D               	btfss	13,5	;volatile
  1982  04F9  2D12               	goto	l4402
  1983  04FA  034D               	decf	_M8,w
  1984  04FB  044E               	iorwf	_M8+1,w
  1985  04FC  1D03               	btfss	3,2
  1986  04FD  2D12               	goto	l4402
  1987                           
  1988                           ;megaonoff.c: 1117: {
  1989                           ;megaonoff.c: 1118: if(man==1)
  1990  04FE  0021               	movlb	1	; select bank1
  1991  04FF  0350               	decf	main@man^(0+128),w
  1992  0500  0451               	iorwf	(main@man+1)^(0+128),w
  1993  0501  1D03               	btfss	3,2
  1994  0502  2D0C               	goto	l4398
  1995                           
  1996                           ;megaonoff.c: 1119: {
  1997                           ;megaonoff.c: 1121: SwitchOffStatustToGatway('8');
  1998  0503  3038               	movlw	56
  1999  0504  3187  273D  3182   	fcall	_SwitchOffStatustToGatway
  2000                           
  2001                           ;megaonoff.c: 1122: TransmissionIndicationLedBlinking();
  2002  0507  318F  275C  3182   	fcall	_TransmissionIndicationLedBlinking
  2003                           
  2004                           ;megaonoff.c: 1123: PORTFbits.RF4=0;
  2005  050A  0025               	movlb	5	; select bank5
  2006  050B  120C               	bcf	12,4	;volatile
  2007  050C                     l4398:	
  2008                           
  2009                           ;megaonoff.c: 1124: }
  2010                           ;megaonoff.c: 1125: man=0;
  2011  050C  0021               	movlb	1	; select bank1
  2012  050D  01D0               	clrf	main@man^(0+128)
  2013  050E  01D1               	clrf	(main@man+1)^(0+128)
  2014                           
  2015                           ;megaonoff.c: 1126: M8=0;
  2016  050F  0020               	movlb	0	; select bank0
  2017  0510  01CD               	clrf	_M8
  2018  0511  01CE               	clrf	_M8+1
  2019  0512                     l4402:	
  2020                           
  2021                           ;megaonoff.c: 1128: }
  2022                           ;megaonoff.c: 1130: if(copy_parentalLockBuffer[9] == '0' && PORTDbits.RD5 == 0 && M9 == 
      +                          0)
  2023  0512  3030               	movlw	48
  2024  0513  0021               	movlb	1	; select bank1
  2025  0514  063B               	xorwf	(_copy_parentalLockBuffer^(0+128)+9),w
  2026  0515  1D03               	btfss	3,2
  2027  0516  2D37               	goto	l4420
  2028  0517  0020               	movlb	0	; select bank0
  2029  0518  1A8F               	btfsc	15,5	;volatile
  2030  0519  2D37               	goto	l4420
  2031  051A  084B               	movf	_M9,w
  2032  051B  044C               	iorwf	_M9+1,w
  2033  051C  1D03               	btfss	3,2
  2034  051D  2D37               	goto	l4420
  2035                           
  2036                           ;megaonoff.c: 1131: {
  2037                           ;megaonoff.c: 1132: if(man==1)
  2038  051E  0021               	movlb	1	; select bank1
  2039  051F  0350               	decf	main@man^(0+128),w
  2040  0520  0451               	iorwf	(main@man+1)^(0+128),w
  2041  0521  1D03               	btfss	3,2
  2042  0522  2D2F               	goto	l384
  2043                           
  2044                           ;megaonoff.c: 1133: {
  2045                           ;megaonoff.c: 1135: start_PWM_Generation_in_ISR_FLAG = 0;
  2046  0523  0020               	movlb	0	; select bank0
  2047  0524  01C9               	clrf	_start_PWM_Generation_in_ISR_FLAG
  2048  0525  01CA               	clrf	_start_PWM_Generation_in_ISR_FLAG+1
  2049                           
  2050                           ;megaonoff.c: 1136: SwitchOnStatustToGatway('9');
  2051  0526  3039               	movlw	57
  2052  0527  3187  2709  3182   	fcall	_SwitchOnStatustToGatway
  2053                           
  2054                           ;megaonoff.c: 1137: TransmissionIndicationLedBlinking();
  2055  052A  318F  275C  3182   	fcall	_TransmissionIndicationLedBlinking
  2056                           
  2057                           ;megaonoff.c: 1138: PORTFbits.RF3=1;
  2058  052D  0025               	movlb	5	; select bank5
  2059  052E  158C               	bsf	12,3	;volatile
  2060  052F                     l384:	
  2061                           
  2062                           ;megaonoff.c: 1139: }
  2063                           ;megaonoff.c: 1140: man=0;
  2064  052F  0021               	movlb	1	; select bank1
  2065  0530  01D0               	clrf	main@man^(0+128)
  2066  0531  01D1               	clrf	(main@man+1)^(0+128)
  2067                           
  2068                           ;megaonoff.c: 1141: M9=1;
  2069  0532  3001               	movlw	1
  2070  0533  0020               	movlb	0	; select bank0
  2071  0534  00CB               	movwf	_M9
  2072  0535  3000               	movlw	0
  2073  0536  00CC               	movwf	_M9+1
  2074  0537                     l4420:	
  2075                           
  2076                           ;megaonoff.c: 1143: }
  2077                           ;megaonoff.c: 1145: if(copy_parentalLockBuffer[9] == '0' && PORTDbits.RD5 == 1 && M9 == 
      +                          1)
  2078  0537  3030               	movlw	48
  2079  0538  0021               	movlb	1	; select bank1
  2080  0539  063B               	xorwf	(_copy_parentalLockBuffer^(0+128)+9),w
  2081  053A  1D03               	btfss	3,2
  2082  053B  2A87               	goto	l4108
  2083  053C  0020               	movlb	0	; select bank0
  2084  053D  1E8F               	btfss	15,5	;volatile
  2085  053E  2A87               	goto	l4108
  2086  053F  034B               	decf	_M9,w
  2087  0540  044C               	iorwf	_M9+1,w
  2088  0541  1D03               	btfss	3,2
  2089  0542  2A87               	goto	l4108
  2090                           
  2091                           ;megaonoff.c: 1146: {
  2092                           ;megaonoff.c: 1147: if(man==1)
  2093  0543  0021               	movlb	1	; select bank1
  2094  0544  0350               	decf	main@man^(0+128),w
  2095  0545  0451               	iorwf	(main@man+1)^(0+128),w
  2096  0546  1D03               	btfss	3,2
  2097  0547  2D51               	goto	l4432
  2098                           
  2099                           ;megaonoff.c: 1148: {
  2100                           ;megaonoff.c: 1150: SwitchOffStatustToGatway('9');
  2101  0548  3039               	movlw	57
  2102  0549  3187  273D  3182   	fcall	_SwitchOffStatustToGatway
  2103                           
  2104                           ;megaonoff.c: 1151: TransmissionIndicationLedBlinking();
  2105  054C  318F  275C  3182   	fcall	_TransmissionIndicationLedBlinking
  2106                           
  2107                           ;megaonoff.c: 1152: PORTFbits.RF3=0;
  2108  054F  0025               	movlb	5	; select bank5
  2109  0550  118C               	bcf	12,3	;volatile
  2110  0551                     l4432:	
  2111                           
  2112                           ;megaonoff.c: 1153: }
  2113                           ;megaonoff.c: 1154: man=0;
  2114  0551  0021               	movlb	1	; select bank1
  2115  0552  01D0               	clrf	main@man^(0+128)
  2116  0553  01D1               	clrf	(main@man+1)^(0+128)
  2117                           
  2118                           ;megaonoff.c: 1155: M9=0;
  2119  0554  0020               	movlb	0	; select bank0
  2120  0555  01CB               	clrf	_M9
  2121  0556  01CC               	clrf	_M9+1
  2122  0557  2A87               	goto	l4108
  2123  0558                     __end_of_main:	
  2124                           
  2125                           	psect	text1
  2126  0FAD                     __ptext1:	
  2127 ;; *************** function _errorsMain *****************
  2128 ;; Defined at:
  2129 ;;		line 1456 in file "megaonoff.c"
  2130 ;; Parameters:    Size  Location     Type
  2131 ;;  errNum          2    0[BANK0 ] PTR const unsigned char 
  2132 ;;		 -> STR_3(5), 
  2133 ;; Auto vars:     Size  Location     Type
  2134 ;;		None
  2135 ;; Return value:  Size  Location     Type
  2136 ;;                  1    wreg      void 
  2137 ;; Registers used:
  2138 ;;		wreg, fsr0l, fsr0h, status,2, status,0, pclath
  2139 ;; Tracked objects:
  2140 ;;		On entry : 0/0
  2141 ;;		On exit  : 0/0
  2142 ;;		Unchanged: 0/0
  2143 ;; Data sizes:     COMMON   BANK0   BANK1   BANK2   BANK3   BANK4   BANK5   BANK6   BANK7   BANK8   BANK9
  2144 ;;      Params:         0       2       0       0       0       0       0       0       0       0       0
  2145 ;;      Locals:         0       0       0       0       0       0       0       0       0       0       0
  2146 ;;      Temps:          0       1       0       0       0       0       0       0       0       0       0
  2147 ;;      Totals:         0       3       0       0       0       0       0       0       0       0       0
  2148 ;;Total ram usage:        3 bytes
  2149 ;; Hardware stack levels used:    1
  2150 ;; Hardware stack levels required when called:    2
  2151 ;; This function calls:
  2152 ;;		Nothing
  2153 ;; This function is called by:
  2154 ;;		_main
  2155 ;; This function uses a non-reentrant model
  2156 ;;
  2157                           
  2158                           
  2159                           ;psect for function _errorsMain
  2160  0FAD                     _errorsMain:	
  2161  0FAD                     l4092:	
  2162                           ;megaonoff.c: 1458: while(*errNum != (0))
  2163                           
  2164                           ;incstack = 0
  2165                           ; Regs used in _errorsMain: [wreg-fsr0h+status,2+status,0+pclath]
  2166                           
  2167  0FAD  0020               	movlb	0	; select bank0
  2168  0FAE  0820               	movf	errorsMain@errNum,w
  2169  0FAF  0084               	movwf	4
  2170  0FB0  0821               	movf	errorsMain@errNum+1,w
  2171  0FB1  0085               	movwf	5
  2172  0FB2  0012               	moviw fsr0++
  2173  0FB3  1903               	btfsc	3,2
  2174  0FB4  0008               	return
  2175  0FB5                     l446:	
  2176                           ;megaonoff.c: 1459: {
  2177                           ;megaonoff.c: 1460: while (!TX1STAbits.TRMT);
  2178                           
  2179  0FB5  0023               	movlb	3	; select bank3
  2180  0FB6  1C9E               	btfss	30,1	;volatile
  2181  0FB7  2FB5               	goto	l446
  2182                           
  2183                           ;megaonoff.c: 1461: TX1REG = *errNum;
  2184  0FB8  0020               	movlb	0	; select bank0
  2185  0FB9  0820               	movf	errorsMain@errNum,w
  2186  0FBA  0084               	movwf	4
  2187  0FBB  0821               	movf	errorsMain@errNum+1,w
  2188  0FBC  0085               	movwf	5
  2189  0FBD  0800               	movf	0,w	;code access
  2190  0FBE  0023               	movlb	3	; select bank3
  2191  0FBF  009A               	movwf	26	;volatile
  2192                           
  2193                           ;megaonoff.c: 1462: *errNum++;
  2194  0FC0  3001               	movlw	1
  2195  0FC1  0020               	movlb	0	; select bank0
  2196  0FC2  07A0               	addwf	errorsMain@errNum,f
  2197  0FC3  3000               	movlw	0
  2198  0FC4  3DA1               	addwfc	errorsMain@errNum+1,f
  2199  0FC5  2FAD               	goto	l4092
  2200  0FC6                     __end_of_errorsMain:	
  2201                           
  2202                           	psect	text2
  2203  0771                     __ptext2:	
  2204 ;; *************** function _copyReceivedDataBuffer *****************
  2205 ;; Defined at:
  2206 ;;		line 1503 in file "megaonoff.c"
  2207 ;; Parameters:    Size  Location     Type
  2208 ;;		None
  2209 ;; Auto vars:     Size  Location     Type
  2210 ;;  dataBufferCo    2    1[BANK0 ] int 
  2211 ;; Return value:  Size  Location     Type
  2212 ;;                  1    wreg      void 
  2213 ;; Registers used:
  2214 ;;		wreg, fsr1l, fsr1h, status,2, status,0
  2215 ;; Tracked objects:
  2216 ;;		On entry : 0/0
  2217 ;;		On exit  : 0/0
  2218 ;;		Unchanged: 0/0
  2219 ;; Data sizes:     COMMON   BANK0   BANK1   BANK2   BANK3   BANK4   BANK5   BANK6   BANK7   BANK8   BANK9
  2220 ;;      Params:         0       0       0       0       0       0       0       0       0       0       0
  2221 ;;      Locals:         0       2       0       0       0       0       0       0       0       0       0
  2222 ;;      Temps:          0       1       0       0       0       0       0       0       0       0       0
  2223 ;;      Totals:         0       3       0       0       0       0       0       0       0       0       0
  2224 ;;Total ram usage:        3 bytes
  2225 ;; Hardware stack levels used:    1
  2226 ;; Hardware stack levels required when called:    2
  2227 ;; This function calls:
  2228 ;;		Nothing
  2229 ;; This function is called by:
  2230 ;;		_main
  2231 ;; This function uses a non-reentrant model
  2232 ;;
  2233                           
  2234                           
  2235                           ;psect for function _copyReceivedDataBuffer
  2236  0771                     _copyReceivedDataBuffer:	
  2237                           
  2238                           ;megaonoff.c: 1504: int dataBufferCounter=2;
  2239                           
  2240                           ;incstack = 0
  2241                           ; Regs used in _copyReceivedDataBuffer: [wreg+fsr1l+fsr1h+status,2+status,0]
  2242  0771  3002               	movlw	2
  2243  0772  0020               	movlb	0	; select bank0
  2244  0773  00A1               	movwf	copyReceivedDataBuffer@dataBufferCounter
  2245  0774  3000               	movlw	0
  2246  0775  00A2               	movwf	copyReceivedDataBuffer@dataBufferCounter+1
  2247                           
  2248                           ;megaonoff.c: 1505: for(dataBufferCounter=2;dataBufferCounter<9;dataBufferCounter++){
  2249  0776  3002               	movlw	2
  2250  0777  00A1               	movwf	copyReceivedDataBuffer@dataBufferCounter
  2251  0778  3000               	movlw	0
  2252  0779  00A2               	movwf	copyReceivedDataBuffer@dataBufferCounter+1
  2253  077A                     L1:	
  2254  077A  0822               	movf	copyReceivedDataBuffer@dataBufferCounter+1,w
  2255  077B  3A80               	xorlw	128
  2256  077C  00A0               	movwf	??_copyReceivedDataBuffer
  2257  077D  3080               	movlw	128
  2258  077E  0220               	subwf	??_copyReceivedDataBuffer,w
  2259  077F  1D03               	skipz
  2260  0780  2F83               	goto	u2375
  2261  0781  3009               	movlw	9
  2262  0782  0221               	subwf	copyReceivedDataBuffer@dataBufferCounter,w
  2263  0783                     u2375:	
  2264  0783  1803               	btfsc	3,0
  2265  0784  0008               	return
  2266                           
  2267                           ;megaonoff.c: 1506: tempReceivedDataBuffer[dataBufferCounter-2]=mainReceivedDataBuffer[d
      +                          ataBufferCounter];
  2268  0785  0020               	movlb	0	; select bank0
  2269  0786  0821               	movf	copyReceivedDataBuffer@dataBufferCounter,w
  2270  0787  3EA0               	addlw	(low (_mainReceivedDataBuffer| 0))& (0+255)
  2271  0788  0086               	movwf	6
  2272  0789  0187               	clrf	7
  2273  078A  0801               	movf	1,w
  2274  078B  00A0               	movwf	??_copyReceivedDataBuffer
  2275  078C  0821               	movf	copyReceivedDataBuffer@dataBufferCounter,w
  2276  078D  3EFE               	addlw	254
  2277  078E  3E5F               	addlw	(low (_tempReceivedDataBuffer| 0))& (0+255)
  2278  078F  0086               	movwf	6
  2279  0790  0187               	clrf	7
  2280  0791  0820               	movf	??_copyReceivedDataBuffer,w
  2281  0792  0081               	movwf	1
  2282                           
  2283                           ;megaonoff.c: 1507: mainReceivedDataBuffer[dataBufferCounter]='#';
  2284  0793  3023               	movlw	35
  2285  0794  00A0               	movwf	??_copyReceivedDataBuffer
  2286  0795  0821               	movf	copyReceivedDataBuffer@dataBufferCounter,w
  2287  0796  3EA0               	addlw	(low (_mainReceivedDataBuffer| 0))& (0+255)
  2288  0797  0086               	movwf	6
  2289  0798  0187               	clrf	7
  2290  0799  0820               	movf	??_copyReceivedDataBuffer,w
  2291  079A  0081               	movwf	1
  2292  079B  3001               	movlw	1
  2293  079C  07A1               	addwf	copyReceivedDataBuffer@dataBufferCounter,f
  2294  079D  3000               	movlw	0
  2295  079E  3DA2               	addwfc	copyReceivedDataBuffer@dataBufferCounter+1,f
  2296  079F  2F7A               	goto	L1
  2297  07A0                     __end_of_copyReceivedDataBuffer:	
  2298                           
  2299                           	psect	text3
  2300  0558                     __ptext3:	
  2301 ;; *************** function _applianceControl *****************
  2302 ;; Defined at:
  2303 ;;		line 1163 in file "megaonoff.c"
  2304 ;; Parameters:    Size  Location     Type
  2305 ;;  charSwitchMS    1    wreg     unsigned char 
  2306 ;;  charSwitchLS    1   14[BANK0 ] unsigned char 
  2307 ;;  charSwitchST    1   15[BANK0 ] unsigned char 
  2308 ;;  chDimmerSpee    1   16[BANK0 ] unsigned char 
  2309 ;;  chDimmerSpee    1   17[BANK0 ] unsigned char 
  2310 ;;  charParental    1   18[BANK0 ] unsigned char 
  2311 ;;  charFinalFra    1   19[BANK0 ] unsigned char 
  2312 ;; Auto vars:     Size  Location     Type
  2313 ;;  charSwitchMS    1   24[BANK0 ] unsigned char 
  2314 ;;  integerSwitc    2   33[BANK0 ] int 
  2315 ;;  currentState    2   31[BANK0 ] int 
  2316 ;;  integerSwitc    2   29[BANK0 ] int 
  2317 ;;  dimmerSpeedS    2   27[BANK0 ] unsigned char [2]
  2318 ;;  switchNumber    2   25[BANK0 ] unsigned char [2]
  2319 ;;  integerSpeed    2   22[BANK0 ] int 
  2320 ;; Return value:  Size  Location     Type
  2321 ;;                  1    wreg      void 
  2322 ;; Registers used:
  2323 ;;		wreg, fsr0l, fsr0h, fsr1l, fsr1h, status,2, status,0, pclath, cstack
  2324 ;; Tracked objects:
  2325 ;;		On entry : 0/0
  2326 ;;		On exit  : 0/0
  2327 ;;		Unchanged: 0/0
  2328 ;; Data sizes:     COMMON   BANK0   BANK1   BANK2   BANK3   BANK4   BANK5   BANK6   BANK7   BANK8   BANK9
  2329 ;;      Params:         0       6       0       0       0       0       0       0       0       0       0
  2330 ;;      Locals:         0      13       0       0       0       0       0       0       0       0       0
  2331 ;;      Temps:          0       2       0       0       0       0       0       0       0       0       0
  2332 ;;      Totals:         0      21       0       0       0       0       0       0       0       0       0
  2333 ;;Total ram usage:       21 bytes
  2334 ;; Hardware stack levels used:    1
  2335 ;; Hardware stack levels required when called:    4
  2336 ;; This function calls:
  2337 ;;		_atoi
  2338 ;;		_sendAcknowledgment
  2339 ;; This function is called by:
  2340 ;;		_main
  2341 ;; This function uses a non-reentrant model
  2342 ;;
  2343                           
  2344                           
  2345                           ;psect for function _applianceControl
  2346  0558                     _applianceControl:	
  2347                           
  2348                           ;incstack = 0
  2349                           ; Regs used in _applianceControl: [wreg-fsr1h+status,2+status,0+pclath+cstack]
  2350                           ;applianceControl@charSwitchMSB stored from wreg
  2351  0558  0020               	movlb	0	; select bank0
  2352  0559  00B8               	movwf	applianceControl@charSwitchMSB
  2353                           
  2354                           ;megaonoff.c: 1167: int integerSwitchNumber = 0;
  2355  055A  01BD               	clrf	applianceControl@integerSwitchNumber
  2356  055B  01BE               	clrf	applianceControl@integerSwitchNumber+1
  2357                           
  2358                           ;megaonoff.c: 1168: int integerSwitchState = 0;
  2359  055C  01C1               	clrf	applianceControl@integerSwitchState
  2360  055D  01C2               	clrf	applianceControl@integerSwitchState+1
  2361                           
  2362                           ;megaonoff.c: 1169: int integerSpeed = 0;
  2363  055E  01B6               	clrf	applianceControl@integerSpeed
  2364  055F  01B7               	clrf	applianceControl@integerSpeed+1
  2365                           
  2366                           ;megaonoff.c: 1170: int currentStateBufferPositions=0;
  2367  0560  01BF               	clrf	applianceControl@currentStateBufferPositions
  2368  0561  01C0               	clrf	applianceControl@currentStateBufferPositions+1
  2369                           
  2370                           ;megaonoff.c: 1173: char switchNumberStringBuffer[2]="#";
  2371  0562  086C               	movf	applianceControl@F3725+1,w
  2372  0563  00BA               	movwf	applianceControl@switchNumberStringBuffer+1
  2373  0564  086B               	movf	applianceControl@F3725,w
  2374  0565  00B9               	movwf	applianceControl@switchNumberStringBuffer
  2375                           
  2376                           ;megaonoff.c: 1174: char dimmerSpeedStringBuffer[2]="#";
  2377  0566  086A               	movf	applianceControl@F3727+1,w
  2378  0567  00BC               	movwf	applianceControl@dimmerSpeedStringBuffer+1
  2379  0568  0869               	movf	applianceControl@F3727,w
  2380  0569  00BB               	movwf	applianceControl@dimmerSpeedStringBuffer
  2381                           
  2382                           ;megaonoff.c: 1176: switchNumberStringBuffer[0]=charSwitchMSB;
  2383  056A  0838               	movf	applianceControl@charSwitchMSB,w
  2384  056B  00B4               	movwf	??_applianceControl
  2385  056C  0834               	movf	??_applianceControl,w
  2386  056D  00B9               	movwf	applianceControl@switchNumberStringBuffer
  2387                           
  2388                           ;megaonoff.c: 1177: switchNumberStringBuffer[1]=charSwitchLSB;
  2389  056E  082E               	movf	applianceControl@charSwitchLSB,w
  2390  056F  00B4               	movwf	??_applianceControl
  2391  0570  0834               	movf	??_applianceControl,w
  2392  0571  00BA               	movwf	applianceControl@switchNumberStringBuffer+1
  2393                           
  2394                           ;megaonoff.c: 1178: integerSwitchNumber = atoi(switchNumberStringBuffer);
  2395  0572  3039               	movlw	(low (applianceControl@switchNumberStringBuffer| 0))& (0+255)
  2396  0573  3186  2664  3185   	fcall	_atoi
  2397  0576  0020               	movlb	0	; select bank0
  2398  0577  0827               	movf	?_atoi+1,w
  2399  0578  00BE               	movwf	applianceControl@integerSwitchNumber+1
  2400  0579  0826               	movf	?_atoi,w
  2401  057A  00BD               	movwf	applianceControl@integerSwitchNumber
  2402                           
  2403                           ;megaonoff.c: 1182: integerSwitchState = charSwitchSTATE-'0';
  2404  057B  082F               	movf	applianceControl@charSwitchSTATE,w
  2405  057C  3ED0               	addlw	208
  2406  057D  00C1               	movwf	applianceControl@integerSwitchState
  2407  057E  30FF               	movlw	255
  2408  057F  1803               	skipnc
  2409  0580  3000               	movlw	0
  2410  0581  00C2               	movwf	applianceControl@integerSwitchState+1
  2411                           
  2412                           ;megaonoff.c: 1185: dimmerSpeedStringBuffer[0]=chDimmerSpeedMSB;
  2413  0582  0830               	movf	applianceControl@chDimmerSpeedMSB,w
  2414  0583  00B4               	movwf	??_applianceControl
  2415  0584  0834               	movf	??_applianceControl,w
  2416  0585  00BB               	movwf	applianceControl@dimmerSpeedStringBuffer
  2417                           
  2418                           ;megaonoff.c: 1186: dimmerSpeedStringBuffer[1]=chDimmerSpeedLSB;
  2419  0586  0831               	movf	applianceControl@chDimmerSpeedLSB,w
  2420  0587  00B4               	movwf	??_applianceControl
  2421  0588  0834               	movf	??_applianceControl,w
  2422  0589  00BC               	movwf	applianceControl@dimmerSpeedStringBuffer+1
  2423                           
  2424                           ;megaonoff.c: 1187: integerSpeed = atoi(dimmerSpeedStringBuffer);
  2425  058A  303B               	movlw	(low (applianceControl@dimmerSpeedStringBuffer| 0))& (0+255)
  2426  058B  3186  2664  3185   	fcall	_atoi
  2427  058E  0020               	movlb	0	; select bank0
  2428  058F  0827               	movf	?_atoi+1,w
  2429  0590  00B7               	movwf	applianceControl@integerSpeed+1
  2430  0591  0826               	movf	?_atoi,w
  2431  0592  00B6               	movwf	applianceControl@integerSpeed
  2432                           
  2433                           ;megaonoff.c: 1191: parentalLockBuffer[integerSwitchNumber] = charParentalControl;
  2434  0593  0832               	movf	applianceControl@charParentalControl,w
  2435  0594  00B4               	movwf	??_applianceControl
  2436  0595  083D               	movf	applianceControl@integerSwitchNumber,w
  2437  0596  3EC0               	addlw	(low (_parentalLockBuffer| 0))& (0+255)
  2438  0597  0086               	movwf	6
  2439  0598  0187               	clrf	7
  2440  0599  0834               	movf	??_applianceControl,w
  2441  059A  0081               	movwf	1
  2442                           
  2443                           ;megaonoff.c: 1192: copy_parentalLockBuffer[integerSwitchNumber]=parentalLockBuffer[inte
      +                          gerSwitchNumber];
  2444  059B  083D               	movf	applianceControl@integerSwitchNumber,w
  2445  059C  3EC0               	addlw	(low (_parentalLockBuffer| 0))& (0+255)
  2446  059D  0086               	movwf	6
  2447  059E  0187               	clrf	7
  2448  059F  0801               	movf	1,w
  2449  05A0  00B4               	movwf	??_applianceControl
  2450  05A1  083D               	movf	applianceControl@integerSwitchNumber,w
  2451  05A2  3EB2               	addlw	(low (_copy_parentalLockBuffer| 0))& (0+255)
  2452  05A3  0086               	movwf	6
  2453  05A4  0187               	clrf	7
  2454  05A5  0834               	movf	??_applianceControl,w
  2455  05A6  0081               	movwf	1
  2456                           
  2457                           ;megaonoff.c: 1195: currentStateBufferPositions = ((1+4*(integerSwitchNumber))-5);
  2458  05A7  083E               	movf	applianceControl@integerSwitchNumber+1,w
  2459  05A8  00B5               	movwf	??_applianceControl+1
  2460  05A9  083D               	movf	applianceControl@integerSwitchNumber,w
  2461  05AA  00B4               	movwf	??_applianceControl
  2462  05AB  35B4               	lslf	??_applianceControl,f
  2463  05AC  0DB5               	rlf	??_applianceControl+1,f
  2464  05AD  35B4               	lslf	??_applianceControl,f
  2465  05AE  0DB5               	rlf	??_applianceControl+1,f
  2466  05AF  0834               	movf	??_applianceControl,w
  2467  05B0  3EFC               	addlw	252
  2468  05B1  00BF               	movwf	applianceControl@currentStateBufferPositions
  2469  05B2  30FF               	movlw	255
  2470  05B3  3D35               	addwfc	??_applianceControl+1,w
  2471  05B4  00C0               	movwf	applianceControl@currentStateBufferPositions+1
  2472                           
  2473                           ;megaonoff.c: 1196: currentStateBuffer[currentStateBufferPositions++] = 'G';
  2474  05B5  3047               	movlw	71
  2475  05B6  00B4               	movwf	??_applianceControl
  2476  05B7  083F               	movf	applianceControl@currentStateBufferPositions,w
  2477  05B8  3E20               	addlw	(low (_currentStateBuffer| (0+256)))& (0+255)
  2478  05B9  0086               	movwf	6
  2479  05BA  3001               	movlw	1	; select bank2/3
  2480  05BB  0087               	movwf	7
  2481  05BC  0834               	movf	??_applianceControl,w
  2482  05BD  0081               	movwf	1
  2483  05BE  3001               	movlw	1
  2484  05BF  07BF               	addwf	applianceControl@currentStateBufferPositions,f
  2485  05C0  3000               	movlw	0
  2486  05C1  3DC0               	addwfc	applianceControl@currentStateBufferPositions+1,f
  2487                           
  2488                           ;megaonoff.c: 1197: currentStateBuffer[currentStateBufferPositions++] = charSwitchSTATE;
  2489  05C2  082F               	movf	applianceControl@charSwitchSTATE,w
  2490  05C3  00B4               	movwf	??_applianceControl
  2491  05C4  083F               	movf	applianceControl@currentStateBufferPositions,w
  2492  05C5  3E20               	addlw	(low (_currentStateBuffer| (0+256)))& (0+255)
  2493  05C6  0086               	movwf	6
  2494  05C7  3001               	movlw	1	; select bank2/3
  2495  05C8  0087               	movwf	7
  2496  05C9  0834               	movf	??_applianceControl,w
  2497  05CA  0081               	movwf	1
  2498  05CB  3001               	movlw	1
  2499  05CC  07BF               	addwf	applianceControl@currentStateBufferPositions,f
  2500  05CD  3000               	movlw	0
  2501  05CE  3DC0               	addwfc	applianceControl@currentStateBufferPositions+1,f
  2502                           
  2503                           ;megaonoff.c: 1198: currentStateBuffer[currentStateBufferPositions++] = charSwitchMSB;
  2504  05CF  0838               	movf	applianceControl@charSwitchMSB,w
  2505  05D0  00B4               	movwf	??_applianceControl
  2506  05D1  083F               	movf	applianceControl@currentStateBufferPositions,w
  2507  05D2  3E20               	addlw	(low (_currentStateBuffer| (0+256)))& (0+255)
  2508  05D3  0086               	movwf	6
  2509  05D4  3001               	movlw	1	; select bank2/3
  2510  05D5  0087               	movwf	7
  2511  05D6  0834               	movf	??_applianceControl,w
  2512  05D7  0081               	movwf	1
  2513  05D8  3001               	movlw	1
  2514  05D9  07BF               	addwf	applianceControl@currentStateBufferPositions,f
  2515  05DA  3000               	movlw	0
  2516  05DB  3DC0               	addwfc	applianceControl@currentStateBufferPositions+1,f
  2517                           
  2518                           ;megaonoff.c: 1199: currentStateBuffer[currentStateBufferPositions] = charSwitchLSB;
  2519  05DC  082E               	movf	applianceControl@charSwitchLSB,w
  2520  05DD  00B4               	movwf	??_applianceControl
  2521  05DE  083F               	movf	applianceControl@currentStateBufferPositions,w
  2522  05DF  3E20               	addlw	(low (_currentStateBuffer| (0+256)))& (0+255)
  2523  05E0  0086               	movwf	6
  2524  05E1  3001               	movlw	1	; select bank2/3
  2525  05E2  0087               	movwf	7
  2526  05E3  0834               	movf	??_applianceControl,w
  2527  05E4  0081               	movwf	1
  2528                           
  2529                           ;megaonoff.c: 1201: currentStateBufferPositions-=3;
  2530  05E5  30FD               	movlw	253
  2531  05E6  07BF               	addwf	applianceControl@currentStateBufferPositions,f
  2532  05E7  30FF               	movlw	255
  2533  05E8  3DC0               	addwfc	applianceControl@currentStateBufferPositions+1,f
  2534                           
  2535                           ;megaonoff.c: 1202: if(charFinalFrameState=='1')
  2536  05E9  3031               	movlw	49
  2537  05EA  0633               	xorwf	applianceControl@charFinalFrameState,w
  2538  05EB  1D03               	btfss	3,2
  2539  05EC  2E50               	goto	l4072
  2540                           
  2541                           ;megaonoff.c: 1203: {
  2542                           ;megaonoff.c: 1204: sendAcknowledgment(currentStateBuffer+currentStateBufferPositions);
  2543  05ED  083F               	movf	applianceControl@currentStateBufferPositions,w
  2544  05EE  3E20               	addlw	(low (_currentStateBuffer| (0+256)))& (0+255)
  2545  05EF  318F  27E2  3185   	fcall	_sendAcknowledgment
  2546                           
  2547                           ;megaonoff.c: 1205: }
  2548                           ;megaonoff.c: 1207: switch(integerSwitchNumber){
  2549  05F2  2E50               	goto	l4072
  2550  05F3                     l4046:	
  2551                           ;megaonoff.c: 1208: case 1:
  2552                           
  2553                           
  2554                           ;megaonoff.c: 1209: {
  2555                           ;megaonoff.c: 1210: PORTEbits.RE0 = integerSwitchState;
  2556  05F3  0020               	movlb	0	; select bank0
  2557  05F4  0C41               	rrf	applianceControl@integerSwitchState,w
  2558  05F5  1C03               	skipc
  2559  05F6  1010               	bcf	16,0	;volatile
  2560  05F7  1803               	skipnc
  2561  05F8  1410               	bsf	16,0	;volatile
  2562                           
  2563                           ;megaonoff.c: 1211: }break;
  2564  05F9  0008               	return
  2565  05FA                     l4048:	
  2566                           ;megaonoff.c: 1213: case 2:
  2567                           
  2568                           
  2569                           ;megaonoff.c: 1214: {
  2570                           ;megaonoff.c: 1215: PORTEbits.RE1 = integerSwitchState;
  2571  05FA  0C41               	rrf	applianceControl@integerSwitchState,w
  2572  05FB  1C03               	skipc
  2573  05FC  1090               	bcf	16,1	;volatile
  2574  05FD  1803               	skipnc
  2575  05FE  1490               	bsf	16,1	;volatile
  2576                           
  2577                           ;megaonoff.c: 1217: } break;
  2578  05FF  0008               	return
  2579  0600                     l4050:	
  2580                           ;megaonoff.c: 1218: case 3:
  2581                           
  2582                           
  2583                           ;megaonoff.c: 1219: {
  2584                           ;megaonoff.c: 1220: PORTGbits.RG0 = integerSwitchState;
  2585  0600  0C41               	rrf	applianceControl@integerSwitchState,w
  2586  0601  0025               	movlb	5	; select bank5
  2587  0602  1C03               	skipc
  2588  0603  100D               	bcf	13,0	;volatile
  2589  0604  1803               	skipnc
  2590  0605  140D               	bsf	13,0	;volatile
  2591                           
  2592                           ;megaonoff.c: 1222: } break;
  2593  0606  0008               	return
  2594  0607                     l4052:	
  2595                           ;megaonoff.c: 1224: case 4:
  2596                           
  2597                           
  2598                           ;megaonoff.c: 1225: {
  2599                           ;megaonoff.c: 1226: PORTGbits.RG3 = integerSwitchState;
  2600  0607  0020               	movlb	0	; select bank0
  2601  0608  0C41               	rrf	applianceControl@integerSwitchState,w
  2602  0609  0025               	movlb	5	; select bank5
  2603  060A  1C03               	skipc
  2604  060B  118D               	bcf	13,3	;volatile
  2605  060C  1803               	skipnc
  2606  060D  158D               	bsf	13,3	;volatile
  2607                           
  2608                           ;megaonoff.c: 1227: }break;
  2609  060E  0008               	return
  2610  060F                     l4054:	
  2611                           ;megaonoff.c: 1228: case 5:
  2612                           
  2613                           
  2614                           ;megaonoff.c: 1229: {
  2615                           ;megaonoff.c: 1230: PORTGbits.RG4 = integerSwitchState;
  2616  060F  0020               	movlb	0	; select bank0
  2617  0610  0C41               	rrf	applianceControl@integerSwitchState,w
  2618  0611  0025               	movlb	5	; select bank5
  2619  0612  1C03               	skipc
  2620  0613  120D               	bcf	13,4	;volatile
  2621  0614  1803               	skipnc
  2622  0615  160D               	bsf	13,4	;volatile
  2623                           
  2624                           ;megaonoff.c: 1231: }break;
  2625  0616  0008               	return
  2626  0617                     l4056:	
  2627                           ;megaonoff.c: 1232: case 6:
  2628                           
  2629                           
  2630                           ;megaonoff.c: 1233: {
  2631                           ;megaonoff.c: 1234: PORTFbits.RF6 = integerSwitchState;
  2632  0617  0020               	movlb	0	; select bank0
  2633  0618  0C41               	rrf	applianceControl@integerSwitchState,w
  2634  0619  0025               	movlb	5	; select bank5
  2635  061A  1C03               	skipc
  2636  061B  130C               	bcf	12,6	;volatile
  2637  061C  1803               	skipnc
  2638  061D  170C               	bsf	12,6	;volatile
  2639                           
  2640                           ;megaonoff.c: 1235: }break;
  2641  061E  0008               	return
  2642  061F                     l4058:	
  2643                           ;megaonoff.c: 1237: case 7:
  2644                           
  2645                           
  2646                           ;megaonoff.c: 1238: {
  2647                           ;megaonoff.c: 1239: PORTFbits.RF5 = integerSwitchState;
  2648  061F  0020               	movlb	0	; select bank0
  2649  0620  0C41               	rrf	applianceControl@integerSwitchState,w
  2650  0621  0025               	movlb	5	; select bank5
  2651  0622  1C03               	skipc
  2652  0623  128C               	bcf	12,5	;volatile
  2653  0624  1803               	skipnc
  2654  0625  168C               	bsf	12,5	;volatile
  2655                           
  2656                           ;megaonoff.c: 1240: }break;
  2657  0626  0008               	return
  2658  0627                     l4060:	
  2659                           ;megaonoff.c: 1242: case 8:
  2660                           
  2661                           
  2662                           ;megaonoff.c: 1243: {
  2663                           ;megaonoff.c: 1244: PORTFbits.RF4 = integerSwitchState;
  2664  0627  0020               	movlb	0	; select bank0
  2665  0628  0C41               	rrf	applianceControl@integerSwitchState,w
  2666  0629  0025               	movlb	5	; select bank5
  2667  062A  1C03               	skipc
  2668  062B  120C               	bcf	12,4	;volatile
  2669  062C  1803               	skipnc
  2670  062D  160C               	bsf	12,4	;volatile
  2671                           
  2672                           ;megaonoff.c: 1245: }break;
  2673  062E  0008               	return
  2674  062F                     l4062:	
  2675                           ;megaonoff.c: 1246: case 9:{
  2676                           
  2677                           
  2678                           ;megaonoff.c: 1247: start_PWM_Generation_in_ISR_FLAG = integerSwitchState;
  2679  062F  0020               	movlb	0	; select bank0
  2680  0630  0842               	movf	applianceControl@integerSwitchState+1,w
  2681  0631  00CA               	movwf	_start_PWM_Generation_in_ISR_FLAG+1
  2682  0632  0841               	movf	applianceControl@integerSwitchState,w
  2683  0633  00C9               	movwf	_start_PWM_Generation_in_ISR_FLAG
  2684                           
  2685                           ;megaonoff.c: 1248: switch(integerSwitchState){
  2686  0634  2E42               	goto	l4068
  2687  0635                     l409:	
  2688                           ;megaonoff.c: 1249: case 0:
  2689                           
  2690                           
  2691                           ;megaonoff.c: 1250: PORTFbits.RF3=1;
  2692  0635  0025               	movlb	5	; select bank5
  2693  0636  158C               	bsf	12,3	;volatile
  2694                           
  2695                           ;megaonoff.c: 1251: break;
  2696  0637  0008               	return
  2697  0638                     l4064:	
  2698                           ;megaonoff.c: 1252: case 1:
  2699                           
  2700                           
  2701                           ;megaonoff.c: 1253: levelofDimmer_MSB = chDimmerSpeedMSB;
  2702  0638  0020               	movlb	0	; select bank0
  2703  0639  0830               	movf	applianceControl@chDimmerSpeedMSB,w
  2704  063A  00B4               	movwf	??_applianceControl
  2705  063B  0834               	movf	??_applianceControl,w
  2706  063C  00F8               	movwf	_levelofDimmer_MSB
  2707                           
  2708                           ;megaonoff.c: 1254: levelofDimmer_LSB = chDimmerSpeedLSB;
  2709  063D  0831               	movf	applianceControl@chDimmerSpeedLSB,w
  2710  063E  00B4               	movwf	??_applianceControl
  2711  063F  0834               	movf	??_applianceControl,w
  2712  0640  00F7               	movwf	_levelofDimmer_LSB
  2713                           
  2714                           ;megaonoff.c: 1258: }
  2715                           
  2716                           ;megaonoff.c: 1257: break;
  2717                           
  2718                           ;megaonoff.c: 1256: default:
  2719                           
  2720                           ;megaonoff.c: 1255: break;
  2721  0641  0008               	return
  2722  0642                     l4068:	
  2723                           
  2724                           ; Switch on 2 bytes has been partitioned into a top level switch of size 1, and 1 sub-sw
      +                          itches
  2725                           ; Switch size 1, requested type "space"
  2726                           ; Number of cases is 1, Range of values is 0 to 0
  2727                           ; switch strategies available:
  2728                           ; Name         Instructions Cycles
  2729                           ; simple_byte            4     3 (average)
  2730                           ; direct_byte            8     6 (fixed)
  2731                           ; jumptable            260     6 (fixed)
  2732                           ;	Chosen strategy is simple_byte
  2733  0642  0842               	movf	applianceControl@integerSwitchState+1,w
  2734  0643  3A00               	xorlw	0	; case 0
  2735  0644  1903               	skipnz
  2736  0645  2E47               	goto	l4716
  2737  0646  2E63               	goto	l414
  2738  0647                     l4716:	
  2739                           
  2740                           ; Switch size 1, requested type "space"
  2741                           ; Number of cases is 2, Range of values is 0 to 1
  2742                           ; switch strategies available:
  2743                           ; Name         Instructions Cycles
  2744                           ; simple_byte            7     4 (average)
  2745                           ; direct_byte           10     6 (fixed)
  2746                           ; jumptable            260     6 (fixed)
  2747                           ;	Chosen strategy is simple_byte
  2748  0647  0841               	movf	applianceControl@integerSwitchState,w
  2749  0648  3A00               	xorlw	0	; case 0
  2750  0649  1903               	skipnz
  2751  064A  2E35               	goto	l409
  2752  064B  3A01               	xorlw	1	; case 1
  2753  064C  1903               	skipnz
  2754  064D  2E38               	goto	l4064
  2755  064E  2E63               	goto	l414
  2756                           
  2757                           ;megaonoff.c: 1262: }
  2758                           
  2759                           ;megaonoff.c: 1261: break;
  2760                           
  2761                           ;megaonoff.c: 1260: default:
  2762                           
  2763                           ;megaonoff.c: 1259: }break;
  2764  064F  0008               	return
  2765  0650                     l4072:	
  2766                           
  2767                           ; Switch on 2 bytes has been partitioned into a top level switch of size 1, and 1 sub-sw
      +                          itches
  2768                           ; Switch size 1, requested type "space"
  2769                           ; Number of cases is 1, Range of values is 0 to 0
  2770                           ; switch strategies available:
  2771                           ; Name         Instructions Cycles
  2772                           ; simple_byte            4     3 (average)
  2773                           ; direct_byte            8     6 (fixed)
  2774                           ; jumptable            260     6 (fixed)
  2775                           ;	Chosen strategy is simple_byte
  2776  0650  0020               	movlb	0	; select bank0
  2777  0651  083E               	movf	applianceControl@integerSwitchNumber+1,w
  2778  0652  3A00               	xorlw	0	; case 0
  2779  0653  1903               	skipnz
  2780  0654  2E56               	goto	l4718
  2781  0655  2E63               	goto	l414
  2782  0656                     l4718:	
  2783                           
  2784                           ; Switch size 1, requested type "space"
  2785                           ; Number of cases is 9, Range of values is 1 to 9
  2786                           ; switch strategies available:
  2787                           ; Name         Instructions Cycles
  2788                           ; direct_byte           27     9 (fixed)
  2789                           ; simple_byte           28    15 (average)
  2790                           ; jumptable            263     9 (fixed)
  2791                           ;	Chosen strategy is direct_byte
  2792  0656  083D               	movf	applianceControl@integerSwitchNumber,w
  2793  0657  3EFF               	addlw	-1
  2794  0658  1C03               	skipc
  2795  0659  0008               	return
  2796  065A  0084               	movwf	4
  2797  065B  3009               	movlw	9
  2798  065C  0204               	subwf	4,w
  2799  065D  1803               	skipnc
  2800  065E  0008               	return
  2801  065F  3188               	movlp	high S4720
  2802  0660  3504               	lslf	4,w
  2803  0661  3EDC               	addlw	low S4720
  2804  0662  0082               	movwf	2
  2805  0663                     l414:	
  2806  0663  0008               	return
  2807  0664                     __end_of_applianceControl:	
  2808                           
  2809                           	psect	swtext1
  2810  08DC                     __pswtext1:	
  2811  08DC                     S4720:	
  2812  08DC  3185  2DF3         	ljmp	l4046
  2813  08DE  3185  2DFA         	ljmp	l4048
  2814  08E0  3186  2E00         	ljmp	l4050
  2815  08E2  3186  2E07         	ljmp	l4052
  2816  08E4  3186  2E0F         	ljmp	l4054
  2817  08E6  3186  2E17         	ljmp	l4056
  2818  08E8  3186  2E1F         	ljmp	l4058
  2819  08EA  3186  2E27         	ljmp	l4060
  2820  08EC  3186  2E2F         	ljmp	l4062
  2821                           
  2822                           	psect	text4
  2823  0FE2                     __ptext4:	
  2824 ;; *************** function _sendAcknowledgment *****************
  2825 ;; Defined at:
  2826 ;;		line 1478 in file "megaonoff.c"
  2827 ;; Parameters:    Size  Location     Type
  2828 ;;  currentState    1    wreg     PTR unsigned char 
  2829 ;;		 -> currentStateBuffer(58), 
  2830 ;; Auto vars:     Size  Location     Type
  2831 ;;  currentState    1    3[BANK0 ] PTR unsigned char 
  2832 ;;		 -> currentStateBuffer(58), 
  2833 ;;  Tx_count        2    1[BANK0 ] int 
  2834 ;; Return value:  Size  Location     Type
  2835 ;;                  1    wreg      void 
  2836 ;; Registers used:
  2837 ;;		wreg, fsr1l, fsr1h, status,2, status,0
  2838 ;; Tracked objects:
  2839 ;;		On entry : 0/0
  2840 ;;		On exit  : 0/0
  2841 ;;		Unchanged: 0/0
  2842 ;; Data sizes:     COMMON   BANK0   BANK1   BANK2   BANK3   BANK4   BANK5   BANK6   BANK7   BANK8   BANK9
  2843 ;;      Params:         0       0       0       0       0       0       0       0       0       0       0
  2844 ;;      Locals:         0       3       0       0       0       0       0       0       0       0       0
  2845 ;;      Temps:          0       1       0       0       0       0       0       0       0       0       0
  2846 ;;      Totals:         0       4       0       0       0       0       0       0       0       0       0
  2847 ;;Total ram usage:        4 bytes
  2848 ;; Hardware stack levels used:    1
  2849 ;; Hardware stack levels required when called:    2
  2850 ;; This function calls:
  2851 ;;		Nothing
  2852 ;; This function is called by:
  2853 ;;		_applianceControl
  2854 ;; This function uses a non-reentrant model
  2855 ;;
  2856                           
  2857                           
  2858                           ;psect for function _sendAcknowledgment
  2859  0FE2                     _sendAcknowledgment:	
  2860                           
  2861                           ;incstack = 0
  2862                           ; Regs used in _sendAcknowledgment: [wreg+fsr1l+fsr1h+status,2+status,0]
  2863                           ;sendAcknowledgment@currentStateBuffer stored from wreg
  2864  0FE2  0020               	movlb	0	; select bank0
  2865  0FE3  00A3               	movwf	sendAcknowledgment@currentStateBuffer
  2866                           
  2867                           ;megaonoff.c: 1479: int Tx_count=0;
  2868  0FE4  01A1               	clrf	sendAcknowledgment@Tx_count
  2869  0FE5  01A2               	clrf	sendAcknowledgment@Tx_count+1
  2870  0FE6                     l3878:	
  2871                           ;megaonoff.c: 1480: while(Tx_count!=4)
  2872                           
  2873  0FE6  3004               	movlw	4
  2874  0FE7  0621               	xorwf	sendAcknowledgment@Tx_count,w
  2875  0FE8  0422               	iorwf	sendAcknowledgment@Tx_count+1,w
  2876  0FE9  1903               	btfsc	3,2
  2877  0FEA  0008               	return
  2878  0FEB                     l461:	
  2879                           ;megaonoff.c: 1481: {
  2880                           ;megaonoff.c: 1482: while (!TX1STAbits.TRMT);
  2881                           
  2882  0FEB  0023               	movlb	3	; select bank3
  2883  0FEC  1C9E               	btfss	30,1	;volatile
  2884  0FED  2FEB               	goto	l461
  2885                           
  2886                           ;megaonoff.c: 1484: TX1REG = *currentStateBuffer;
  2887  0FEE  0020               	movlb	0	; select bank0
  2888  0FEF  0823               	movf	sendAcknowledgment@currentStateBuffer,w
  2889  0FF0  0086               	movwf	6
  2890  0FF1  3001               	movlw	1	; select bank2/3
  2891  0FF2  0087               	movwf	7
  2892  0FF3  0801               	movf	1,w
  2893  0FF4  0023               	movlb	3	; select bank3
  2894  0FF5  009A               	movwf	26	;volatile
  2895                           
  2896                           ;megaonoff.c: 1485: *currentStateBuffer++;
  2897  0FF6  3001               	movlw	1
  2898  0FF7  0020               	movlb	0	; select bank0
  2899  0FF8  00A0               	movwf	??_sendAcknowledgment
  2900  0FF9  0820               	movf	??_sendAcknowledgment,w
  2901  0FFA  07A3               	addwf	sendAcknowledgment@currentStateBuffer,f
  2902                           
  2903                           ;megaonoff.c: 1486: Tx_count++;
  2904  0FFB  3001               	movlw	1
  2905  0FFC  07A1               	addwf	sendAcknowledgment@Tx_count,f
  2906  0FFD  3000               	movlw	0
  2907  0FFE  3DA2               	addwfc	sendAcknowledgment@Tx_count+1,f
  2908  0FFF  2FE6               	goto	l3878
  2909  1000                     __end_of_sendAcknowledgment:	
  2910                           
  2911                           	psect	text5
  2912  0664                     __ptext5:	
  2913 ;; *************** function _atoi *****************
  2914 ;; Defined at:
  2915 ;;		line 5 in file "C:\Program Files (x86)\Microchip\xc8\v1.45\sources\common\atoi.c"
  2916 ;; Parameters:    Size  Location     Type
  2917 ;;  s               1    wreg     PTR const unsigned char 
  2918 ;;		 -> applianceControl@dimmerSpeedStringBuffer(2), applianceControl@switchNumberStringBuffer(2), 
  2919 ;; Auto vars:     Size  Location     Type
  2920 ;;  s               1   13[BANK0 ] PTR const unsigned char 
  2921 ;;		 -> applianceControl@dimmerSpeedStringBuffer(2), applianceControl@switchNumberStringBuffer(2), 
  2922 ;;  a               2   11[BANK0 ] int 
  2923 ;;  sign            1   10[BANK0 ] unsigned char 
  2924 ;; Return value:  Size  Location     Type
  2925 ;;                  2    6[BANK0 ] int 
  2926 ;; Registers used:
  2927 ;;		wreg, fsr1l, fsr1h, status,2, status,0, pclath, cstack
  2928 ;; Tracked objects:
  2929 ;;		On entry : 0/0
  2930 ;;		On exit  : 0/0
  2931 ;;		Unchanged: 0/0
  2932 ;; Data sizes:     COMMON   BANK0   BANK1   BANK2   BANK3   BANK4   BANK5   BANK6   BANK7   BANK8   BANK9
  2933 ;;      Params:         0       2       0       0       0       0       0       0       0       0       0
  2934 ;;      Locals:         0       4       0       0       0       0       0       0       0       0       0
  2935 ;;      Temps:          0       2       0       0       0       0       0       0       0       0       0
  2936 ;;      Totals:         0       8       0       0       0       0       0       0       0       0       0
  2937 ;;Total ram usage:        8 bytes
  2938 ;; Hardware stack levels used:    1
  2939 ;; Hardware stack levels required when called:    3
  2940 ;; This function calls:
  2941 ;;		___wmul
  2942 ;;		_isdigit
  2943 ;; This function is called by:
  2944 ;;		_applianceControl
  2945 ;; This function uses a non-reentrant model
  2946 ;;
  2947                           
  2948                           
  2949                           ;psect for function _atoi
  2950  0664                     _atoi:	
  2951                           
  2952                           ;incstack = 0
  2953                           ; Regs used in _atoi: [wreg+fsr1l+fsr1h+status,2+status,0+pclath+cstack]
  2954                           ;atoi@s stored from wreg
  2955  0664  0020               	movlb	0	; select bank0
  2956  0665  00AD               	movwf	atoi@s
  2957  0666                     l3840:	
  2958  0666  082D               	movf	atoi@s,w
  2959  0667  0086               	movwf	6
  2960  0668  0187               	clrf	7
  2961  0669  3020               	movlw	32
  2962  066A  0601               	xorwf	1,w
  2963  066B  1D03               	btfss	3,2
  2964  066C  2E72               	goto	l3842
  2965  066D                     l3838:	
  2966  066D  3001               	movlw	1
  2967  066E  00A8               	movwf	??_atoi
  2968  066F  0828               	movf	??_atoi,w
  2969  0670  07AD               	addwf	atoi@s,f
  2970  0671  2E66               	goto	l3840
  2971  0672                     l3842:	
  2972  0672  082D               	movf	atoi@s,w
  2973  0673  0086               	movwf	6
  2974  0674  0187               	clrf	7
  2975  0675  3009               	movlw	9
  2976  0676  0601               	xorwf	1,w
  2977  0677  1903               	btfsc	3,2
  2978  0678  2E6D               	goto	l3838
  2979  0679  01AB               	clrf	atoi@a
  2980  067A  01AC               	clrf	atoi@a+1
  2981  067B  01AA               	clrf	atoi@sign
  2982  067C  082D               	movf	atoi@s,w
  2983  067D  0086               	movwf	6
  2984  067E  0187               	clrf	7
  2985  067F  302D               	movlw	45
  2986  0680  0601               	xorwf	1,w
  2987  0681  1D03               	btfss	3,2
  2988  0682  2E88               	goto	l3850
  2989  0683  3001               	movlw	1
  2990  0684  00A8               	movwf	??_atoi
  2991  0685  0828               	movf	??_atoi,w
  2992  0686  07AA               	addwf	atoi@sign,f
  2993  0687  2E8F               	goto	l3856
  2994  0688                     l3850:	
  2995  0688  082D               	movf	atoi@s,w
  2996  0689  0086               	movwf	6
  2997  068A  0187               	clrf	7
  2998  068B  302B               	movlw	43
  2999  068C  0601               	xorwf	1,w
  3000  068D  1D03               	btfss	3,2
  3001  068E  2E93               	goto	l3858
  3002  068F                     l3856:	
  3003  068F  3001               	movlw	1
  3004  0690  00A8               	movwf	??_atoi
  3005  0691  0828               	movf	??_atoi,w
  3006  0692  07AD               	addwf	atoi@s,f
  3007  0693                     l3858:	
  3008  0693  082D               	movf	atoi@s,w
  3009  0694  0086               	movwf	6
  3010  0695  0187               	clrf	7
  3011  0696  0801               	movf	1,w
  3012  0697  318F  273C  3186   	fcall	_isdigit
  3013  069A  1C03               	btfss	3,0
  3014  069B  2EBA               	goto	l3860
  3015  069C  0020               	movlb	0	; select bank0
  3016  069D  082C               	movf	atoi@a+1,w
  3017  069E  00A1               	movwf	___wmul@multiplier+1
  3018  069F  082B               	movf	atoi@a,w
  3019  06A0  00A0               	movwf	___wmul@multiplier
  3020  06A1  300A               	movlw	10
  3021  06A2  00A2               	movwf	___wmul@multiplicand
  3022  06A3  3000               	movlw	0
  3023  06A4  00A3               	movwf	___wmul@multiplicand+1
  3024  06A5  318F  27C6  3186   	fcall	___wmul
  3025  06A8  0020               	movlb	0	; select bank0
  3026  06A9  082D               	movf	atoi@s,w
  3027  06AA  0086               	movwf	6
  3028  06AB  0187               	clrf	7
  3029  06AC  0801               	movf	1,w
  3030  06AD  0720               	addwf	?___wmul,w
  3031  06AE  00A8               	movwf	??_atoi
  3032  06AF  0821               	movf	?___wmul+1,w
  3033  06B0  1803               	skipnc
  3034  06B1  0A21               	incf	?___wmul+1,w
  3035  06B2  00A9               	movwf	??_atoi+1
  3036  06B3  0828               	movf	??_atoi,w
  3037  06B4  3ED0               	addlw	208
  3038  06B5  00AB               	movwf	atoi@a
  3039  06B6  30FF               	movlw	255
  3040  06B7  3D29               	addwfc	??_atoi+1,w
  3041  06B8  00AC               	movwf	atoi@a+1
  3042  06B9  2E8F               	goto	l3856
  3043  06BA                     l3860:	
  3044  06BA  0020               	movlb	0	; select bank0
  3045  06BB  082A               	movf	atoi@sign,w
  3046  06BC  1903               	btfsc	3,2
  3047  06BD  2ECA               	goto	l3866
  3048  06BE  092B               	comf	atoi@a,w
  3049  06BF  00A8               	movwf	??_atoi
  3050  06C0  092C               	comf	atoi@a+1,w
  3051  06C1  00A9               	movwf	??_atoi+1
  3052  06C2  0AA8               	incf	??_atoi,f
  3053  06C3  1903               	skipnz
  3054  06C4  0AA9               	incf	??_atoi+1,f
  3055  06C5  0828               	movf	??_atoi,w
  3056  06C6  00A6               	movwf	?_atoi
  3057  06C7  0829               	movf	??_atoi+1,w
  3058  06C8  00A7               	movwf	?_atoi+1
  3059  06C9  0008               	return
  3060  06CA                     l3866:	
  3061  06CA  082C               	movf	atoi@a+1,w
  3062  06CB  00A7               	movwf	?_atoi+1
  3063  06CC  082B               	movf	atoi@a,w
  3064  06CD  00A6               	movwf	?_atoi
  3065  06CE  0008               	return
  3066  06CF                     __end_of_atoi:	
  3067                           
  3068                           	psect	text6
  3069  0F3C                     __ptext6:	
  3070 ;; *************** function _isdigit *****************
  3071 ;; Defined at:
  3072 ;;		line 8 in file "C:\Program Files (x86)\Microchip\xc8\v1.45\sources\common\isdigit.c"
  3073 ;; Parameters:    Size  Location     Type
  3074 ;;  c               1    wreg     unsigned char 
  3075 ;; Auto vars:     Size  Location     Type
  3076 ;;  c               1    1[BANK0 ] unsigned char 
  3077 ;; Return value:  Size  Location     Type
  3078 ;;		None               void
  3079 ;; Registers used:
  3080 ;;		wreg, status,2, status,0
  3081 ;; Tracked objects:
  3082 ;;		On entry : 0/0
  3083 ;;		On exit  : 0/0
  3084 ;;		Unchanged: 0/0
  3085 ;; Data sizes:     COMMON   BANK0   BANK1   BANK2   BANK3   BANK4   BANK5   BANK6   BANK7   BANK8   BANK9
  3086 ;;      Params:         0       0       0       0       0       0       0       0       0       0       0
  3087 ;;      Locals:         0       2       0       0       0       0       0       0       0       0       0
  3088 ;;      Temps:          0       0       0       0       0       0       0       0       0       0       0
  3089 ;;      Totals:         0       2       0       0       0       0       0       0       0       0       0
  3090 ;;Total ram usage:        2 bytes
  3091 ;; Hardware stack levels used:    1
  3092 ;; Hardware stack levels required when called:    2
  3093 ;; This function calls:
  3094 ;;		Nothing
  3095 ;; This function is called by:
  3096 ;;		_atoi
  3097 ;; This function uses a non-reentrant model
  3098 ;;
  3099                           
  3100                           
  3101                           ;psect for function _isdigit
  3102  0F3C                     _isdigit:	
  3103                           
  3104                           ;incstack = 0
  3105                           ; Regs used in _isdigit: [wreg+status,2+status,0]
  3106                           ;isdigit@c stored from wreg
  3107  0F3C  0020               	movlb	0	; select bank0
  3108  0F3D  00A1               	movwf	isdigit@c
  3109  0F3E  01A0               	clrf	_isdigit$987
  3110  0F3F  303A               	movlw	58
  3111  0F40  0221               	subwf	isdigit@c,w
  3112  0F41  1803               	skipnc
  3113  0F42  2F49               	goto	l3832
  3114  0F43  3030               	movlw	48
  3115  0F44  0221               	subwf	isdigit@c,w
  3116  0F45  1C03               	skipc
  3117  0F46  2F49               	goto	l3832
  3118  0F47  01A0               	clrf	_isdigit$987
  3119  0F48  0AA0               	incf	_isdigit$987,f
  3120  0F49                     l3832:	
  3121  0F49  0C20               	rrf	_isdigit$987,w
  3122  0F4A  0008               	return
  3123  0F4B                     __end_of_isdigit:	
  3124                           
  3125                           	psect	text7
  3126  0FC6                     __ptext7:	
  3127 ;; *************** function ___wmul *****************
  3128 ;; Defined at:
  3129 ;;		line 15 in file "C:\Program Files (x86)\Microchip\xc8\v1.45\sources\common\Umul16.c"
  3130 ;; Parameters:    Size  Location     Type
  3131 ;;  multiplier      2    0[BANK0 ] unsigned int 
  3132 ;;  multiplicand    2    2[BANK0 ] unsigned int 
  3133 ;; Auto vars:     Size  Location     Type
  3134 ;;  product         2    4[BANK0 ] unsigned int 
  3135 ;; Return value:  Size  Location     Type
  3136 ;;                  2    0[BANK0 ] unsigned int 
  3137 ;; Registers used:
  3138 ;;		wreg, status,2, status,0
  3139 ;; Tracked objects:
  3140 ;;		On entry : 0/0
  3141 ;;		On exit  : 0/0
  3142 ;;		Unchanged: 0/0
  3143 ;; Data sizes:     COMMON   BANK0   BANK1   BANK2   BANK3   BANK4   BANK5   BANK6   BANK7   BANK8   BANK9
  3144 ;;      Params:         0       4       0       0       0       0       0       0       0       0       0
  3145 ;;      Locals:         0       2       0       0       0       0       0       0       0       0       0
  3146 ;;      Temps:          0       0       0       0       0       0       0       0       0       0       0
  3147 ;;      Totals:         0       6       0       0       0       0       0       0       0       0       0
  3148 ;;Total ram usage:        6 bytes
  3149 ;; Hardware stack levels used:    1
  3150 ;; Hardware stack levels required when called:    2
  3151 ;; This function calls:
  3152 ;;		Nothing
  3153 ;; This function is called by:
  3154 ;;		_atoi
  3155 ;; This function uses a non-reentrant model
  3156 ;;
  3157                           
  3158                           
  3159                           ;psect for function ___wmul
  3160  0FC6                     ___wmul:	
  3161                           
  3162                           ;incstack = 0
  3163                           ; Regs used in ___wmul: [wreg+status,2+status,0]
  3164  0FC6  0020               	movlb	0	; select bank0
  3165  0FC7  01A4               	clrf	___wmul@product
  3166  0FC8  01A5               	clrf	___wmul@product+1
  3167  0FC9                     l3812:	
  3168  0FC9  1C20               	btfss	___wmul@multiplier,0
  3169  0FCA  2FCF               	goto	l486
  3170  0FCB  0822               	movf	___wmul@multiplicand,w
  3171  0FCC  07A4               	addwf	___wmul@product,f
  3172  0FCD  0823               	movf	___wmul@multiplicand+1,w
  3173  0FCE  3DA5               	addwfc	___wmul@product+1,f
  3174  0FCF                     l486:	
  3175  0FCF  3001               	movlw	1
  3176  0FD0                     u2245:	
  3177  0FD0  35A2               	lslf	___wmul@multiplicand,f
  3178  0FD1  0DA3               	rlf	___wmul@multiplicand+1,f
  3179  0FD2  0B89               	decfsz	9,f
  3180  0FD3  2FD0               	goto	u2245
  3181  0FD4  3001               	movlw	1
  3182  0FD5                     u2255:	
  3183  0FD5  36A1               	lsrf	___wmul@multiplier+1,f
  3184  0FD6  0CA0               	rrf	___wmul@multiplier,f
  3185  0FD7  0B89               	decfsz	9,f
  3186  0FD8  2FD5               	goto	u2255
  3187  0FD9  0820               	movf	___wmul@multiplier,w
  3188  0FDA  0421               	iorwf	___wmul@multiplier+1,w
  3189  0FDB  1D03               	btfss	3,2
  3190  0FDC  2FC9               	goto	l3812
  3191  0FDD  0825               	movf	___wmul@product+1,w
  3192  0FDE  00A1               	movwf	?___wmul+1
  3193  0FDF  0824               	movf	___wmul@product,w
  3194  0FE0  00A0               	movwf	?___wmul
  3195  0FE1  0008               	return
  3196  0FE2                     __end_of___wmul:	
  3197                           
  3198                           	psect	text8
  3199  07F4                     __ptext8:	
  3200 ;; *************** function _allPeripheralInit *****************
  3201 ;; Defined at:
  3202 ;;		line 1314 in file "megaonoff.c"
  3203 ;; Parameters:    Size  Location     Type
  3204 ;;		None
  3205 ;; Auto vars:     Size  Location     Type
  3206 ;;		None
  3207 ;; Return value:  Size  Location     Type
  3208 ;;                  1    wreg      void 
  3209 ;; Registers used:
  3210 ;;		wreg, status,2, status,0, pclath, cstack
  3211 ;; Tracked objects:
  3212 ;;		On entry : 0/0
  3213 ;;		On exit  : 0/0
  3214 ;;		Unchanged: 0/0
  3215 ;; Data sizes:     COMMON   BANK0   BANK1   BANK2   BANK3   BANK4   BANK5   BANK6   BANK7   BANK8   BANK9
  3216 ;;      Params:         0       0       0       0       0       0       0       0       0       0       0
  3217 ;;      Locals:         0       0       0       0       0       0       0       0       0       0       0
  3218 ;;      Temps:          0       0       0       0       0       0       0       0       0       0       0
  3219 ;;      Totals:         0       0       0       0       0       0       0       0       0       0       0
  3220 ;;Total ram usage:        0 bytes
  3221 ;; Hardware stack levels used:    1
  3222 ;; Hardware stack levels required when called:    3
  3223 ;; This function calls:
  3224 ;;		_CCP9_Initialize
  3225 ;;		_EUSART_Initialize
  3226 ;;		_TMR1_Initialize
  3227 ;;		_TMR3_Initialize
  3228 ;; This function is called by:
  3229 ;;		_main
  3230 ;; This function uses a non-reentrant model
  3231 ;;
  3232                           
  3233                           
  3234                           ;psect for function _allPeripheralInit
  3235  07F4                     _allPeripheralInit:	
  3236                           
  3237                           ;megaonoff.c: 1315: EUSART_Initialize();
  3238                           
  3239                           ;incstack = 0
  3240                           ; Regs used in _allPeripheralInit: [wreg+status,2+status,0+pclath+cstack]
  3241  07F4  318F  2797  3187   	fcall	_EUSART_Initialize
  3242                           
  3243                           ;megaonoff.c: 1316: TMR1_Initialize();
  3244  07F7  318F  2708  3187   	fcall	_TMR1_Initialize
  3245                           
  3246                           ;megaonoff.c: 1317: TMR3_Initialize();
  3247  07FA  318F  2713  3187   	fcall	_TMR3_Initialize
  3248                           
  3249                           ;megaonoff.c: 1318: CCP9_Initialize();
  3250  07FD  318E  26FE         	fcall	_CCP9_Initialize
  3251  07FF  0008               	return
  3252  0800                     __end_of_allPeripheralInit:	
  3253                           
  3254                           	psect	text9
  3255  0F13                     __ptext9:	
  3256 ;; *************** function _TMR3_Initialize *****************
  3257 ;; Defined at:
  3258 ;;		line 1393 in file "megaonoff.c"
  3259 ;; Parameters:    Size  Location     Type
  3260 ;;		None
  3261 ;; Auto vars:     Size  Location     Type
  3262 ;;		None
  3263 ;; Return value:  Size  Location     Type
  3264 ;;                  1    wreg      void 
  3265 ;; Registers used:
  3266 ;;		status,2
  3267 ;; Tracked objects:
  3268 ;;		On entry : 0/0
  3269 ;;		On exit  : 0/0
  3270 ;;		Unchanged: 0/0
  3271 ;; Data sizes:     COMMON   BANK0   BANK1   BANK2   BANK3   BANK4   BANK5   BANK6   BANK7   BANK8   BANK9
  3272 ;;      Params:         0       0       0       0       0       0       0       0       0       0       0
  3273 ;;      Locals:         0       0       0       0       0       0       0       0       0       0       0
  3274 ;;      Temps:          0       0       0       0       0       0       0       0       0       0       0
  3275 ;;      Totals:         0       0       0       0       0       0       0       0       0       0       0
  3276 ;;Total ram usage:        0 bytes
  3277 ;; Hardware stack levels used:    1
  3278 ;; Hardware stack levels required when called:    2
  3279 ;; This function calls:
  3280 ;;		Nothing
  3281 ;; This function is called by:
  3282 ;;		_allPeripheralInit
  3283 ;; This function uses a non-reentrant model
  3284 ;;
  3285                           
  3286                           
  3287                           ;psect for function _TMR3_Initialize
  3288  0F13                     _TMR3_Initialize:	
  3289                           
  3290                           ;megaonoff.c: 1396: T3CON = 0x00;
  3291                           
  3292                           ;incstack = 0
  3293                           ; Regs used in _TMR3_Initialize: [status,2]
  3294  0F13  0028               	movlb	8	; select bank8
  3295  0F14  0193               	clrf	19	;volatile
  3296                           
  3297                           ;megaonoff.c: 1399: T3GCON = 0x00;
  3298  0F15  0194               	clrf	20	;volatile
  3299                           
  3300                           ;megaonoff.c: 1402: TMR3H = 0x00;
  3301  0F16  0192               	clrf	18	;volatile
  3302                           
  3303                           ;megaonoff.c: 1405: TMR3L = 0x00;
  3304  0F17  0191               	clrf	17	;volatile
  3305                           
  3306                           ;megaonoff.c: 1408: PIR3bits.TMR3IF = 0;
  3307  0F18  0020               	movlb	0	; select bank0
  3308  0F19  1013               	bcf	19,0	;volatile
  3309                           
  3310                           ;megaonoff.c: 1411: PIE3bits.TMR3IE = 1;
  3311  0F1A  0021               	movlb	1	; select bank1
  3312  0F1B  1413               	bsf	19,0	;volatile
  3313                           
  3314                           ;megaonoff.c: 1417: GIE = 1;
  3315  0F1C  178B               	bsf	11,7	;volatile
  3316                           
  3317                           ;megaonoff.c: 1420: PEIE = 1;
  3318  0F1D  170B               	bsf	11,6	;volatile
  3319  0F1E  0008               	return
  3320  0F1F                     __end_of_TMR3_Initialize:	
  3321                           
  3322                           	psect	text10
  3323  0F08                     __ptext10:	
  3324 ;; *************** function _TMR1_Initialize *****************
  3325 ;; Defined at:
  3326 ;;		line 1362 in file "megaonoff.c"
  3327 ;; Parameters:    Size  Location     Type
  3328 ;;		None
  3329 ;; Auto vars:     Size  Location     Type
  3330 ;;		None
  3331 ;; Return value:  Size  Location     Type
  3332 ;;                  1    wreg      void 
  3333 ;; Registers used:
  3334 ;;		status,2
  3335 ;; Tracked objects:
  3336 ;;		On entry : 0/0
  3337 ;;		On exit  : 0/0
  3338 ;;		Unchanged: 0/0
  3339 ;; Data sizes:     COMMON   BANK0   BANK1   BANK2   BANK3   BANK4   BANK5   BANK6   BANK7   BANK8   BANK9
  3340 ;;      Params:         0       0       0       0       0       0       0       0       0       0       0
  3341 ;;      Locals:         0       0       0       0       0       0       0       0       0       0       0
  3342 ;;      Temps:          0       0       0       0       0       0       0       0       0       0       0
  3343 ;;      Totals:         0       0       0       0       0       0       0       0       0       0       0
  3344 ;;Total ram usage:        0 bytes
  3345 ;; Hardware stack levels used:    1
  3346 ;; Hardware stack levels required when called:    2
  3347 ;; This function calls:
  3348 ;;		Nothing
  3349 ;; This function is called by:
  3350 ;;		_allPeripheralInit
  3351 ;; This function uses a non-reentrant model
  3352 ;;
  3353                           
  3354                           
  3355                           ;psect for function _TMR1_Initialize
  3356  0F08                     _TMR1_Initialize:	
  3357                           
  3358                           ;megaonoff.c: 1365: T1CON = 0x00;
  3359                           
  3360                           ;incstack = 0
  3361                           ; Regs used in _TMR1_Initialize: [status,2]
  3362  0F08  0020               	movlb	0	; select bank0
  3363  0F09  0198               	clrf	24	;volatile
  3364                           
  3365                           ;megaonoff.c: 1368: T1GCON = 0x00;
  3366  0F0A  0199               	clrf	25	;volatile
  3367                           
  3368                           ;megaonoff.c: 1371: TMR1H = 0x00;
  3369  0F0B  0197               	clrf	23	;volatile
  3370                           
  3371                           ;megaonoff.c: 1374: TMR1L = 0x00;
  3372  0F0C  0196               	clrf	22	;volatile
  3373                           
  3374                           ;megaonoff.c: 1377: PIR1bits.TMR1IF = 0;
  3375  0F0D  1011               	bcf	17,0	;volatile
  3376                           
  3377                           ;megaonoff.c: 1380: PIE1bits.TMR1IE = 1;
  3378  0F0E  0021               	movlb	1	; select bank1
  3379  0F0F  1411               	bsf	17,0	;volatile
  3380                           
  3381                           ;megaonoff.c: 1386: GIE = 1;
  3382  0F10  178B               	bsf	11,7	;volatile
  3383                           
  3384                           ;megaonoff.c: 1389: PEIE = 1;
  3385  0F11  170B               	bsf	11,6	;volatile
  3386  0F12  0008               	return
  3387  0F13                     __end_of_TMR1_Initialize:	
  3388                           
  3389                           	psect	text11
  3390  0F97                     __ptext11:	
  3391 ;; *************** function _EUSART_Initialize *****************
  3392 ;; Defined at:
  3393 ;;		line 1324 in file "megaonoff.c"
  3394 ;; Parameters:    Size  Location     Type
  3395 ;;		None
  3396 ;; Auto vars:     Size  Location     Type
  3397 ;;		None
  3398 ;; Return value:  Size  Location     Type
  3399 ;;                  1    wreg      void 
  3400 ;; Registers used:
  3401 ;;		wreg
  3402 ;; Tracked objects:
  3403 ;;		On entry : 0/0
  3404 ;;		On exit  : 0/0
  3405 ;;		Unchanged: 0/0
  3406 ;; Data sizes:     COMMON   BANK0   BANK1   BANK2   BANK3   BANK4   BANK5   BANK6   BANK7   BANK8   BANK9
  3407 ;;      Params:         0       0       0       0       0       0       0       0       0       0       0
  3408 ;;      Locals:         0       0       0       0       0       0       0       0       0       0       0
  3409 ;;      Temps:          0       0       0       0       0       0       0       0       0       0       0
  3410 ;;      Totals:         0       0       0       0       0       0       0       0       0       0       0
  3411 ;;Total ram usage:        0 bytes
  3412 ;; Hardware stack levels used:    1
  3413 ;; Hardware stack levels required when called:    2
  3414 ;; This function calls:
  3415 ;;		Nothing
  3416 ;; This function is called by:
  3417 ;;		_allPeripheralInit
  3418 ;; This function uses a non-reentrant model
  3419 ;;
  3420                           
  3421                           
  3422                           ;psect for function _EUSART_Initialize
  3423  0F97                     _EUSART_Initialize:	
  3424                           
  3425                           ;megaonoff.c: 1325: PIE1bits.RC1IE = 0;
  3426                           
  3427                           ;incstack = 0
  3428                           ; Regs used in _EUSART_Initialize: [wreg]
  3429  0F97  0021               	movlb	1	; select bank1
  3430  0F98  1291               	bcf	17,5	;volatile
  3431                           
  3432                           ;megaonoff.c: 1326: PIE1bits.TX1IE = 0;
  3433  0F99  1211               	bcf	17,4	;volatile
  3434                           
  3435                           ;megaonoff.c: 1331: BAUD1CON = 0x0A;
  3436  0F9A  300A               	movlw	10
  3437  0F9B  0023               	movlb	3	; select bank3
  3438  0F9C  009F               	movwf	31	;volatile
  3439                           
  3440                           ;megaonoff.c: 1334: RC1STA = 0x90;
  3441  0F9D  3090               	movlw	144
  3442  0F9E  009D               	movwf	29	;volatile
  3443                           
  3444                           ;megaonoff.c: 1337: TX1STA = 0x24;
  3445  0F9F  3024               	movlw	36
  3446  0FA0  009E               	movwf	30	;volatile
  3447                           
  3448                           ;megaonoff.c: 1342: SP1BRGL = 0xA0;
  3449  0FA1  30A0               	movlw	160
  3450  0FA2  009B               	movwf	27	;volatile
  3451                           
  3452                           ;megaonoff.c: 1344: SP1BRGH = 0x01;
  3453  0FA3  3001               	movlw	1
  3454  0FA4  009C               	movwf	28	;volatile
  3455                           
  3456                           ;megaonoff.c: 1347: GIE = 1;
  3457  0FA5  178B               	bsf	11,7	;volatile
  3458                           
  3459                           ;megaonoff.c: 1350: PEIE = 1;
  3460  0FA6  170B               	bsf	11,6	;volatile
  3461                           
  3462                           ;megaonoff.c: 1353: PIE1bits.RC1IE = 1;
  3463  0FA7  0021               	movlb	1	; select bank1
  3464  0FA8  1691               	bsf	17,5	;volatile
  3465                           
  3466                           ;megaonoff.c: 1356: TX1STAbits.TXEN = 1;
  3467  0FA9  0023               	movlb	3	; select bank3
  3468  0FAA  169E               	bsf	30,5	;volatile
  3469                           
  3470                           ;megaonoff.c: 1359: RC1STAbits.SPEN = 1;
  3471  0FAB  179D               	bsf	29,7	;volatile
  3472  0FAC  0008               	return
  3473  0FAD                     __end_of_EUSART_Initialize:	
  3474                           
  3475                           	psect	text12
  3476  0EFE                     __ptext12:	
  3477 ;; *************** function _CCP9_Initialize *****************
  3478 ;; Defined at:
  3479 ;;		line 1423 in file "megaonoff.c"
  3480 ;; Parameters:    Size  Location     Type
  3481 ;;		None
  3482 ;; Auto vars:     Size  Location     Type
  3483 ;;		None
  3484 ;; Return value:  Size  Location     Type
  3485 ;;                  1    wreg      void 
  3486 ;; Registers used:
  3487 ;;		wreg, status,2
  3488 ;; Tracked objects:
  3489 ;;		On entry : 0/0
  3490 ;;		On exit  : 0/0
  3491 ;;		Unchanged: 0/0
  3492 ;; Data sizes:     COMMON   BANK0   BANK1   BANK2   BANK3   BANK4   BANK5   BANK6   BANK7   BANK8   BANK9
  3493 ;;      Params:         0       0       0       0       0       0       0       0       0       0       0
  3494 ;;      Locals:         0       0       0       0       0       0       0       0       0       0       0
  3495 ;;      Temps:          0       0       0       0       0       0       0       0       0       0       0
  3496 ;;      Totals:         0       0       0       0       0       0       0       0       0       0       0
  3497 ;;Total ram usage:        0 bytes
  3498 ;; Hardware stack levels used:    1
  3499 ;; Hardware stack levels required when called:    2
  3500 ;; This function calls:
  3501 ;;		Nothing
  3502 ;; This function is called by:
  3503 ;;		_allPeripheralInit
  3504 ;; This function uses a non-reentrant model
  3505 ;;
  3506                           
  3507                           
  3508                           ;psect for function _CCP9_Initialize
  3509  0EFE                     _CCP9_Initialize:	
  3510                           
  3511                           ;megaonoff.c: 1427: CCP9CON = 0x84;
  3512                           
  3513                           ;incstack = 0
  3514                           ; Regs used in _CCP9_Initialize: [wreg+status,2]
  3515  0EFE  3084               	movlw	132
  3516  0EFF  002C               	movlb	12	; select bank12
  3517  0F00  009C               	movwf	28	;volatile
  3518                           
  3519                           ;megaonoff.c: 1430: CCPR9H = 0x00;
  3520  0F01  019B               	clrf	27	;volatile
  3521                           
  3522                           ;megaonoff.c: 1433: CCPR9L = 0x00;
  3523  0F02  019A               	clrf	26	;volatile
  3524                           
  3525                           ;megaonoff.c: 1439: PIR4bits.CCP9IF = 0;
  3526  0F03  0020               	movlb	0	; select bank0
  3527  0F04  1314               	bcf	20,6	;volatile
  3528                           
  3529                           ;megaonoff.c: 1442: PIE4bits.CCP9IE = 1;
  3530  0F05  0021               	movlb	1	; select bank1
  3531  0F06  1714               	bsf	20,6	;volatile
  3532  0F07  0008               	return
  3533  0F08                     __end_of_CCP9_Initialize:	
  3534                           
  3535                           	psect	text13
  3536  0F5C                     __ptext13:	
  3537 ;; *************** function _TransmissionIndicationLedBlinking *****************
  3538 ;; Defined at:
  3539 ;;		line 1467 in file "megaonoff.c"
  3540 ;; Parameters:    Size  Location     Type
  3541 ;;		None
  3542 ;; Auto vars:     Size  Location     Type
  3543 ;;		None
  3544 ;; Return value:  Size  Location     Type
  3545 ;;                  1    wreg      void 
  3546 ;; Registers used:
  3547 ;;		wreg
  3548 ;; Tracked objects:
  3549 ;;		On entry : 0/0
  3550 ;;		On exit  : 0/0
  3551 ;;		Unchanged: 0/0
  3552 ;; Data sizes:     COMMON   BANK0   BANK1   BANK2   BANK3   BANK4   BANK5   BANK6   BANK7   BANK8   BANK9
  3553 ;;      Params:         0       0       0       0       0       0       0       0       0       0       0
  3554 ;;      Locals:         0       0       0       0       0       0       0       0       0       0       0
  3555 ;;      Temps:          0       2       0       0       0       0       0       0       0       0       0
  3556 ;;      Totals:         0       2       0       0       0       0       0       0       0       0       0
  3557 ;;Total ram usage:        2 bytes
  3558 ;; Hardware stack levels used:    1
  3559 ;; Hardware stack levels required when called:    2
  3560 ;; This function calls:
  3561 ;;		Nothing
  3562 ;; This function is called by:
  3563 ;;		_main
  3564 ;; This function uses a non-reentrant model
  3565 ;;
  3566                           
  3567                           
  3568                           ;psect for function _TransmissionIndicationLedBlinking
  3569  0F5C                     _TransmissionIndicationLedBlinking:	
  3570                           
  3571                           ;megaonoff.c: 1468: PORTFbits.RF0 = 0;
  3572                           
  3573                           ;incstack = 0
  3574                           ; Regs used in _TransmissionIndicationLedBlinking: [wreg]
  3575  0F5C  0025               	movlb	5	; select bank5
  3576  0F5D  100C               	bcf	12,0	;volatile
  3577                           
  3578                           ;megaonoff.c: 1469: _delay((unsigned long)((100)*(16000000/4000.0)));
  3579  0F5E  3003               	movlw	3
  3580  0F5F  0020               	movlb	0	; select bank0
  3581  0F60  00A1               	movwf	??_TransmissionIndicationLedBlinking+1
  3582  0F61  3008               	movlw	8
  3583  0F62  00A0               	movwf	??_TransmissionIndicationLedBlinking
  3584  0F63  3077               	movlw	119
  3585  0F64                     u3227:	
  3586  0F64  0B89               	decfsz	9,f
  3587  0F65  2F64               	goto	u3227
  3588  0F66  0BA0               	decfsz	??_TransmissionIndicationLedBlinking,f
  3589  0F67  2F64               	goto	u3227
  3590  0F68  0BA1               	decfsz	??_TransmissionIndicationLedBlinking+1,f
  3591  0F69  2F64               	goto	u3227
  3592                           
  3593                           ;megaonoff.c: 1470: PORTFbits.RF0 = 1;
  3594  0F6A  0025               	movlb	5	; select bank5
  3595  0F6B  140C               	bsf	12,0	;volatile
  3596  0F6C  0008               	return
  3597  0F6D                     __end_of_TransmissionIndicationLedBlinking:	
  3598                           
  3599                           	psect	text14
  3600  0709                     __ptext14:	
  3601 ;; *************** function _SwitchOnStatustToGatway *****************
  3602 ;; Defined at:
  3603 ;;		line 1496 in file "megaonoff.c"
  3604 ;; Parameters:    Size  Location     Type
  3605 ;;  SwitchOnNumb    1    wreg     const unsigned char 
  3606 ;; Auto vars:     Size  Location     Type
  3607 ;;  SwitchOnNumb    1    1[BANK0 ] const unsigned char 
  3608 ;; Return value:  Size  Location     Type
  3609 ;;                  1    wreg      void 
  3610 ;; Registers used:
  3611 ;;		wreg
  3612 ;; Tracked objects:
  3613 ;;		On entry : 0/0
  3614 ;;		On exit  : 0/0
  3615 ;;		Unchanged: 0/0
  3616 ;; Data sizes:     COMMON   BANK0   BANK1   BANK2   BANK3   BANK4   BANK5   BANK6   BANK7   BANK8   BANK9
  3617 ;;      Params:         0       0       0       0       0       0       0       0       0       0       0
  3618 ;;      Locals:         0       1       0       0       0       0       0       0       0       0       0
  3619 ;;      Temps:          0       1       0       0       0       0       0       0       0       0       0
  3620 ;;      Totals:         0       2       0       0       0       0       0       0       0       0       0
  3621 ;;Total ram usage:        2 bytes
  3622 ;; Hardware stack levels used:    1
  3623 ;; Hardware stack levels required when called:    2
  3624 ;; This function calls:
  3625 ;;		Nothing
  3626 ;; This function is called by:
  3627 ;;		_main
  3628 ;; This function uses a non-reentrant model
  3629 ;;
  3630                           
  3631                           
  3632                           ;psect for function _SwitchOnStatustToGatway
  3633  0709                     _SwitchOnStatustToGatway:	
  3634                           
  3635                           ;incstack = 0
  3636                           ; Regs used in _SwitchOnStatustToGatway: [wreg]
  3637                           ;SwitchOnStatustToGatway@SwitchOnNumber stored from wreg
  3638  0709  0020               	movlb	0	; select bank0
  3639  070A  00A1               	movwf	SwitchOnStatustToGatway@SwitchOnNumber
  3640                           
  3641                           ;megaonoff.c: 1498: TX1REG = 'R';_delay((unsigned long)((1)*(16000000/4000.0)));
  3642  070B  3052               	movlw	82
  3643  070C  0023               	movlb	3	; select bank3
  3644  070D  009A               	movwf	26	;volatile
  3645  070E  3006               	movlw	6
  3646  070F  0020               	movlb	0	; select bank0
  3647  0710  00A0               	movwf	??_SwitchOnStatustToGatway
  3648  0711  3030               	movlw	48
  3649  0712                     u3237:	
  3650  0712  0B89               	decfsz	9,f
  3651  0713  2F12               	goto	u3237
  3652  0714  0BA0               	decfsz	??_SwitchOnStatustToGatway,f
  3653  0715  2F12               	goto	u3237
  3654  0716  0000               	nop
  3655                           
  3656                           ;megaonoff.c: 1499: TX1REG = '1';_delay((unsigned long)((1)*(16000000/4000.0)));
  3657  0717  3031               	movlw	49
  3658  0718  0023               	movlb	3	; select bank3
  3659  0719  009A               	movwf	26	;volatile
  3660  071A  3006               	movlw	6
  3661  071B  0020               	movlb	0	; select bank0
  3662  071C  00A0               	movwf	??_SwitchOnStatustToGatway
  3663  071D  3030               	movlw	48
  3664  071E                     u3247:	
  3665  071E  0B89               	decfsz	9,f
  3666  071F  2F1E               	goto	u3247
  3667  0720  0BA0               	decfsz	??_SwitchOnStatustToGatway,f
  3668  0721  2F1E               	goto	u3247
  3669  0722  0000               	nop
  3670                           
  3671                           ;megaonoff.c: 1500: TX1REG = '0';_delay((unsigned long)((1)*(16000000/4000.0)));
  3672  0723  3030               	movlw	48
  3673  0724  0023               	movlb	3	; select bank3
  3674  0725  009A               	movwf	26	;volatile
  3675  0726  3006               	movlw	6
  3676  0727  0020               	movlb	0	; select bank0
  3677  0728  00A0               	movwf	??_SwitchOnStatustToGatway
  3678  0729  3030               	movlw	48
  3679  072A                     u3257:	
  3680  072A  0B89               	decfsz	9,f
  3681  072B  2F2A               	goto	u3257
  3682  072C  0BA0               	decfsz	??_SwitchOnStatustToGatway,f
  3683  072D  2F2A               	goto	u3257
  3684  072E  0000               	nop
  3685                           
  3686                           ;megaonoff.c: 1501: TX1REG = SwitchOnNumber;_delay((unsigned long)((1)*(16000000/4000.0)
      +                          ));
  3687  072F  0020               	movlb	0	; select bank0
  3688  0730  0821               	movf	SwitchOnStatustToGatway@SwitchOnNumber,w
  3689  0731  0023               	movlb	3	; select bank3
  3690  0732  009A               	movwf	26	;volatile
  3691  0733  3006               	movlw	6
  3692  0734  0020               	movlb	0	; select bank0
  3693  0735  00A0               	movwf	??_SwitchOnStatustToGatway
  3694  0736  3030               	movlw	48
  3695  0737                     u3267:	
  3696  0737  0B89               	decfsz	9,f
  3697  0738  2F37               	goto	u3267
  3698  0739  0BA0               	decfsz	??_SwitchOnStatustToGatway,f
  3699  073A  2F37               	goto	u3267
  3700  073B  0000               	nop
  3701  073C  0008               	return
  3702  073D                     __end_of_SwitchOnStatustToGatway:	
  3703                           
  3704                           	psect	text15
  3705  073D                     __ptext15:	
  3706 ;; *************** function _SwitchOffStatustToGatway *****************
  3707 ;; Defined at:
  3708 ;;		line 1489 in file "megaonoff.c"
  3709 ;; Parameters:    Size  Location     Type
  3710 ;;  SwitchOffNum    1    wreg     const unsigned char 
  3711 ;; Auto vars:     Size  Location     Type
  3712 ;;  SwitchOffNum    1    1[BANK0 ] const unsigned char 
  3713 ;; Return value:  Size  Location     Type
  3714 ;;                  1    wreg      void 
  3715 ;; Registers used:
  3716 ;;		wreg
  3717 ;; Tracked objects:
  3718 ;;		On entry : 0/0
  3719 ;;		On exit  : 0/0
  3720 ;;		Unchanged: 0/0
  3721 ;; Data sizes:     COMMON   BANK0   BANK1   BANK2   BANK3   BANK4   BANK5   BANK6   BANK7   BANK8   BANK9
  3722 ;;      Params:         0       0       0       0       0       0       0       0       0       0       0
  3723 ;;      Locals:         0       1       0       0       0       0       0       0       0       0       0
  3724 ;;      Temps:          0       1       0       0       0       0       0       0       0       0       0
  3725 ;;      Totals:         0       2       0       0       0       0       0       0       0       0       0
  3726 ;;Total ram usage:        2 bytes
  3727 ;; Hardware stack levels used:    1
  3728 ;; Hardware stack levels required when called:    2
  3729 ;; This function calls:
  3730 ;;		Nothing
  3731 ;; This function is called by:
  3732 ;;		_main
  3733 ;; This function uses a non-reentrant model
  3734 ;;
  3735                           
  3736                           
  3737                           ;psect for function _SwitchOffStatustToGatway
  3738  073D                     _SwitchOffStatustToGatway:	
  3739                           
  3740                           ;incstack = 0
  3741                           ; Regs used in _SwitchOffStatustToGatway: [wreg]
  3742                           ;SwitchOffStatustToGatway@SwitchOffNumber stored from wreg
  3743  073D  0020               	movlb	0	; select bank0
  3744  073E  00A1               	movwf	SwitchOffStatustToGatway@SwitchOffNumber
  3745                           
  3746                           ;megaonoff.c: 1491: TX1REG = 'R';_delay((unsigned long)((1)*(16000000/4000.0)));
  3747  073F  3052               	movlw	82
  3748  0740  0023               	movlb	3	; select bank3
  3749  0741  009A               	movwf	26	;volatile
  3750  0742  3006               	movlw	6
  3751  0743  0020               	movlb	0	; select bank0
  3752  0744  00A0               	movwf	??_SwitchOffStatustToGatway
  3753  0745  3030               	movlw	48
  3754  0746                     u3277:	
  3755  0746  0B89               	decfsz	9,f
  3756  0747  2F46               	goto	u3277
  3757  0748  0BA0               	decfsz	??_SwitchOffStatustToGatway,f
  3758  0749  2F46               	goto	u3277
  3759  074A  0000               	nop
  3760                           
  3761                           ;megaonoff.c: 1492: TX1REG = '0';_delay((unsigned long)((1)*(16000000/4000.0)));
  3762  074B  3030               	movlw	48
  3763  074C  0023               	movlb	3	; select bank3
  3764  074D  009A               	movwf	26	;volatile
  3765  074E  3006               	movlw	6
  3766  074F  0020               	movlb	0	; select bank0
  3767  0750  00A0               	movwf	??_SwitchOffStatustToGatway
  3768  0751  3030               	movlw	48
  3769  0752                     u3287:	
  3770  0752  0B89               	decfsz	9,f
  3771  0753  2F52               	goto	u3287
  3772  0754  0BA0               	decfsz	??_SwitchOffStatustToGatway,f
  3773  0755  2F52               	goto	u3287
  3774  0756  0000               	nop
  3775                           
  3776                           ;megaonoff.c: 1493: TX1REG = '0';_delay((unsigned long)((1)*(16000000/4000.0)));
  3777  0757  3030               	movlw	48
  3778  0758  0023               	movlb	3	; select bank3
  3779  0759  009A               	movwf	26	;volatile
  3780  075A  3006               	movlw	6
  3781  075B  0020               	movlb	0	; select bank0
  3782  075C  00A0               	movwf	??_SwitchOffStatustToGatway
  3783  075D  3030               	movlw	48
  3784  075E                     u3297:	
  3785  075E  0B89               	decfsz	9,f
  3786  075F  2F5E               	goto	u3297
  3787  0760  0BA0               	decfsz	??_SwitchOffStatustToGatway,f
  3788  0761  2F5E               	goto	u3297
  3789  0762  0000               	nop
  3790                           
  3791                           ;megaonoff.c: 1494: TX1REG = SwitchOffNumber;_delay((unsigned long)((1)*(16000000/4000.0
      +                          )));
  3792  0763  0020               	movlb	0	; select bank0
  3793  0764  0821               	movf	SwitchOffStatustToGatway@SwitchOffNumber,w
  3794  0765  0023               	movlb	3	; select bank3
  3795  0766  009A               	movwf	26	;volatile
  3796  0767  3006               	movlw	6
  3797  0768  0020               	movlb	0	; select bank0
  3798  0769  00A0               	movwf	??_SwitchOffStatustToGatway
  3799  076A  3030               	movlw	48
  3800  076B                     u3307:	
  3801  076B  0B89               	decfsz	9,f
  3802  076C  2F6B               	goto	u3307
  3803  076D  0BA0               	decfsz	??_SwitchOffStatustToGatway,f
  3804  076E  2F6B               	goto	u3307
  3805  076F  0000               	nop
  3806  0770  0008               	return
  3807  0771                     __end_of_SwitchOffStatustToGatway:	
  3808                           
  3809                           	psect	text16
  3810  0F4B                     __ptext16:	
  3811 ;; *************** function _ReceivingIndicationLedBlinking *****************
  3812 ;; Defined at:
  3813 ;;		line 1472 in file "megaonoff.c"
  3814 ;; Parameters:    Size  Location     Type
  3815 ;;		None
  3816 ;; Auto vars:     Size  Location     Type
  3817 ;;		None
  3818 ;; Return value:  Size  Location     Type
  3819 ;;                  1    wreg      void 
  3820 ;; Registers used:
  3821 ;;		wreg
  3822 ;; Tracked objects:
  3823 ;;		On entry : 0/0
  3824 ;;		On exit  : 0/0
  3825 ;;		Unchanged: 0/0
  3826 ;; Data sizes:     COMMON   BANK0   BANK1   BANK2   BANK3   BANK4   BANK5   BANK6   BANK7   BANK8   BANK9
  3827 ;;      Params:         0       0       0       0       0       0       0       0       0       0       0
  3828 ;;      Locals:         0       0       0       0       0       0       0       0       0       0       0
  3829 ;;      Temps:          0       2       0       0       0       0       0       0       0       0       0
  3830 ;;      Totals:         0       2       0       0       0       0       0       0       0       0       0
  3831 ;;Total ram usage:        2 bytes
  3832 ;; Hardware stack levels used:    1
  3833 ;; Hardware stack levels required when called:    2
  3834 ;; This function calls:
  3835 ;;		Nothing
  3836 ;; This function is called by:
  3837 ;;		_main
  3838 ;; This function uses a non-reentrant model
  3839 ;;
  3840                           
  3841                           
  3842                           ;psect for function _ReceivingIndicationLedBlinking
  3843  0F4B                     _ReceivingIndicationLedBlinking:	
  3844                           
  3845                           ;megaonoff.c: 1473: PORTFbits.RF1 = 0;
  3846                           
  3847                           ;incstack = 0
  3848                           ; Regs used in _ReceivingIndicationLedBlinking: [wreg]
  3849  0F4B  0025               	movlb	5	; select bank5
  3850  0F4C  108C               	bcf	12,1	;volatile
  3851                           
  3852                           ;megaonoff.c: 1474: _delay((unsigned long)((100)*(16000000/4000.0)));
  3853  0F4D  3003               	movlw	3
  3854  0F4E  0020               	movlb	0	; select bank0
  3855  0F4F  00A1               	movwf	??_ReceivingIndicationLedBlinking+1
  3856  0F50  3008               	movlw	8
  3857  0F51  00A0               	movwf	??_ReceivingIndicationLedBlinking
  3858  0F52  3077               	movlw	119
  3859  0F53                     u3317:	
  3860  0F53  0B89               	decfsz	9,f
  3861  0F54  2F53               	goto	u3317
  3862  0F55  0BA0               	decfsz	??_ReceivingIndicationLedBlinking,f
  3863  0F56  2F53               	goto	u3317
  3864  0F57  0BA1               	decfsz	??_ReceivingIndicationLedBlinking+1,f
  3865  0F58  2F53               	goto	u3317
  3866                           
  3867                           ;megaonoff.c: 1475: PORTFbits.RF1 = 1;
  3868  0F59  0025               	movlb	5	; select bank5
  3869  0F5A  148C               	bsf	12,1	;volatile
  3870  0F5B  0008               	return
  3871  0F5C                     __end_of_ReceivingIndicationLedBlinking:	
  3872                           
  3873                           	psect	text17
  3874  07CE                     __ptext17:	
  3875 ;; *************** function _GPIO_pin_Initialize *****************
  3876 ;; Defined at:
  3877 ;;		line 1270 in file "megaonoff.c"
  3878 ;; Parameters:    Size  Location     Type
  3879 ;;		None
  3880 ;; Auto vars:     Size  Location     Type
  3881 ;;		None
  3882 ;; Return value:  Size  Location     Type
  3883 ;;                  1    wreg      void 
  3884 ;; Registers used:
  3885 ;;		status,2, status,0, pclath, cstack
  3886 ;; Tracked objects:
  3887 ;;		On entry : 0/0
  3888 ;;		On exit  : 0/0
  3889 ;;		Unchanged: 0/0
  3890 ;; Data sizes:     COMMON   BANK0   BANK1   BANK2   BANK3   BANK4   BANK5   BANK6   BANK7   BANK8   BANK9
  3891 ;;      Params:         0       0       0       0       0       0       0       0       0       0       0
  3892 ;;      Locals:         0       0       0       0       0       0       0       0       0       0       0
  3893 ;;      Temps:          0       0       0       0       0       0       0       0       0       0       0
  3894 ;;      Totals:         0       0       0       0       0       0       0       0       0       0       0
  3895 ;;Total ram usage:        0 bytes
  3896 ;; Hardware stack levels used:    1
  3897 ;; Hardware stack levels required when called:    3
  3898 ;; This function calls:
  3899 ;;		_clearAllPorts
  3900 ;;		_pinINIT_extra
  3901 ;; This function is called by:
  3902 ;;		_main
  3903 ;; This function uses a non-reentrant model
  3904 ;;
  3905                           
  3906                           
  3907                           ;psect for function _GPIO_pin_Initialize
  3908  07CE                     _GPIO_pin_Initialize:	
  3909                           
  3910                           ;megaonoff.c: 1271: clearAllPorts();
  3911                           
  3912                           ;incstack = 0
  3913                           ; Regs used in _GPIO_pin_Initialize: [status,2+status,0+pclath+cstack]
  3914  07CE  318F  272D  3187   	fcall	_clearAllPorts
  3915                           
  3916                           ;megaonoff.c: 1272: pinINIT_extra();
  3917  07D1  318F  2782  3187   	fcall	_pinINIT_extra
  3918                           
  3919                           ;megaonoff.c: 1273: TRISDbits.TRISD6 = 1;
  3920  07D4  0021               	movlb	1	; select bank1
  3921  07D5  170F               	bsf	15,6	;volatile
  3922                           
  3923                           ;megaonoff.c: 1274: TRISDbits.TRISD7 = 1;
  3924  07D6  178F               	bsf	15,7	;volatile
  3925                           
  3926                           ;megaonoff.c: 1275: TRISBbits.TRISB0 = 1;
  3927  07D7  140D               	bsf	13,0	;volatile
  3928                           
  3929                           ;megaonoff.c: 1276: TRISBbits.TRISB1 = 1;
  3930  07D8  148D               	bsf	13,1	;volatile
  3931                           
  3932                           ;megaonoff.c: 1277: TRISBbits.TRISB2 = 1;
  3933  07D9  150D               	bsf	13,2	;volatile
  3934                           
  3935                           ;megaonoff.c: 1278: TRISBbits.TRISB3 = 1;
  3936  07DA  158D               	bsf	13,3	;volatile
  3937                           
  3938                           ;megaonoff.c: 1279: TRISBbits.TRISB4 = 1;
  3939  07DB  160D               	bsf	13,4	;volatile
  3940                           
  3941                           ;megaonoff.c: 1280: TRISBbits.TRISB5 = 1;
  3942  07DC  168D               	bsf	13,5	;volatile
  3943                           
  3944                           ;megaonoff.c: 1281: TRISDbits.TRISD5 = 1;
  3945  07DD  168F               	bsf	15,5	;volatile
  3946                           
  3947                           ;megaonoff.c: 1285: TRISEbits.TRISE0 = 0;
  3948  07DE  1010               	bcf	16,0	;volatile
  3949                           
  3950                           ;megaonoff.c: 1286: TRISEbits.TRISE1 = 0;
  3951  07DF  1090               	bcf	16,1	;volatile
  3952                           
  3953                           ;megaonoff.c: 1287: TRISGbits.TRISG0 = 0;
  3954  07E0  0026               	movlb	6	; select bank6
  3955  07E1  100D               	bcf	13,0	;volatile
  3956                           
  3957                           ;megaonoff.c: 1288: TRISGbits.TRISG3 = 0;
  3958  07E2  118D               	bcf	13,3	;volatile
  3959                           
  3960                           ;megaonoff.c: 1289: TRISGbits.TRISG4 = 0;
  3961  07E3  120D               	bcf	13,4	;volatile
  3962                           
  3963                           ;megaonoff.c: 1290: TRISFbits.TRISF6 = 0;
  3964  07E4  130C               	bcf	12,6	;volatile
  3965                           
  3966                           ;megaonoff.c: 1291: TRISFbits.TRISF5 = 0;
  3967  07E5  128C               	bcf	12,5	;volatile
  3968                           
  3969                           ;megaonoff.c: 1292: TRISFbits.TRISF4 = 0;
  3970  07E6  120C               	bcf	12,4	;volatile
  3971                           
  3972                           ;megaonoff.c: 1293: TRISFbits.TRISF3 = 0;
  3973  07E7  118C               	bcf	12,3	;volatile
  3974                           
  3975                           ;megaonoff.c: 1296: TRISEbits.TRISE3 = 1;
  3976  07E8  0021               	movlb	1	; select bank1
  3977  07E9  1590               	bsf	16,3	;volatile
  3978                           
  3979                           ;megaonoff.c: 1298: TRISFbits.TRISF0 = 0;
  3980  07EA  0026               	movlb	6	; select bank6
  3981  07EB  100C               	bcf	12,0	;volatile
  3982                           
  3983                           ;megaonoff.c: 1299: TRISFbits.TRISF1 = 0;
  3984  07EC  108C               	bcf	12,1	;volatile
  3985                           
  3986                           ;megaonoff.c: 1300: TRISFbits.TRISF2 = 0;
  3987  07ED  110C               	bcf	12,2	;volatile
  3988                           
  3989                           ;megaonoff.c: 1305: TRISCbits.TRISC6 = 0;
  3990  07EE  0021               	movlb	1	; select bank1
  3991  07EF  130E               	bcf	14,6	;volatile
  3992                           
  3993                           ;megaonoff.c: 1306: TRISCbits.TRISC7 = 1;
  3994  07F0  178E               	bsf	14,7	;volatile
  3995                           
  3996                           ;megaonoff.c: 1308: clearAllPorts();
  3997  07F1  318F  272D         	fcall	_clearAllPorts
  3998  07F3  0008               	return
  3999  07F4                     __end_of_GPIO_pin_Initialize:	
  4000                           
  4001                           	psect	text18
  4002  0F82                     __ptext18:	
  4003 ;; *************** function _pinINIT_extra *****************
  4004 ;; Defined at:
  4005 ;;		line 1513 in file "megaonoff.c"
  4006 ;; Parameters:    Size  Location     Type
  4007 ;;		None
  4008 ;; Auto vars:     Size  Location     Type
  4009 ;;		None
  4010 ;; Return value:  Size  Location     Type
  4011 ;;                  1    wreg      void 
  4012 ;; Registers used:
  4013 ;;		status,2
  4014 ;; Tracked objects:
  4015 ;;		On entry : 0/0
  4016 ;;		On exit  : 0/0
  4017 ;;		Unchanged: 0/0
  4018 ;; Data sizes:     COMMON   BANK0   BANK1   BANK2   BANK3   BANK4   BANK5   BANK6   BANK7   BANK8   BANK9
  4019 ;;      Params:         0       0       0       0       0       0       0       0       0       0       0
  4020 ;;      Locals:         0       0       0       0       0       0       0       0       0       0       0
  4021 ;;      Temps:          0       0       0       0       0       0       0       0       0       0       0
  4022 ;;      Totals:         0       0       0       0       0       0       0       0       0       0       0
  4023 ;;Total ram usage:        0 bytes
  4024 ;; Hardware stack levels used:    1
  4025 ;; Hardware stack levels required when called:    2
  4026 ;; This function calls:
  4027 ;;		Nothing
  4028 ;; This function is called by:
  4029 ;;		_GPIO_pin_Initialize
  4030 ;; This function uses a non-reentrant model
  4031 ;;
  4032                           
  4033                           
  4034                           ;psect for function _pinINIT_extra
  4035  0F82                     _pinINIT_extra:	
  4036                           
  4037                           ;megaonoff.c: 1514: ANSELG=0x00; WPUG = 0;
  4038                           
  4039                           ;incstack = 0
  4040                           ; Regs used in _pinINIT_extra: [status,2]
  4041  0F82  0028               	movlb	8	; select bank8
  4042  0F83  018D               	clrf	13	;volatile
  4043  0F84  0029               	movlb	9	; select bank9
  4044  0F85  018D               	clrf	13	;volatile
  4045                           
  4046                           ;megaonoff.c: 1516: ANSELF=0x00;
  4047  0F86  0028               	movlb	8	; select bank8
  4048  0F87  018C               	clrf	12	;volatile
  4049                           
  4050                           ;megaonoff.c: 1518: ANSELE=0x00; WPUE=0x00;
  4051  0F88  0023               	movlb	3	; select bank3
  4052  0F89  0190               	clrf	16	;volatile
  4053  0F8A  0024               	movlb	4	; select bank4
  4054  0F8B  0190               	clrf	16	;volatile
  4055                           
  4056                           ;megaonoff.c: 1520: ANSELD=0x00; WPUD=0x00;
  4057  0F8C  0023               	movlb	3	; select bank3
  4058  0F8D  018F               	clrf	15	;volatile
  4059  0F8E  0024               	movlb	4	; select bank4
  4060  0F8F  018F               	clrf	15	;volatile
  4061                           
  4062                           ;megaonoff.c: 1522: ANSELB=0x00; WPUB=0x00;
  4063  0F90  0023               	movlb	3	; select bank3
  4064  0F91  018D               	clrf	13	;volatile
  4065  0F92  0024               	movlb	4	; select bank4
  4066  0F93  018D               	clrf	13	;volatile
  4067                           
  4068                           ;megaonoff.c: 1524: ANSELA=0x00;
  4069  0F94  0023               	movlb	3	; select bank3
  4070  0F95  018C               	clrf	12	;volatile
  4071  0F96  0008               	return
  4072  0F97                     __end_of_pinINIT_extra:	
  4073                           
  4074                           	psect	text19
  4075  0F2D                     __ptext19:	
  4076 ;; *************** function _clearAllPorts *****************
  4077 ;; Defined at:
  4078 ;;		line 1530 in file "megaonoff.c"
  4079 ;; Parameters:    Size  Location     Type
  4080 ;;		None
  4081 ;; Auto vars:     Size  Location     Type
  4082 ;;		None
  4083 ;; Return value:  Size  Location     Type
  4084 ;;                  1    wreg      void 
  4085 ;; Registers used:
  4086 ;;		None
  4087 ;; Tracked objects:
  4088 ;;		On entry : 0/0
  4089 ;;		On exit  : 0/0
  4090 ;;		Unchanged: 0/0
  4091 ;; Data sizes:     COMMON   BANK0   BANK1   BANK2   BANK3   BANK4   BANK5   BANK6   BANK7   BANK8   BANK9
  4092 ;;      Params:         0       0       0       0       0       0       0       0       0       0       0
  4093 ;;      Locals:         0       0       0       0       0       0       0       0       0       0       0
  4094 ;;      Temps:          0       0       0       0       0       0       0       0       0       0       0
  4095 ;;      Totals:         0       0       0       0       0       0       0       0       0       0       0
  4096 ;;Total ram usage:        0 bytes
  4097 ;; Hardware stack levels used:    1
  4098 ;; Hardware stack levels required when called:    2
  4099 ;; This function calls:
  4100 ;;		Nothing
  4101 ;; This function is called by:
  4102 ;;		_GPIO_pin_Initialize
  4103 ;; This function uses a non-reentrant model
  4104 ;;
  4105                           
  4106                           
  4107                           ;psect for function _clearAllPorts
  4108  0F2D                     _clearAllPorts:	
  4109                           
  4110                           ;megaonoff.c: 1534: PORTEbits.RE0=0;
  4111                           
  4112                           ;incstack = 0
  4113                           ; Regs used in _clearAllPorts: []
  4114  0F2D  0020               	movlb	0	; select bank0
  4115  0F2E  1010               	bcf	16,0	;volatile
  4116                           
  4117                           ;megaonoff.c: 1535: PORTEbits.RE1=0;
  4118  0F2F  1090               	bcf	16,1	;volatile
  4119                           
  4120                           ;megaonoff.c: 1536: PORTGbits.RG0=0;
  4121  0F30  0025               	movlb	5	; select bank5
  4122  0F31  100D               	bcf	13,0	;volatile
  4123                           
  4124                           ;megaonoff.c: 1537: PORTGbits.RG3=0;
  4125  0F32  118D               	bcf	13,3	;volatile
  4126                           
  4127                           ;megaonoff.c: 1538: PORTGbits.RG4=0;
  4128  0F33  120D               	bcf	13,4	;volatile
  4129                           
  4130                           ;megaonoff.c: 1539: PORTFbits.RF6=0;
  4131  0F34  130C               	bcf	12,6	;volatile
  4132                           
  4133                           ;megaonoff.c: 1540: PORTFbits.RF5=0;
  4134  0F35  128C               	bcf	12,5	;volatile
  4135                           
  4136                           ;megaonoff.c: 1541: PORTFbits.RF4=0;
  4137  0F36  120C               	bcf	12,4	;volatile
  4138                           
  4139                           ;megaonoff.c: 1542: PORTFbits.RF0 = 1;
  4140  0F37  140C               	bsf	12,0	;volatile
  4141                           
  4142                           ;megaonoff.c: 1543: PORTFbits.RF1 = 1;
  4143  0F38  148C               	bsf	12,1	;volatile
  4144                           
  4145                           ;megaonoff.c: 1544: PORTFbits.RF2 = 1;
  4146  0F39  150C               	bsf	12,2	;volatile
  4147                           
  4148                           ;megaonoff.c: 1545: PORTFbits.RF3 = 0;
  4149  0F3A  118C               	bcf	12,3	;volatile
  4150  0F3B  0008               	return
  4151  0F3C                     __end_of_clearAllPorts:	
  4152                           
  4153                           	psect	intentry
  4154  0004                     __pintentry:	
  4155 ;; *************** function _isr *****************
  4156 ;; Defined at:
  4157 ;;		line 183 in file "megaonoff.c"
  4158 ;; Parameters:    Size  Location     Type
  4159 ;;		None
  4160 ;; Auto vars:     Size  Location     Type
  4161 ;;		None
  4162 ;; Return value:  Size  Location     Type
  4163 ;;                  1    wreg      void 
  4164 ;; Registers used:
  4165 ;;		wreg, fsr0l, fsr0h, fsr1l, fsr1h, status,2, status,0, pclath, cstack
  4166 ;; Tracked objects:
  4167 ;;		On entry : 0/0
  4168 ;;		On exit  : 0/0
  4169 ;;		Unchanged: 0/0
  4170 ;; Data sizes:     COMMON   BANK0   BANK1   BANK2   BANK3   BANK4   BANK5   BANK6   BANK7   BANK8   BANK9
  4171 ;;      Params:         0       0       0       0       0       0       0       0       0       0       0
  4172 ;;      Locals:         0       0       0       0       0       0       0       0       0       0       0
  4173 ;;      Temps:          2       0       0       0       0       0       0       0       0       0       0
  4174 ;;      Totals:         2       0       0       0       0       0       0       0       0       0       0
  4175 ;;Total ram usage:        2 bytes
  4176 ;; Hardware stack levels used:    1
  4177 ;; Hardware stack levels required when called:    1
  4178 ;; This function calls:
  4179 ;;		_errorsISR
  4180 ;; This function is called by:
  4181 ;;		Interrupt level 1
  4182 ;; This function uses a non-reentrant model
  4183 ;;
  4184                           
  4185  0004                     _isr:	
  4186                           
  4187                           ;incstack = 0
  4188  0004  147E               	bsf	126,0	;set compiler interrupt flag (level 1)
  4189                           
  4190                           ; Regs used in _isr: [wreg-fsr1h+status,2+status,0+pclath+cstack]
  4191  0005  3180               	pagesel	$
  4192  0006  0020               	movlb	0	; select bank0
  4193  0007  087F               	movf	127,w
  4194  0008  00F4               	movwf	??_isr+1
  4195                           
  4196                           ;megaonoff.c: 186: if(RC1IF){
  4197  0009  1E91               	btfss	17,5	;volatile
  4198  000A  2849               	goto	i1l2674
  4199                           
  4200                           ;megaonoff.c: 187: if(RC1STAbits.OERR){
  4201  000B  0023               	movlb	3	; select bank3
  4202  000C  1C9D               	btfss	29,1	;volatile
  4203  000D  2817               	goto	i1l2658
  4204                           
  4205                           ;megaonoff.c: 188: RC1STAbits.CREN = 0;
  4206  000E  121D               	bcf	29,4	;volatile
  4207                           
  4208                           ;megaonoff.c: 189: RC1STAbits.CREN = 1;
  4209  000F  161D               	bsf	29,4	;volatile
  4210                           
  4211                           ;megaonoff.c: 190: errorsISR("EROV");
  4212  0010  3005               	movlw	low (STR_1| (0+32768))
  4213  0011  00F0               	movwf	errorsISR@errNum
  4214  0012  3090               	movlw	high (STR_1| (0+32768))
  4215  0013  00F1               	movwf	errorsISR@errNum+1
  4216  0014  318F  276D  3180   	fcall	_errorsISR
  4217  0017                     i1l2658:	
  4218                           
  4219                           ;megaonoff.c: 191: }
  4220                           ;megaonoff.c: 193: mainReceivedDataBuffer[mainReceivedDataPosition]=RC1REG;
  4221  0017  0023               	movlb	3	; select bank3
  4222  0018  0819               	movf	25,w	;volatile
  4223  0019  00F3               	movwf	??_isr
  4224  001A  0875               	movf	_mainReceivedDataPosition,w
  4225  001B  3EA0               	addlw	(low (_mainReceivedDataBuffer| 0))& (0+255)
  4226  001C  0086               	movwf	6
  4227  001D  0187               	clrf	7
  4228  001E  0873               	movf	??_isr,w
  4229  001F  0081               	movwf	1
  4230                           
  4231                           ;megaonoff.c: 197: if(mainReceivedDataBuffer[0]=='%'){
  4232  0020  3025               	movlw	37
  4233  0021  0021               	movlb	1	; select bank1
  4234  0022  0620               	xorwf	_mainReceivedDataBuffer^(0+128),w
  4235  0023  1D03               	btfss	3,2
  4236  0024  283D               	goto	i1l189
  4237                           
  4238                           ;megaonoff.c: 198: mainReceivedDataPosition++;
  4239  0025  3001               	movlw	1
  4240  0026  07F5               	addwf	_mainReceivedDataPosition,f
  4241  0027  3000               	movlw	0
  4242  0028  3DF6               	addwfc	_mainReceivedDataPosition+1,f
  4243                           
  4244                           ;megaonoff.c: 199: if(mainReceivedDataPosition>15){
  4245  0029  0876               	movf	_mainReceivedDataPosition+1,w
  4246  002A  3A80               	xorlw	128
  4247  002B  00F3               	movwf	??_isr
  4248  002C  3080               	movlw	128
  4249  002D  0273               	subwf	??_isr,w
  4250  002E  1D03               	skipz
  4251  002F  2832               	goto	u136_25
  4252  0030  3010               	movlw	16
  4253  0031  0275               	subwf	_mainReceivedDataPosition,w
  4254  0032                     u136_25:	
  4255  0032  1C03               	skipc
  4256  0033  2849               	goto	i1l2674
  4257                           
  4258                           ;megaonoff.c: 200: mainDataReceived=1;
  4259  0034  3001               	movlw	1
  4260  0035  0020               	movlb	0	; select bank0
  4261  0036  00DD               	movwf	_mainDataReceived
  4262  0037  3000               	movlw	0
  4263  0038  00DE               	movwf	_mainDataReceived+1
  4264                           
  4265                           ;megaonoff.c: 201: mainReceivedDataPosition=0;
  4266  0039  01F5               	clrf	_mainReceivedDataPosition
  4267  003A  01F6               	clrf	_mainReceivedDataPosition+1
  4268                           
  4269                           ;megaonoff.c: 202: RC1IF=0;
  4270  003B  1291               	bcf	17,5	;volatile
  4271                           
  4272                           ;megaonoff.c: 203: }
  4273                           ;megaonoff.c: 204: }
  4274  003C  2849               	goto	i1l2674
  4275  003D                     i1l189:	
  4276                           
  4277                           ;megaonoff.c: 205: else{
  4278                           ;megaonoff.c: 206: RC1STAbits.CREN = 0;
  4279  003D  0023               	movlb	3	; select bank3
  4280  003E  121D               	bcf	29,4	;volatile
  4281                           
  4282                           ;megaonoff.c: 207: RC1STAbits.CREN = 1;
  4283  003F  161D               	bsf	29,4	;volatile
  4284                           
  4285                           ;megaonoff.c: 208: mainReceivedDataPosition=0;
  4286  0040  01F5               	clrf	_mainReceivedDataPosition
  4287  0041  01F6               	clrf	_mainReceivedDataPosition+1
  4288                           
  4289                           ;megaonoff.c: 211: errorsISR("ERRX");
  4290  0042  300A               	movlw	low (STR_2| (0+32768))
  4291  0043  00F0               	movwf	errorsISR@errNum
  4292  0044  3090               	movlw	high (STR_2| (0+32768))
  4293  0045  00F1               	movwf	errorsISR@errNum+1
  4294  0046  318F  276D  3180   	fcall	_errorsISR
  4295  0049                     i1l2674:	
  4296                           
  4297                           ;megaonoff.c: 212: }
  4298                           ;megaonoff.c: 213: }
  4299                           ;megaonoff.c: 218: if(PIE3bits.TMR3IE==1 && PIR3bits.TMR3IF==1)
  4300  0049  0021               	movlb	1	; select bank1
  4301  004A  1C13               	btfss	19,0	;volatile
  4302  004B  2854               	goto	i1l192
  4303  004C  0020               	movlb	0	; select bank0
  4304  004D  1C13               	btfss	19,0	;volatile
  4305  004E  2854               	goto	i1l192
  4306                           
  4307                           ;megaonoff.c: 219: {
  4308                           ;megaonoff.c: 220: PIR3bits.TMR3IF=0;
  4309  004F  1013               	bcf	19,0	;volatile
  4310                           
  4311                           ;megaonoff.c: 221: PORTFbits.RF3 = 0;
  4312  0050  0025               	movlb	5	; select bank5
  4313  0051  118C               	bcf	12,3	;volatile
  4314                           
  4315                           ;megaonoff.c: 222: T3CONbits.TMR3ON=0;
  4316  0052  0028               	movlb	8	; select bank8
  4317  0053  1013               	bcf	19,0	;volatile
  4318  0054                     i1l192:	
  4319                           
  4320                           ;megaonoff.c: 224: }
  4321                           ;megaonoff.c: 228: if(PIE1bits.TMR1IE == 1 && PIR1bits.TMR1IF==1)
  4322  0054  0021               	movlb	1	; select bank1
  4323  0055  1C11               	btfss	17,0	;volatile
  4324  0056  2865               	goto	i1l2690
  4325  0057  0020               	movlb	0	; select bank0
  4326  0058  1C11               	btfss	17,0	;volatile
  4327  0059  2865               	goto	i1l2690
  4328                           
  4329                           ;megaonoff.c: 229: {
  4330                           ;megaonoff.c: 230: PIR1bits.TMR1IF=0;
  4331  005A  1011               	bcf	17,0	;volatile
  4332                           
  4333                           ;megaonoff.c: 232: PORTFbits.RF3 = 1;
  4334  005B  0025               	movlb	5	; select bank5
  4335  005C  158C               	bsf	12,3	;volatile
  4336                           
  4337                           ;megaonoff.c: 233: TMR3H=0xFF;
  4338  005D  30FF               	movlw	255
  4339  005E  0028               	movlb	8	; select bank8
  4340  005F  0092               	movwf	18	;volatile
  4341                           
  4342                           ;megaonoff.c: 234: TMR3L=0xD8;
  4343  0060  30D8               	movlw	216
  4344  0061  0091               	movwf	17	;volatile
  4345                           
  4346                           ;megaonoff.c: 235: T3CONbits.TMR3ON = 1;
  4347  0062  1413               	bsf	19,0	;volatile
  4348                           
  4349                           ;megaonoff.c: 236: T1CONbits.TMR1ON = 0;
  4350  0063  0020               	movlb	0	; select bank0
  4351  0064  1018               	bcf	24,0	;volatile
  4352  0065                     i1l2690:	
  4353                           
  4354                           ;megaonoff.c: 237: }
  4355                           ;megaonoff.c: 240: if(CCP9IF){
  4356  0065  0020               	movlb	0	; select bank0
  4357  0066  1B14               	btfsc	20,6	;volatile
  4358                           
  4359                           ;megaonoff.c: 241: if(CCP9IF == 1){
  4360  0067  1F14               	btfss	20,6	;volatile
  4361  0068  2A11               	goto	i1l340
  4362                           
  4363                           ;megaonoff.c: 242: CCP9IF=0;
  4364  0069  1314               	bcf	20,6	;volatile
  4365                           
  4366                           ;megaonoff.c: 243: if(start_PWM_Generation_in_ISR_FLAG == 1){
  4367  006A  0349               	decf	_start_PWM_Generation_in_ISR_FLAG,w
  4368  006B  044A               	iorwf	_start_PWM_Generation_in_ISR_FLAG+1,w
  4369  006C  1903               	btfsc	3,2
  4370  006D  2A04               	goto	i1l3152
  4371  006E  2A11               	goto	i1l340
  4372  006F                     i1l2700:	
  4373                           ;megaonoff.c: 249: {
  4374                           ;megaonoff.c: 250: case '0':
  4375                           
  4376                           ;megaonoff.c: 248: switch(levelofDimmer_LSB)
  4377                           
  4378                           ;megaonoff.c: 245: {
  4379                           ;megaonoff.c: 246: case '0':
  4380                           
  4381                           ;megaonoff.c: 244: switch(levelofDimmer_MSB)
  4382                           
  4383                           
  4384                           ;megaonoff.c: 251: TMR1H=0x7B;
  4385  006F  307B               	movlw	123
  4386  0070  29E5               	goto	L46
  4387  0071                     i1l2704:	
  4388                           ;megaonoff.c: 256: case '1':
  4389                           
  4390                           ;megaonoff.c: 255: break;
  4391                           
  4392                           ;megaonoff.c: 253: T1CONbits.TMR1ON = 1;
  4393                           
  4394                           ;megaonoff.c: 252: TMR1L=0x30;
  4395                           
  4396                           
  4397                           ;megaonoff.c: 257: TMR1H=0x7C;
  4398  0071  307C               	movlw	124
  4399  0072  29E9               	goto	L47
  4400  0073                     i1l2708:	
  4401                           ;megaonoff.c: 262: case '2':
  4402                           
  4403                           ;megaonoff.c: 261: break;
  4404                           
  4405                           ;megaonoff.c: 259: T1CONbits.TMR1ON = 1;
  4406                           
  4407                           ;megaonoff.c: 258: TMR1L=0xC0;
  4408                           
  4409                           
  4410                           ;megaonoff.c: 263: TMR1H=0x7D;
  4411  0073  307D               	movlw	125
  4412  0074  0097               	movwf	23	;volatile
  4413                           
  4414                           ;megaonoff.c: 264: TMR1L=0x88;
  4415  0075  3088               	movlw	136
  4416  0076  29F3               	goto	L2
  4417  0077                     i1l2712:	
  4418                           ;megaonoff.c: 267: case '3':
  4419                           
  4420                           ;megaonoff.c: 266: break;
  4421                           
  4422                           ;megaonoff.c: 265: T1CONbits.TMR1ON = 1;
  4423                           
  4424                           
  4425                           ;megaonoff.c: 268: TMR1H=0x7F;
  4426  0077  307F               	movlw	127
  4427  0078  0097               	movwf	23	;volatile
  4428                           
  4429                           ;megaonoff.c: 269: TMR1L=0x18;
  4430  0079  3018               	movlw	24
  4431  007A  29F3               	goto	L2
  4432  007B                     i1l2716:	
  4433                           ;megaonoff.c: 272: case '4':
  4434                           
  4435                           ;megaonoff.c: 271: break;
  4436                           
  4437                           ;megaonoff.c: 270: T1CONbits.TMR1ON = 1;
  4438                           
  4439                           
  4440                           ;megaonoff.c: 273: TMR1H=0x80;
  4441  007B  3080               	movlw	128
  4442  007C  299B               	goto	L51
  4443  007D                     i1l2720:	
  4444                           ;megaonoff.c: 277: case '5':
  4445                           
  4446                           ;megaonoff.c: 276: break;
  4447                           
  4448                           ;megaonoff.c: 275: T1CONbits.TMR1ON = 1;
  4449                           
  4450                           ;megaonoff.c: 274: TMR1L=0xA8;
  4451                           
  4452                           
  4453                           ;megaonoff.c: 278: TMR1H=0x81;
  4454  007D  3081               	movlw	129
  4455  007E  299F               	goto	L34
  4456  007F                     i1l2724:	
  4457                           ;megaonoff.c: 282: case '6':
  4458                           
  4459                           ;megaonoff.c: 281: break;
  4460                           
  4461                           ;megaonoff.c: 280: T1CONbits.TMR1ON = 1;
  4462                           
  4463                           ;megaonoff.c: 279: TMR1L=0x70;
  4464                           
  4465                           
  4466                           ;megaonoff.c: 283: TMR1H=0x83;
  4467  007F  3083               	movlw	131
  4468  0080  29A7               	goto	L35
  4469  0081                     i1l2730:	
  4470                           ;megaonoff.c: 287: case '7':
  4471                           
  4472                           ;megaonoff.c: 286: break;
  4473                           
  4474                           ;megaonoff.c: 285: T1CONbits.TMR1ON = 1;
  4475                           
  4476                           ;megaonoff.c: 284: TMR1L=0x00;
  4477                           
  4478                           
  4479                           ;megaonoff.c: 288: TMR1H=0x83;
  4480  0081  3083               	movlw	131
  4481  0082  0097               	movwf	23	;volatile
  4482                           
  4483                           ;megaonoff.c: 289: TMR1L=0xC8;
  4484  0083  30C8               	movlw	200
  4485  0084  29F3               	goto	L2
  4486  0085                     i1l2734:	
  4487                           ;megaonoff.c: 292: case '8':
  4488                           
  4489                           ;megaonoff.c: 291: break;
  4490                           
  4491                           ;megaonoff.c: 290: T1CONbits.TMR1ON = 1;
  4492                           
  4493  0085  289E               	goto	i1l2754
  4494  0086                     i1l2738:	
  4495                           ;megaonoff.c: 297: case '9':
  4496                           
  4497                           ;megaonoff.c: 296: break;
  4498                           
  4499                           ;megaonoff.c: 295: T1CONbits.TMR1ON = 1;
  4500                           
  4501                           ;megaonoff.c: 294: TMR1L=0xB0;
  4502                           
  4503                           ;megaonoff.c: 293: TMR1H=0x87;
  4504                           
  4505                           
  4506                           ;megaonoff.c: 298: TMR1H=0x85;
  4507  0086  3085               	movlw	133
  4508  0087  0097               	movwf	23	;volatile
  4509                           
  4510                           ;megaonoff.c: 299: TMR1L=0x58;
  4511  0088  3058               	movlw	88
  4512  0089  29F3               	goto	L2
  4513  008A                     i1l2744:	
  4514                           ;megaonoff.c: 305: }
  4515                           
  4516                           ;megaonoff.c: 304: break;
  4517                           
  4518                           ;megaonoff.c: 303: default:
  4519                           
  4520                           ;megaonoff.c: 301: break;
  4521                           
  4522                           ;megaonoff.c: 300: T1CONbits.TMR1ON = 1;
  4523                           
  4524  008A  0877               	movf	_levelofDimmer_LSB,w
  4525                           
  4526                           ; Switch size 1, requested type "space"
  4527                           ; Number of cases is 10, Range of values is 48 to 57
  4528                           ; switch strategies available:
  4529                           ; Name         Instructions Cycles
  4530                           ; direct_byte           29     9 (fixed)
  4531                           ; simple_byte           31    16 (average)
  4532                           ; jumptable            263     9 (fixed)
  4533                           ;	Chosen strategy is direct_byte
  4534  008B  3ED0               	addlw	-48
  4535  008C  1C03               	skipc
  4536  008D  2A11               	goto	i1l340
  4537  008E  0084               	movwf	4
  4538  008F  300A               	movlw	10
  4539  0090  0204               	subwf	4,w
  4540  0091  1803               	skipnc
  4541  0092  2A11               	goto	i1l340
  4542  0093  3188               	movlp	high i1S4722
  4543  0094  3504               	lslf	4,w
  4544  0095  3E00               	addlw	low i1S4722
  4545  0096  0082               	movwf	2
  4546                           
  4547                           ;megaonoff.c: 306: break;
  4548  0097  2A11               	goto	i1l340
  4549  0098                     i1l2746:	
  4550                           ;megaonoff.c: 310: {
  4551                           ;megaonoff.c: 311: case '0':
  4552                           
  4553                           ;megaonoff.c: 309: switch(levelofDimmer_LSB)
  4554                           
  4555                           ;megaonoff.c: 307: case '1':
  4556                           
  4557                           
  4558                           ;megaonoff.c: 312: TMR1H=0x86;
  4559  0098  3086               	movlw	134
  4560  0099  29AF               	goto	L37
  4561  009A                     i1l2750:	
  4562                           ;megaonoff.c: 316: case '1':
  4563                           
  4564                           ;megaonoff.c: 315: break;
  4565                           
  4566                           ;megaonoff.c: 314: T1CONbits.TMR1ON = 1;
  4567                           
  4568                           ;megaonoff.c: 313: TMR1L=0x20;
  4569                           
  4570                           
  4571                           ;megaonoff.c: 317: TMR1H=0x86;
  4572  009A  3086               	movlw	134
  4573  009B  0097               	movwf	23	;volatile
  4574                           
  4575                           ;megaonoff.c: 318: TMR1L=0xE8;
  4576  009C  30E8               	movlw	232
  4577  009D  29F3               	goto	L2
  4578  009E                     i1l2754:	
  4579                           ;megaonoff.c: 321: case '2':
  4580                           
  4581                           ;megaonoff.c: 320: break;
  4582                           
  4583                           ;megaonoff.c: 319: T1CONbits.TMR1ON = 1;
  4584                           
  4585                           
  4586                           ;megaonoff.c: 322: TMR1H=0x87;
  4587  009E  3087               	movlw	135
  4588  009F  29B3               	goto	L38
  4589  00A0                     i1l2758:	
  4590                           ;megaonoff.c: 326: case '3':
  4591                           
  4592                           ;megaonoff.c: 325: break;
  4593                           
  4594                           ;megaonoff.c: 324: T1CONbits.TMR1ON = 1;
  4595                           
  4596                           ;megaonoff.c: 323: TMR1L=0xB0;
  4597                           
  4598                           
  4599                           ;megaonoff.c: 327: TMR1H=0x88;
  4600  00A0  3088               	movlw	136
  4601  00A1  29B7               	goto	L53
  4602  00A2                     i1l2762:	
  4603                           ;megaonoff.c: 331: case '4':
  4604                           
  4605                           ;megaonoff.c: 330: break;
  4606                           
  4607                           ;megaonoff.c: 329: T1CONbits.TMR1ON = 1;
  4608                           
  4609                           ;megaonoff.c: 328: TMR1L=0x78;
  4610                           
  4611                           
  4612                           ;megaonoff.c: 332: TMR1H=0x89;
  4613  00A2  3089               	movlw	137
  4614  00A3  29BB               	goto	L39
  4615  00A4                     i1l2766:	
  4616                           ;megaonoff.c: 336: case '5':
  4617                           
  4618                           ;megaonoff.c: 335: break;
  4619                           
  4620                           ;megaonoff.c: 334: T1CONbits.TMR1ON = 1;
  4621                           
  4622                           ;megaonoff.c: 333: TMR1L=0x40;
  4623                           
  4624                           
  4625                           ;megaonoff.c: 337: TMR1H=0x8A;
  4626  00A4  308A               	movlw	138
  4627  00A5  0097               	movwf	23	;volatile
  4628                           
  4629                           ;megaonoff.c: 338: TMR1L=0x08;
  4630  00A6  3008               	movlw	8
  4631  00A7  29F3               	goto	L2
  4632  00A8                     i1l2770:	
  4633                           ;megaonoff.c: 341: case '6':
  4634                           
  4635                           ;megaonoff.c: 340: break;
  4636                           
  4637                           ;megaonoff.c: 339: T1CONbits.TMR1ON = 1;
  4638                           
  4639                           
  4640                           ;megaonoff.c: 342: TMR1H=0x8A;
  4641  00A8  308A               	movlw	138
  4642  00A9  29CD               	goto	L40
  4643  00AA                     i1l2774:	
  4644                           ;megaonoff.c: 346: case '7':
  4645                           
  4646                           ;megaonoff.c: 345: break;
  4647                           
  4648                           ;megaonoff.c: 344: T1CONbits.TMR1ON = 1;
  4649                           
  4650                           ;megaonoff.c: 343: TMR1L=0xD0;
  4651                           
  4652                           
  4653                           ;megaonoff.c: 347: TMR1H=0x8B;
  4654  00AA  308B               	movlw	139
  4655  00AB  0097               	movwf	23	;volatile
  4656                           
  4657                           ;megaonoff.c: 348: TMR1L=0x98;
  4658  00AC  3098               	movlw	152
  4659  00AD  29F3               	goto	L2
  4660  00AE                     i1l2778:	
  4661                           ;megaonoff.c: 351: case '8':
  4662                           
  4663                           ;megaonoff.c: 350: break;
  4664                           
  4665                           ;megaonoff.c: 349: T1CONbits.TMR1ON = 1;
  4666                           
  4667                           
  4668                           ;megaonoff.c: 352: TMR1H=0x8C;
  4669  00AE  308C               	movlw	140
  4670  00AF  29D1               	goto	L41
  4671  00B0                     i1l2782:	
  4672                           ;megaonoff.c: 356: case '9':
  4673                           
  4674                           ;megaonoff.c: 355: break;
  4675                           
  4676                           ;megaonoff.c: 354: T1CONbits.TMR1ON = 1;
  4677                           
  4678                           ;megaonoff.c: 353: TMR1L=0x60;
  4679                           
  4680                           
  4681                           ;megaonoff.c: 357: TMR1H=0x8D;
  4682  00B0  308D               	movlw	141
  4683  00B1  0097               	movwf	23	;volatile
  4684                           
  4685                           ;megaonoff.c: 358: TMR1L=0x28;
  4686  00B2  3028               	movlw	40
  4687  00B3  29F3               	goto	L2
  4688  00B4                     i1l2788:	
  4689                           ;megaonoff.c: 364: }
  4690                           
  4691                           ;megaonoff.c: 363: break;
  4692                           
  4693                           ;megaonoff.c: 362: default:
  4694                           
  4695                           ;megaonoff.c: 360: break;
  4696                           
  4697                           ;megaonoff.c: 359: T1CONbits.TMR1ON = 1;
  4698                           
  4699  00B4  0877               	movf	_levelofDimmer_LSB,w
  4700                           
  4701                           ; Switch size 1, requested type "space"
  4702                           ; Number of cases is 10, Range of values is 48 to 57
  4703                           ; switch strategies available:
  4704                           ; Name         Instructions Cycles
  4705                           ; direct_byte           29     9 (fixed)
  4706                           ; simple_byte           31    16 (average)
  4707                           ; jumptable            263     9 (fixed)
  4708                           ;	Chosen strategy is direct_byte
  4709  00B5  3ED0               	addlw	-48
  4710  00B6  1C03               	skipc
  4711  00B7  2A11               	goto	i1l340
  4712  00B8  0084               	movwf	4
  4713  00B9  300A               	movlw	10
  4714  00BA  0204               	subwf	4,w
  4715  00BB  1803               	skipnc
  4716  00BC  2A11               	goto	i1l340
  4717  00BD  3188               	movlp	high i1S4724
  4718  00BE  3504               	lslf	4,w
  4719  00BF  3E14               	addlw	low i1S4724
  4720  00C0  0082               	movwf	2
  4721                           
  4722                           ;megaonoff.c: 365: break;
  4723  00C1  2A11               	goto	i1l340
  4724  00C2                     i1l2790:	
  4725                           ;megaonoff.c: 369: {
  4726                           ;megaonoff.c: 370: case '0':
  4727                           
  4728                           ;megaonoff.c: 368: switch(levelofDimmer_LSB)
  4729                           
  4730                           ;megaonoff.c: 366: case '2':
  4731                           
  4732                           
  4733                           ;megaonoff.c: 371: TMR1H=0x8D;
  4734  00C2  308D               	movlw	141
  4735  00C3  29D5               	goto	L42
  4736  00C4                     i1l2794:	
  4737                           ;megaonoff.c: 375: case '1':
  4738                           
  4739                           ;megaonoff.c: 374: break;
  4740                           
  4741                           ;megaonoff.c: 373: T1CONbits.TMR1ON = 1;
  4742                           
  4743                           ;megaonoff.c: 372: TMR1L=0xF0;
  4744                           
  4745                           
  4746                           ;megaonoff.c: 376: TMR1H=0x8E;
  4747  00C4  308E               	movlw	142
  4748  00C5  0097               	movwf	23	;volatile
  4749                           
  4750                           ;megaonoff.c: 377: TMR1L=0xB8;
  4751  00C6  30B8               	movlw	184
  4752  00C7  29F3               	goto	L2
  4753  00C8                     i1l2798:	
  4754                           ;megaonoff.c: 380: case '2':
  4755                           
  4756                           ;megaonoff.c: 379: break;
  4757                           
  4758                           ;megaonoff.c: 378: T1CONbits.TMR1ON = 1;
  4759                           
  4760                           
  4761                           ;megaonoff.c: 381: TMR1H=0x8F;
  4762  00C8  308F               	movlw	143
  4763  00C9  29D9               	goto	L43
  4764  00CA                     i1l2802:	
  4765                           ;megaonoff.c: 385: case '3':
  4766                           
  4767                           ;megaonoff.c: 384: break;
  4768                           
  4769                           ;megaonoff.c: 383: T1CONbits.TMR1ON = 1;
  4770                           
  4771                           ;megaonoff.c: 382: TMR1L=0x80;
  4772                           
  4773                           
  4774                           ;megaonoff.c: 386: TMR1H=0x90;
  4775  00CA  3090               	movlw	144
  4776  00CB  0097               	movwf	23	;volatile
  4777                           
  4778                           ;megaonoff.c: 387: TMR1L=0x48;
  4779  00CC  3048               	movlw	72
  4780  00CD  29F3               	goto	L2
  4781  00CE                     i1l2806:	
  4782                           ;megaonoff.c: 390: case '4':
  4783                           
  4784                           ;megaonoff.c: 389: break;
  4785                           
  4786                           ;megaonoff.c: 388: T1CONbits.TMR1ON = 1;
  4787                           
  4788                           
  4789                           ;megaonoff.c: 391: TMR1H=0x91;
  4790  00CE  3091               	movlw	145
  4791  00CF  29DD               	goto	L44
  4792  00D0                     i1l2810:	
  4793                           ;megaonoff.c: 395: case '5':
  4794                           
  4795                           ;megaonoff.c: 394: break;
  4796                           
  4797                           ;megaonoff.c: 393: T1CONbits.TMR1ON = 1;
  4798                           
  4799                           ;megaonoff.c: 392: TMR1L=0x10;
  4800                           
  4801                           
  4802                           ;megaonoff.c: 396: TMR1H=0x91;
  4803  00D0  3091               	movlw	145
  4804  00D1  0097               	movwf	23	;volatile
  4805                           
  4806                           ;megaonoff.c: 397: TMR1L=0xD8;
  4807  00D2  30D8               	movlw	216
  4808  00D3  29F3               	goto	L2
  4809  00D4                     i1l2814:	
  4810                           ;megaonoff.c: 400: case '6':
  4811                           
  4812                           ;megaonoff.c: 399: break;
  4813                           
  4814                           ;megaonoff.c: 398: T1CONbits.TMR1ON = 1;
  4815                           
  4816                           
  4817                           ;megaonoff.c: 401: TMR1H=0x92;
  4818  00D4  3092               	movlw	146
  4819  00D5  29E1               	goto	L45
  4820  00D6                     i1l2818:	
  4821                           ;megaonoff.c: 405: case '7':
  4822                           
  4823                           ;megaonoff.c: 404: break;
  4824                           
  4825                           ;megaonoff.c: 403: T1CONbits.TMR1ON = 1;
  4826                           
  4827                           ;megaonoff.c: 402: TMR1L=0xA0;
  4828                           
  4829                           
  4830                           ;megaonoff.c: 406: TMR1H=0x93;
  4831  00D6  3093               	movlw	147
  4832  00D7  0097               	movwf	23	;volatile
  4833                           
  4834                           ;megaonoff.c: 407: TMR1L=0x68;
  4835  00D8  3068               	movlw	104
  4836  00D9  29F3               	goto	L2
  4837  00DA                     i1l2822:	
  4838                           ;megaonoff.c: 410: case '8':
  4839                           
  4840                           ;megaonoff.c: 409: break;
  4841                           
  4842                           ;megaonoff.c: 408: T1CONbits.TMR1ON = 1;
  4843                           
  4844                           
  4845                           ;megaonoff.c: 411: TMR1H=0x94;
  4846  00DA  3094               	movlw	148
  4847  00DB  29E5               	goto	L46
  4848  00DC                     i1l2826:	
  4849                           ;megaonoff.c: 415: case '9':
  4850                           
  4851                           ;megaonoff.c: 414: break;
  4852                           
  4853                           ;megaonoff.c: 413: T1CONbits.TMR1ON = 1;
  4854                           
  4855                           ;megaonoff.c: 412: TMR1L=0x30;
  4856                           
  4857                           
  4858                           ;megaonoff.c: 416: TMR1H=0x94;
  4859  00DC  3094               	movlw	148
  4860  00DD  0097               	movwf	23	;volatile
  4861                           
  4862                           ;megaonoff.c: 417: TMR1L=0xF8;
  4863  00DE  30F8               	movlw	248
  4864  00DF  29F3               	goto	L2
  4865  00E0                     i1l2832:	
  4866                           ;megaonoff.c: 423: }
  4867                           
  4868                           ;megaonoff.c: 422: break;
  4869                           
  4870                           ;megaonoff.c: 421: default:
  4871                           
  4872                           ;megaonoff.c: 419: break;
  4873                           
  4874                           ;megaonoff.c: 418: T1CONbits.TMR1ON = 1;
  4875                           
  4876  00E0  0877               	movf	_levelofDimmer_LSB,w
  4877                           
  4878                           ; Switch size 1, requested type "space"
  4879                           ; Number of cases is 10, Range of values is 48 to 57
  4880                           ; switch strategies available:
  4881                           ; Name         Instructions Cycles
  4882                           ; direct_byte           29     9 (fixed)
  4883                           ; simple_byte           31    16 (average)
  4884                           ; jumptable            263     9 (fixed)
  4885                           ;	Chosen strategy is direct_byte
  4886  00E1  3ED0               	addlw	-48
  4887  00E2  1C03               	skipc
  4888  00E3  2A11               	goto	i1l340
  4889  00E4  0084               	movwf	4
  4890  00E5  300A               	movlw	10
  4891  00E6  0204               	subwf	4,w
  4892  00E7  1803               	skipnc
  4893  00E8  2A11               	goto	i1l340
  4894  00E9  3188               	movlp	high i1S4726
  4895  00EA  3504               	lslf	4,w
  4896  00EB  3E28               	addlw	low i1S4726
  4897  00EC  0082               	movwf	2
  4898                           
  4899                           ;megaonoff.c: 424: break;
  4900  00ED  2A11               	goto	i1l340
  4901  00EE                     i1l2834:	
  4902                           ;megaonoff.c: 428: {
  4903                           ;megaonoff.c: 429: case '0':
  4904                           
  4905                           ;megaonoff.c: 427: switch(levelofDimmer_LSB)
  4906                           
  4907                           ;megaonoff.c: 425: case '3':
  4908                           
  4909                           
  4910                           ;megaonoff.c: 430: TMR1H=0x95;
  4911  00EE  3095               	movlw	149
  4912  00EF  29E9               	goto	L47
  4913  00F0                     i1l2838:	
  4914                           ;megaonoff.c: 434: case '1':
  4915                           
  4916                           ;megaonoff.c: 433: break;
  4917                           
  4918                           ;megaonoff.c: 432: T1CONbits.TMR1ON = 1;
  4919                           
  4920                           ;megaonoff.c: 431: TMR1L=0xC0;
  4921                           
  4922                           
  4923                           ;megaonoff.c: 435: TMR1H=0x97;
  4924  00F0  3097               	movlw	151
  4925  00F1  29ED               	goto	L48
  4926  00F2                     i1l2842:	
  4927                           ;megaonoff.c: 439: case '2':
  4928                           
  4929                           ;megaonoff.c: 438: break;
  4930                           
  4931                           ;megaonoff.c: 437: T1CONbits.TMR1ON = 1;
  4932                           
  4933                           ;megaonoff.c: 436: TMR1L=0x50;
  4934                           
  4935                           
  4936                           ;megaonoff.c: 440: TMR1H=0x98;
  4937  00F2  3098               	movlw	152
  4938  00F3  29F1               	goto	L18
  4939  00F4                     i1l2846:	
  4940                           ;megaonoff.c: 444: case '3':
  4941                           
  4942                           ;megaonoff.c: 443: break;
  4943                           
  4944                           ;megaonoff.c: 442: T1CONbits.TMR1ON = 1;
  4945                           
  4946                           ;megaonoff.c: 441: TMR1L=0xE0;
  4947                           
  4948                           
  4949                           ;megaonoff.c: 445: TMR1H=0x9A;
  4950  00F4  309A               	movlw	154
  4951  00F5  299F               	goto	L34
  4952  00F6                     i1l2850:	
  4953                           ;megaonoff.c: 449: case '4':
  4954                           
  4955                           ;megaonoff.c: 448: break;
  4956                           
  4957                           ;megaonoff.c: 447: T1CONbits.TMR1ON = 1;
  4958                           
  4959                           ;megaonoff.c: 446: TMR1L=0x70;
  4960                           
  4961                           
  4962                           ;megaonoff.c: 450: TMR1H=0x9C;
  4963  00F6  309C               	movlw	156
  4964  00F7  29A7               	goto	L35
  4965  00F8                     i1l2856:	
  4966                           ;megaonoff.c: 454: case '5':
  4967                           
  4968                           ;megaonoff.c: 453: break;
  4969                           
  4970                           ;megaonoff.c: 452: T1CONbits.TMR1ON = 1;
  4971                           
  4972                           ;megaonoff.c: 451: TMR1L=0x00;
  4973                           
  4974                           
  4975                           ;megaonoff.c: 455: TMR1H=0x9D;
  4976  00F8  309D               	movlw	157
  4977  00F9  29AB               	goto	L36
  4978  00FA                     i1l2860:	
  4979                           ;megaonoff.c: 459: case '6':
  4980                           
  4981                           ;megaonoff.c: 458: break;
  4982                           
  4983                           ;megaonoff.c: 457: T1CONbits.TMR1ON = 1;
  4984                           
  4985                           ;megaonoff.c: 456: TMR1L=0x90;
  4986                           
  4987                           
  4988                           ;megaonoff.c: 460: TMR1H=0x9F;
  4989  00FA  309F               	movlw	159
  4990  00FB  29AF               	goto	L37
  4991  00FC                     i1l2864:	
  4992                           ;megaonoff.c: 464: case '7':
  4993                           
  4994                           ;megaonoff.c: 463: break;
  4995                           
  4996                           ;megaonoff.c: 462: T1CONbits.TMR1ON = 1;
  4997                           
  4998                           ;megaonoff.c: 461: TMR1L=0x20;
  4999                           
  5000                           
  5001                           ;megaonoff.c: 465: TMR1H=0xA0;
  5002  00FC  30A0               	movlw	160
  5003  00FD  29B3               	goto	L38
  5004  00FE                     i1l2868:	
  5005                           ;megaonoff.c: 469: case '8':
  5006                           
  5007                           ;megaonoff.c: 468: break;
  5008                           
  5009                           ;megaonoff.c: 467: T1CONbits.TMR1ON = 1;
  5010                           
  5011                           ;megaonoff.c: 466: TMR1L=0xB0;
  5012                           
  5013                           
  5014                           ;megaonoff.c: 470: TMR1H=0xA2;
  5015  00FE  30A2               	movlw	162
  5016  00FF  29BB               	goto	L39
  5017  0100                     i1l2872:	
  5018                           ;megaonoff.c: 474: case '9':
  5019                           
  5020                           ;megaonoff.c: 473: break;
  5021                           
  5022                           ;megaonoff.c: 472: T1CONbits.TMR1ON = 1;
  5023                           
  5024                           ;megaonoff.c: 471: TMR1L=0x40;
  5025                           
  5026                           
  5027                           ;megaonoff.c: 475: TMR1H=0xA3;
  5028  0100  30A3               	movlw	163
  5029  0101  29CD               	goto	L40
  5030  0102                     i1l2878:	
  5031                           ;megaonoff.c: 481: }
  5032                           
  5033                           ;megaonoff.c: 480: break;
  5034                           
  5035                           ;megaonoff.c: 479: default:
  5036                           
  5037                           ;megaonoff.c: 478: break;
  5038                           
  5039                           ;megaonoff.c: 477: T1CONbits.TMR1ON = 1;
  5040                           
  5041                           ;megaonoff.c: 476: TMR1L=0xD0;
  5042                           
  5043  0102  0877               	movf	_levelofDimmer_LSB,w
  5044                           
  5045                           ; Switch size 1, requested type "space"
  5046                           ; Number of cases is 10, Range of values is 48 to 57
  5047                           ; switch strategies available:
  5048                           ; Name         Instructions Cycles
  5049                           ; direct_byte           29     9 (fixed)
  5050                           ; simple_byte           31    16 (average)
  5051                           ; jumptable            263     9 (fixed)
  5052                           ;	Chosen strategy is direct_byte
  5053  0103  3ED0               	addlw	-48
  5054  0104  1C03               	skipc
  5055  0105  2A11               	goto	i1l340
  5056  0106  0084               	movwf	4
  5057  0107  300A               	movlw	10
  5058  0108  0204               	subwf	4,w
  5059  0109  1803               	skipnc
  5060  010A  2A11               	goto	i1l340
  5061  010B  3188               	movlp	high i1S4728
  5062  010C  3504               	lslf	4,w
  5063  010D  3E3C               	addlw	low i1S4728
  5064  010E  0082               	movwf	2
  5065                           
  5066                           ;megaonoff.c: 482: break;
  5067  010F  2A11               	goto	i1l340
  5068  0110                     i1l2880:	
  5069                           ;megaonoff.c: 486: {
  5070                           ;megaonoff.c: 487: case '0':
  5071                           
  5072                           ;megaonoff.c: 485: switch(levelofDimmer_LSB)
  5073                           
  5074                           ;megaonoff.c: 483: case '4':
  5075                           
  5076                           
  5077                           ;megaonoff.c: 488: TMR1H=0xA5;
  5078  0110  30A5               	movlw	165
  5079  0111  29D1               	goto	L41
  5080  0112                     i1l2884:	
  5081                           ;megaonoff.c: 492: case '1':
  5082                           
  5083                           ;megaonoff.c: 491: break;
  5084                           
  5085                           ;megaonoff.c: 490: T1CONbits.TMR1ON = 1;
  5086                           
  5087                           ;megaonoff.c: 489: TMR1L=0x60;
  5088                           
  5089                           
  5090                           ;megaonoff.c: 493: TMR1H=0xA6;
  5091  0112  30A6               	movlw	166
  5092  0113  29D5               	goto	L42
  5093  0114                     i1l2888:	
  5094                           ;megaonoff.c: 497: case '2':
  5095                           
  5096                           ;megaonoff.c: 496: break;
  5097                           
  5098                           ;megaonoff.c: 495: T1CONbits.TMR1ON = 1;
  5099                           
  5100                           ;megaonoff.c: 494: TMR1L=0xF0;
  5101                           
  5102                           
  5103                           ;megaonoff.c: 498: TMR1H=0xA8;
  5104  0114  30A8               	movlw	168
  5105  0115  29D9               	goto	L43
  5106  0116                     i1l2892:	
  5107                           ;megaonoff.c: 502: case '3':
  5108                           
  5109                           ;megaonoff.c: 501: break;
  5110                           
  5111                           ;megaonoff.c: 500: T1CONbits.TMR1ON = 1;
  5112                           
  5113                           ;megaonoff.c: 499: TMR1L=0x80;
  5114                           
  5115                           
  5116                           ;megaonoff.c: 503: TMR1H=0xAA;
  5117  0116  30AA               	movlw	170
  5118  0117  29DD               	goto	L44
  5119  0118                     i1l2896:	
  5120                           ;megaonoff.c: 507: case '4':
  5121                           
  5122                           ;megaonoff.c: 506: break;
  5123                           
  5124                           ;megaonoff.c: 505: T1CONbits.TMR1ON = 1;
  5125                           
  5126                           ;megaonoff.c: 504: TMR1L=0x10;
  5127                           
  5128                           
  5129                           ;megaonoff.c: 508: TMR1H=0xAB;
  5130  0118  30AB               	movlw	171
  5131  0119  29E1               	goto	L45
  5132  011A                     i1l2900:	
  5133                           ;megaonoff.c: 512: case '5':
  5134                           
  5135                           ;megaonoff.c: 511: break;
  5136                           
  5137                           ;megaonoff.c: 510: T1CONbits.TMR1ON = 1;
  5138                           
  5139                           ;megaonoff.c: 509: TMR1L=0xA0;
  5140                           
  5141                           
  5142                           ;megaonoff.c: 513: TMR1H=0xAD;
  5143  011A  30AD               	movlw	173
  5144  011B  29E5               	goto	L46
  5145  011C                     i1l2904:	
  5146                           ;megaonoff.c: 517: case '6':
  5147                           
  5148                           ;megaonoff.c: 516: break;
  5149                           
  5150                           ;megaonoff.c: 515: T1CONbits.TMR1ON = 1;
  5151                           
  5152                           ;megaonoff.c: 514: TMR1L=0x30;
  5153                           
  5154                           
  5155                           ;megaonoff.c: 518: TMR1H=0xAE;
  5156  011C  30AE               	movlw	174
  5157  011D  29E9               	goto	L47
  5158  011E                     i1l2908:	
  5159                           ;megaonoff.c: 522: case '7':
  5160                           
  5161                           ;megaonoff.c: 521: break;
  5162                           
  5163                           ;megaonoff.c: 520: T1CONbits.TMR1ON = 1;
  5164                           
  5165                           ;megaonoff.c: 519: TMR1L=0xC0;
  5166                           
  5167                           
  5168                           ;megaonoff.c: 523: TMR1H=0xB0;
  5169  011E  30B0               	movlw	176
  5170  011F  29ED               	goto	L48
  5171  0120                     i1l2912:	
  5172                           ;megaonoff.c: 527: case '8':
  5173                           
  5174                           ;megaonoff.c: 526: break;
  5175                           
  5176                           ;megaonoff.c: 525: T1CONbits.TMR1ON = 1;
  5177                           
  5178                           ;megaonoff.c: 524: TMR1L=0x50;
  5179                           
  5180                           
  5181                           ;megaonoff.c: 528: TMR1H=0xB1;
  5182  0120  30B1               	movlw	177
  5183  0121  29F1               	goto	L18
  5184  0122                     i1l2916:	
  5185                           ;megaonoff.c: 532: case '9':
  5186                           
  5187                           ;megaonoff.c: 531: break;
  5188                           
  5189                           ;megaonoff.c: 530: T1CONbits.TMR1ON = 1;
  5190                           
  5191                           ;megaonoff.c: 529: TMR1L=0xE0;
  5192                           
  5193                           
  5194                           ;megaonoff.c: 533: TMR1H=0xB3;
  5195  0122  30B3               	movlw	179
  5196  0123  299F               	goto	L34
  5197  0124                     i1l2922:	
  5198                           ;megaonoff.c: 539: }
  5199                           
  5200                           ;megaonoff.c: 538: break;
  5201                           
  5202                           ;megaonoff.c: 537: default:
  5203                           
  5204                           ;megaonoff.c: 536: break;
  5205                           
  5206                           ;megaonoff.c: 535: T1CONbits.TMR1ON = 1;
  5207                           
  5208                           ;megaonoff.c: 534: TMR1L=0x70;
  5209                           
  5210  0124  0877               	movf	_levelofDimmer_LSB,w
  5211                           
  5212                           ; Switch size 1, requested type "space"
  5213                           ; Number of cases is 10, Range of values is 48 to 57
  5214                           ; switch strategies available:
  5215                           ; Name         Instructions Cycles
  5216                           ; direct_byte           29     9 (fixed)
  5217                           ; simple_byte           31    16 (average)
  5218                           ; jumptable            263     9 (fixed)
  5219                           ;	Chosen strategy is direct_byte
  5220  0125  3ED0               	addlw	-48
  5221  0126  1C03               	skipc
  5222  0127  2A11               	goto	i1l340
  5223  0128  0084               	movwf	4
  5224  0129  300A               	movlw	10
  5225  012A  0204               	subwf	4,w
  5226  012B  1803               	skipnc
  5227  012C  2A11               	goto	i1l340
  5228  012D  3188               	movlp	high i1S4730
  5229  012E  3504               	lslf	4,w
  5230  012F  3E50               	addlw	low i1S4730
  5231  0130  0082               	movwf	2
  5232                           
  5233                           ;megaonoff.c: 540: break;
  5234  0131  2A11               	goto	i1l340
  5235  0132                     i1l2924:	
  5236                           ;megaonoff.c: 544: {
  5237                           ;megaonoff.c: 545: case '0':
  5238                           
  5239                           ;megaonoff.c: 543: switch(levelofDimmer_LSB)
  5240                           
  5241                           ;megaonoff.c: 541: case '5':
  5242                           
  5243                           
  5244                           ;megaonoff.c: 546: TMR1H=0xB5;
  5245  0132  30B5               	movlw	181
  5246  0133  29A7               	goto	L35
  5247  0134                     i1l2930:	
  5248                           ;megaonoff.c: 550: case '1':
  5249                           
  5250                           ;megaonoff.c: 549: break;
  5251                           
  5252                           ;megaonoff.c: 548: T1CONbits.TMR1ON = 1;
  5253                           
  5254                           ;megaonoff.c: 547: TMR1L=0x00;
  5255                           
  5256                           
  5257                           ;megaonoff.c: 551: TMR1H=0xB6;
  5258  0134  30B6               	movlw	182
  5259  0135  29AB               	goto	L36
  5260  0136                     i1l2934:	
  5261                           ;megaonoff.c: 555: case '2':
  5262                           
  5263                           ;megaonoff.c: 554: break;
  5264                           
  5265                           ;megaonoff.c: 553: T1CONbits.TMR1ON = 1;
  5266                           
  5267                           ;megaonoff.c: 552: TMR1L=0x90;
  5268                           
  5269                           
  5270                           ;megaonoff.c: 556: TMR1H=0xB8;
  5271  0136  30B8               	movlw	184
  5272  0137  29AF               	goto	L37
  5273  0138                     i1l2938:	
  5274                           ;megaonoff.c: 560: case '3':
  5275                           
  5276                           ;megaonoff.c: 559: break;
  5277                           
  5278                           ;megaonoff.c: 558: T1CONbits.TMR1ON = 1;
  5279                           
  5280                           ;megaonoff.c: 557: TMR1L=0x20;
  5281                           
  5282                           
  5283                           ;megaonoff.c: 561: TMR1H=0xB9;
  5284  0138  30B9               	movlw	185
  5285  0139  29B3               	goto	L38
  5286  013A                     i1l2942:	
  5287                           ;megaonoff.c: 565: case '4':
  5288                           
  5289                           ;megaonoff.c: 564: break;
  5290                           
  5291                           ;megaonoff.c: 563: T1CONbits.TMR1ON = 1;
  5292                           
  5293                           ;megaonoff.c: 562: TMR1L=0xB0;
  5294                           
  5295                           
  5296                           ;megaonoff.c: 566: TMR1H=0xBB;
  5297  013A  30BB               	movlw	187
  5298  013B  29BB               	goto	L39
  5299  013C                     i1l2946:	
  5300                           ;megaonoff.c: 570: case '5':
  5301                           
  5302                           ;megaonoff.c: 569: break;
  5303                           
  5304                           ;megaonoff.c: 568: T1CONbits.TMR1ON = 1;
  5305                           
  5306                           ;megaonoff.c: 567: TMR1L=0x40;
  5307                           
  5308                           
  5309                           ;megaonoff.c: 571: TMR1H=0xBC;
  5310  013C  30BC               	movlw	188
  5311  013D  29CD               	goto	L40
  5312  013E                     i1l2950:	
  5313                           ;megaonoff.c: 575: case '6':
  5314                           
  5315                           ;megaonoff.c: 574: break;
  5316                           
  5317                           ;megaonoff.c: 573: T1CONbits.TMR1ON = 1;
  5318                           
  5319                           ;megaonoff.c: 572: TMR1L=0xD0;
  5320                           
  5321                           
  5322                           ;megaonoff.c: 576: TMR1H=0xBE;
  5323  013E  30BE               	movlw	190
  5324  013F  29D1               	goto	L41
  5325  0140                     i1l2954:	
  5326                           ;megaonoff.c: 580: case '7':
  5327                           
  5328                           ;megaonoff.c: 579: break;
  5329                           
  5330                           ;megaonoff.c: 578: T1CONbits.TMR1ON = 1;
  5331                           
  5332                           ;megaonoff.c: 577: TMR1L=0x60;
  5333                           
  5334                           
  5335                           ;megaonoff.c: 581: TMR1H=0xBF;
  5336  0140  30BF               	movlw	191
  5337  0141  29D5               	goto	L42
  5338  0142                     i1l2958:	
  5339                           ;megaonoff.c: 585: case '8':
  5340                           
  5341                           ;megaonoff.c: 584: break;
  5342                           
  5343                           ;megaonoff.c: 583: T1CONbits.TMR1ON = 1;
  5344                           
  5345                           ;megaonoff.c: 582: TMR1L=0xF0;
  5346                           
  5347                           
  5348                           ;megaonoff.c: 586: TMR1H=0xC1;
  5349  0142  30C1               	movlw	193
  5350  0143  29D9               	goto	L43
  5351  0144                     i1l2962:	
  5352                           ;megaonoff.c: 590: case '9':
  5353                           
  5354                           ;megaonoff.c: 589: break;
  5355                           
  5356                           ;megaonoff.c: 588: T1CONbits.TMR1ON = 1;
  5357                           
  5358                           ;megaonoff.c: 587: TMR1L=0x80;
  5359                           
  5360                           
  5361                           ;megaonoff.c: 591: TMR1H=0xC3;
  5362  0144  30C3               	movlw	195
  5363  0145  29DD               	goto	L44
  5364  0146                     i1l2968:	
  5365                           ;megaonoff.c: 598: }
  5366                           
  5367                           ;megaonoff.c: 597: break;
  5368                           
  5369                           ;megaonoff.c: 596: default:
  5370                           
  5371                           ;megaonoff.c: 594: break;
  5372                           
  5373                           ;megaonoff.c: 593: T1CONbits.TMR1ON = 1;
  5374                           
  5375                           ;megaonoff.c: 592: TMR1L=0x10;
  5376                           
  5377  0146  0877               	movf	_levelofDimmer_LSB,w
  5378                           
  5379                           ; Switch size 1, requested type "space"
  5380                           ; Number of cases is 10, Range of values is 48 to 57
  5381                           ; switch strategies available:
  5382                           ; Name         Instructions Cycles
  5383                           ; direct_byte           29     9 (fixed)
  5384                           ; simple_byte           31    16 (average)
  5385                           ; jumptable            263     9 (fixed)
  5386                           ;	Chosen strategy is direct_byte
  5387  0147  3ED0               	addlw	-48
  5388  0148  1C03               	skipc
  5389  0149  2A11               	goto	i1l340
  5390  014A  0084               	movwf	4
  5391  014B  300A               	movlw	10
  5392  014C  0204               	subwf	4,w
  5393  014D  1803               	skipnc
  5394  014E  2A11               	goto	i1l340
  5395  014F  3188               	movlp	high i1S4732
  5396  0150  3504               	lslf	4,w
  5397  0151  3E64               	addlw	low i1S4732
  5398  0152  0082               	movwf	2
  5399                           
  5400                           ;megaonoff.c: 599: break;
  5401  0153  2A11               	goto	i1l340
  5402  0154                     i1l2970:	
  5403                           ;megaonoff.c: 603: {
  5404                           ;megaonoff.c: 604: case '0':
  5405                           
  5406                           ;megaonoff.c: 602: switch(levelofDimmer_LSB)
  5407                           
  5408                           ;megaonoff.c: 600: case '6':
  5409                           
  5410                           
  5411                           ;megaonoff.c: 605: TMR1H=0xC4;
  5412  0154  30C4               	movlw	196
  5413  0155  29E1               	goto	L45
  5414  0156                     i1l2974:	
  5415                           ;megaonoff.c: 609: case '1':
  5416                           
  5417                           ;megaonoff.c: 608: break;
  5418                           
  5419                           ;megaonoff.c: 607: T1CONbits.TMR1ON = 1;
  5420                           
  5421                           ;megaonoff.c: 606: TMR1L=0xA0;
  5422                           
  5423                           
  5424                           ;megaonoff.c: 610: TMR1H=0xC6;
  5425  0156  30C6               	movlw	198
  5426  0157  29E5               	goto	L46
  5427  0158                     i1l2978:	
  5428                           ;megaonoff.c: 614: case '2':
  5429                           
  5430                           ;megaonoff.c: 613: break;
  5431                           
  5432                           ;megaonoff.c: 612: T1CONbits.TMR1ON = 1;
  5433                           
  5434                           ;megaonoff.c: 611: TMR1L=0x30;
  5435                           
  5436                           
  5437                           ;megaonoff.c: 615: TMR1H=0xC7;
  5438  0158  30C7               	movlw	199
  5439  0159  29E9               	goto	L47
  5440  015A                     i1l2982:	
  5441                           ;megaonoff.c: 619: case '3':
  5442                           
  5443                           ;megaonoff.c: 618: break;
  5444                           
  5445                           ;megaonoff.c: 617: T1CONbits.TMR1ON = 1;
  5446                           
  5447                           ;megaonoff.c: 616: TMR1L=0xC0;
  5448                           
  5449                           
  5450                           ;megaonoff.c: 620: TMR1H=0xC9;
  5451  015A  30C9               	movlw	201
  5452  015B  29ED               	goto	L48
  5453  015C                     i1l2986:	
  5454                           ;megaonoff.c: 624: case '4':
  5455                           
  5456                           ;megaonoff.c: 623: break;
  5457                           
  5458                           ;megaonoff.c: 622: T1CONbits.TMR1ON = 1;
  5459                           
  5460                           ;megaonoff.c: 621: TMR1L=0x50;
  5461                           
  5462                           
  5463                           ;megaonoff.c: 625: TMR1H=0xCA;
  5464  015C  30CA               	movlw	202
  5465  015D  29F1               	goto	L18
  5466  015E                     i1l2990:	
  5467                           ;megaonoff.c: 629: case '5':
  5468                           
  5469                           ;megaonoff.c: 628: break;
  5470                           
  5471                           ;megaonoff.c: 627: T1CONbits.TMR1ON = 1;
  5472                           
  5473                           ;megaonoff.c: 626: TMR1L=0xE0;
  5474                           
  5475                           
  5476                           ;megaonoff.c: 630: TMR1H=0xCC;
  5477  015E  30CC               	movlw	204
  5478  015F  299F               	goto	L34
  5479  0160                     i1l2994:	
  5480                           ;megaonoff.c: 634: case '6':
  5481                           
  5482                           ;megaonoff.c: 633: break;
  5483                           
  5484                           ;megaonoff.c: 632: T1CONbits.TMR1ON = 1;
  5485                           
  5486                           ;megaonoff.c: 631: TMR1L=0x70;
  5487                           
  5488                           
  5489                           ;megaonoff.c: 635: TMR1H=0xCE;
  5490  0160  30CE               	movlw	206
  5491  0161  29A7               	goto	L35
  5492  0162                     i1l3000:	
  5493                           ;megaonoff.c: 639: case '7':
  5494                           
  5495                           ;megaonoff.c: 638: break;
  5496                           
  5497                           ;megaonoff.c: 637: T1CONbits.TMR1ON = 1;
  5498                           
  5499                           ;megaonoff.c: 636: TMR1L=0x00;
  5500                           
  5501                           
  5502                           ;megaonoff.c: 640: TMR1H=0xCF;
  5503  0162  30CF               	movlw	207
  5504  0163  29AB               	goto	L36
  5505  0164                     i1l3004:	
  5506                           ;megaonoff.c: 644: case '8':
  5507                           
  5508                           ;megaonoff.c: 643: break;
  5509                           
  5510                           ;megaonoff.c: 642: T1CONbits.TMR1ON = 1;
  5511                           
  5512                           ;megaonoff.c: 641: TMR1L=0x90;
  5513                           
  5514                           
  5515                           ;megaonoff.c: 645: TMR1H=0xD1;
  5516  0164  30D1               	movlw	209
  5517  0165  29AF               	goto	L37
  5518  0166                     i1l3008:	
  5519                           ;megaonoff.c: 649: case '9':
  5520                           
  5521                           ;megaonoff.c: 648: break;
  5522                           
  5523                           ;megaonoff.c: 647: T1CONbits.TMR1ON = 1;
  5524                           
  5525                           ;megaonoff.c: 646: TMR1L=0x20;
  5526                           
  5527                           
  5528                           ;megaonoff.c: 650: TMR1H=0xD2;
  5529  0166  30D2               	movlw	210
  5530  0167  29B3               	goto	L38
  5531  0168                     i1l3014:	
  5532                           ;megaonoff.c: 656: }
  5533                           
  5534                           ;megaonoff.c: 655: break;
  5535                           
  5536                           ;megaonoff.c: 654: default:
  5537                           
  5538                           ;megaonoff.c: 653: break;
  5539                           
  5540                           ;megaonoff.c: 652: T1CONbits.TMR1ON = 1;
  5541                           
  5542                           ;megaonoff.c: 651: TMR1L=0xB0;
  5543                           
  5544  0168  0877               	movf	_levelofDimmer_LSB,w
  5545                           
  5546                           ; Switch size 1, requested type "space"
  5547                           ; Number of cases is 10, Range of values is 48 to 57
  5548                           ; switch strategies available:
  5549                           ; Name         Instructions Cycles
  5550                           ; direct_byte           29     9 (fixed)
  5551                           ; simple_byte           31    16 (average)
  5552                           ; jumptable            263     9 (fixed)
  5553                           ;	Chosen strategy is direct_byte
  5554  0169  3ED0               	addlw	-48
  5555  016A  1C03               	skipc
  5556  016B  2A11               	goto	i1l340
  5557  016C  0084               	movwf	4
  5558  016D  300A               	movlw	10
  5559  016E  0204               	subwf	4,w
  5560  016F  1803               	skipnc
  5561  0170  2A11               	goto	i1l340
  5562  0171  3188               	movlp	high i1S4734
  5563  0172  3504               	lslf	4,w
  5564  0173  3E78               	addlw	low i1S4734
  5565  0174  0082               	movwf	2
  5566                           
  5567                           ;megaonoff.c: 657: break;
  5568  0175  2A11               	goto	i1l340
  5569  0176                     i1l3016:	
  5570                           ;megaonoff.c: 661: {
  5571                           ;megaonoff.c: 662: case '0':
  5572                           
  5573                           ;megaonoff.c: 660: switch(levelofDimmer_LSB)
  5574                           
  5575                           ;megaonoff.c: 658: case '7':
  5576                           
  5577                           
  5578                           ;megaonoff.c: 663: TMR1H=0xD4;
  5579  0176  30D4               	movlw	212
  5580  0177  29BB               	goto	L39
  5581  0178                     i1l3020:	
  5582                           ;megaonoff.c: 667: case '1':
  5583                           
  5584                           ;megaonoff.c: 666: break;
  5585                           
  5586                           ;megaonoff.c: 665: T1CONbits.TMR1ON = 1;
  5587                           
  5588                           ;megaonoff.c: 664: TMR1L=0x40;
  5589                           
  5590                           
  5591                           ;megaonoff.c: 668: TMR1H=0xD5;
  5592  0178  30D5               	movlw	213
  5593  0179  29CD               	goto	L40
  5594  017A                     i1l3024:	
  5595                           ;megaonoff.c: 672: case '2':
  5596                           
  5597                           ;megaonoff.c: 671: break;
  5598                           
  5599                           ;megaonoff.c: 670: T1CONbits.TMR1ON = 1;
  5600                           
  5601                           ;megaonoff.c: 669: TMR1L=0xD0;
  5602                           
  5603                           
  5604                           ;megaonoff.c: 673: TMR1H=0xD7;
  5605  017A  30D7               	movlw	215
  5606  017B  29D1               	goto	L41
  5607  017C                     i1l3028:	
  5608                           ;megaonoff.c: 677: case '3':
  5609                           
  5610                           ;megaonoff.c: 676: break;
  5611                           
  5612                           ;megaonoff.c: 675: T1CONbits.TMR1ON = 1;
  5613                           
  5614                           ;megaonoff.c: 674: TMR1L=0x60;
  5615                           
  5616                           
  5617                           ;megaonoff.c: 678: TMR1H=0xD8;
  5618  017C  30D8               	movlw	216
  5619  017D  29D5               	goto	L42
  5620  017E                     i1l3032:	
  5621                           ;megaonoff.c: 682: case '4':
  5622                           
  5623                           ;megaonoff.c: 681: break;
  5624                           
  5625                           ;megaonoff.c: 680: T1CONbits.TMR1ON = 1;
  5626                           
  5627                           ;megaonoff.c: 679: TMR1L=0xF0;
  5628                           
  5629                           
  5630                           ;megaonoff.c: 683: TMR1H=0xDA;
  5631  017E  30DA               	movlw	218
  5632  017F  29D9               	goto	L43
  5633  0180                     i1l3036:	
  5634                           ;megaonoff.c: 687: case '5':
  5635                           
  5636                           ;megaonoff.c: 686: break;
  5637                           
  5638                           ;megaonoff.c: 685: T1CONbits.TMR1ON = 1;
  5639                           
  5640                           ;megaonoff.c: 684: TMR1L=0x80;
  5641                           
  5642                           
  5643                           ;megaonoff.c: 688: TMR1H=0xDC;
  5644  0180  30DC               	movlw	220
  5645  0181  29DD               	goto	L44
  5646  0182                     i1l3040:	
  5647                           ;megaonoff.c: 692: case '6':
  5648                           
  5649                           ;megaonoff.c: 691: break;
  5650                           
  5651                           ;megaonoff.c: 690: T1CONbits.TMR1ON = 1;
  5652                           
  5653                           ;megaonoff.c: 689: TMR1L=0x10;
  5654                           
  5655                           
  5656                           ;megaonoff.c: 693: TMR1H=0xDD;
  5657  0182  30DD               	movlw	221
  5658  0183  29E1               	goto	L45
  5659  0184                     i1l3044:	
  5660                           ;megaonoff.c: 697: case '7':
  5661                           
  5662                           ;megaonoff.c: 696: break;
  5663                           
  5664                           ;megaonoff.c: 695: T1CONbits.TMR1ON = 1;
  5665                           
  5666                           ;megaonoff.c: 694: TMR1L=0xA0;
  5667                           
  5668                           
  5669                           ;megaonoff.c: 698: TMR1H=0xDF;
  5670  0184  30DF               	movlw	223
  5671  0185  29E5               	goto	L46
  5672  0186                     i1l3048:	
  5673                           ;megaonoff.c: 702: case '8':
  5674                           
  5675                           ;megaonoff.c: 701: break;
  5676                           
  5677                           ;megaonoff.c: 700: T1CONbits.TMR1ON = 1;
  5678                           
  5679                           ;megaonoff.c: 699: TMR1L=0x30;
  5680                           
  5681                           
  5682                           ;megaonoff.c: 703: TMR1H=0xE0;
  5683  0186  30E0               	movlw	224
  5684  0187  29E9               	goto	L47
  5685  0188                     i1l3052:	
  5686                           ;megaonoff.c: 707: case '9':
  5687                           
  5688                           ;megaonoff.c: 706: break;
  5689                           
  5690                           ;megaonoff.c: 705: T1CONbits.TMR1ON = 1;
  5691                           
  5692                           ;megaonoff.c: 704: TMR1L=0xC0;
  5693                           
  5694                           
  5695                           ;megaonoff.c: 708: TMR1H=0xE2;
  5696  0188  30E2               	movlw	226
  5697  0189  29ED               	goto	L48
  5698  018A                     i1l3058:	
  5699                           ;megaonoff.c: 714: }
  5700                           
  5701                           ;megaonoff.c: 713: break;
  5702                           
  5703                           ;megaonoff.c: 712: default:
  5704                           
  5705                           ;megaonoff.c: 711: break;
  5706                           
  5707                           ;megaonoff.c: 710: T1CONbits.TMR1ON = 1;
  5708                           
  5709                           ;megaonoff.c: 709: TMR1L=0x50;
  5710                           
  5711  018A  0877               	movf	_levelofDimmer_LSB,w
  5712                           
  5713                           ; Switch size 1, requested type "space"
  5714                           ; Number of cases is 10, Range of values is 48 to 57
  5715                           ; switch strategies available:
  5716                           ; Name         Instructions Cycles
  5717                           ; direct_byte           29     9 (fixed)
  5718                           ; simple_byte           31    16 (average)
  5719                           ; jumptable            263     9 (fixed)
  5720                           ;	Chosen strategy is direct_byte
  5721  018B  3ED0               	addlw	-48
  5722  018C  1C03               	skipc
  5723  018D  2A11               	goto	i1l340
  5724  018E  0084               	movwf	4
  5725  018F  300A               	movlw	10
  5726  0190  0204               	subwf	4,w
  5727  0191  1803               	skipnc
  5728  0192  2A11               	goto	i1l340
  5729  0193  3188               	movlp	high i1S4736
  5730  0194  3504               	lslf	4,w
  5731  0195  3E8C               	addlw	low i1S4736
  5732  0196  0082               	movwf	2
  5733                           
  5734                           ;megaonoff.c: 715: break;
  5735  0197  2A11               	goto	i1l340
  5736  0198                     i1l3060:	
  5737                           ;megaonoff.c: 719: {
  5738                           ;megaonoff.c: 720: case '0':
  5739                           
  5740                           ;megaonoff.c: 718: switch(levelofDimmer_LSB)
  5741                           
  5742                           ;megaonoff.c: 716: case '8':
  5743                           
  5744                           
  5745                           ;megaonoff.c: 721: TMR1H=0xE3;
  5746  0198  30E3               	movlw	227
  5747  0199  29F1               	goto	L18
  5748  019A                     i1l3064:	
  5749                           ;megaonoff.c: 725: case '1':
  5750                           
  5751                           ;megaonoff.c: 724: break;
  5752                           
  5753                           ;megaonoff.c: 723: T1CONbits.TMR1ON = 1;
  5754                           
  5755                           ;megaonoff.c: 722: TMR1L=0xE0;
  5756                           
  5757                           
  5758                           ;megaonoff.c: 726: TMR1H=0xE4;
  5759  019A  30E4               	movlw	228
  5760  019B                     L51:	
  5761  019B  0097               	movwf	23	;volatile
  5762                           
  5763                           ;megaonoff.c: 727: TMR1L=0xA8;
  5764  019C  30A8               	movlw	168
  5765  019D  29F3               	goto	L2
  5766  019E                     i1l3068:	
  5767                           ;megaonoff.c: 730: case '2':
  5768                           
  5769                           ;megaonoff.c: 729: break;
  5770                           
  5771                           ;megaonoff.c: 728: T1CONbits.TMR1ON = 1;
  5772                           
  5773                           
  5774                           ;megaonoff.c: 731: TMR1H=0xE5;
  5775  019E  30E5               	movlw	229
  5776  019F                     L34:	
  5777  019F  0097               	movwf	23	;volatile
  5778                           
  5779                           ;megaonoff.c: 732: TMR1L=0x70;
  5780  01A0  3070               	movlw	112
  5781  01A1  29F3               	goto	L2
  5782  01A2                     i1l3072:	
  5783                           ;megaonoff.c: 735: case '3':
  5784                           
  5785                           ;megaonoff.c: 734: break;
  5786                           
  5787                           ;megaonoff.c: 733: T1CONbits.TMR1ON = 1;
  5788                           
  5789                           
  5790                           ;megaonoff.c: 736: TMR1H=0xE6;
  5791  01A2  30E6               	movlw	230
  5792  01A3  0097               	movwf	23	;volatile
  5793                           
  5794                           ;megaonoff.c: 737: TMR1L=0x38;
  5795  01A4  3038               	movlw	56
  5796  01A5  29F3               	goto	L2
  5797  01A6                     i1l3076:	
  5798                           ;megaonoff.c: 740: case '4':
  5799                           
  5800                           ;megaonoff.c: 739: break;
  5801                           
  5802                           ;megaonoff.c: 738: T1CONbits.TMR1ON = 1;
  5803                           
  5804                           
  5805                           ;megaonoff.c: 741: TMR1H=0xE7;
  5806  01A6  30E7               	movlw	231
  5807  01A7                     L35:	
  5808  01A7  0097               	movwf	23	;volatile
  5809                           
  5810                           ;megaonoff.c: 742: TMR1L=0x00;
  5811  01A8  0196               	clrf	22	;volatile
  5812  01A9  29F4               	goto	i1l3144
  5813  01AA                     i1l3082:	
  5814                           ;megaonoff.c: 745: case '5':
  5815                           
  5816                           ;megaonoff.c: 744: break;
  5817                           
  5818                           ;megaonoff.c: 743: T1CONbits.TMR1ON = 1;
  5819                           
  5820                           
  5821                           ;megaonoff.c: 746: TMR1H=0xE8;
  5822  01AA  30E8               	movlw	232
  5823  01AB                     L36:	
  5824  01AB  0097               	movwf	23	;volatile
  5825                           
  5826                           ;megaonoff.c: 747: TMR1L=0x90;
  5827  01AC  3090               	movlw	144
  5828  01AD  29F3               	goto	L2
  5829  01AE                     i1l3086:	
  5830                           ;megaonoff.c: 750: case '6':
  5831                           
  5832                           ;megaonoff.c: 749: break;
  5833                           
  5834                           ;megaonoff.c: 748: T1CONbits.TMR1ON = 1;
  5835                           
  5836                           
  5837                           ;megaonoff.c: 751: TMR1H=0xEA;
  5838  01AE  30EA               	movlw	234
  5839  01AF                     L37:	
  5840  01AF  0097               	movwf	23	;volatile
  5841                           
  5842                           ;megaonoff.c: 752: TMR1L=0x20;
  5843  01B0  3020               	movlw	32
  5844  01B1  29F3               	goto	L2
  5845  01B2                     i1l3090:	
  5846                           ;megaonoff.c: 755: case '7':
  5847                           
  5848                           ;megaonoff.c: 754: break;
  5849                           
  5850                           ;megaonoff.c: 753: T1CONbits.TMR1ON = 1;
  5851                           
  5852                           
  5853                           ;megaonoff.c: 756: TMR1H=0xEB;
  5854  01B2  30EB               	movlw	235
  5855  01B3                     L38:	
  5856  01B3  0097               	movwf	23	;volatile
  5857                           
  5858                           ;megaonoff.c: 757: TMR1L=0xB0;
  5859  01B4  30B0               	movlw	176
  5860  01B5  29F3               	goto	L2
  5861  01B6                     i1l3094:	
  5862                           ;megaonoff.c: 760: case '8':
  5863                           
  5864                           ;megaonoff.c: 759: break;
  5865                           
  5866                           ;megaonoff.c: 758: T1CONbits.TMR1ON = 1;
  5867                           
  5868                           
  5869                           ;megaonoff.c: 761: TMR1H=0xEC;
  5870  01B6  30EC               	movlw	236
  5871  01B7                     L53:	
  5872  01B7  0097               	movwf	23	;volatile
  5873                           
  5874                           ;megaonoff.c: 762: TMR1L=0x78;
  5875  01B8  3078               	movlw	120
  5876  01B9  29F3               	goto	L2
  5877  01BA                     i1l3098:	
  5878                           ;megaonoff.c: 765: case '9':
  5879                           
  5880                           ;megaonoff.c: 764: break;
  5881                           
  5882                           ;megaonoff.c: 763: T1CONbits.TMR1ON = 1;
  5883                           
  5884                           
  5885                           ;megaonoff.c: 766: TMR1H=0xED;
  5886  01BA  30ED               	movlw	237
  5887  01BB                     L39:	
  5888  01BB  0097               	movwf	23	;volatile
  5889                           
  5890                           ;megaonoff.c: 767: TMR1L=0x40;
  5891  01BC  3040               	movlw	64
  5892  01BD  29F3               	goto	L2
  5893  01BE                     i1l3104:	
  5894                           ;megaonoff.c: 772: }
  5895                           
  5896                           ;megaonoff.c: 771: break;
  5897                           
  5898                           ;megaonoff.c: 770: default:
  5899                           
  5900                           ;megaonoff.c: 769: break;
  5901                           
  5902                           ;megaonoff.c: 768: T1CONbits.TMR1ON = 1;
  5903                           
  5904  01BE  0877               	movf	_levelofDimmer_LSB,w
  5905                           
  5906                           ; Switch size 1, requested type "space"
  5907                           ; Number of cases is 10, Range of values is 48 to 57
  5908                           ; switch strategies available:
  5909                           ; Name         Instructions Cycles
  5910                           ; direct_byte           29     9 (fixed)
  5911                           ; simple_byte           31    16 (average)
  5912                           ; jumptable            263     9 (fixed)
  5913                           ;	Chosen strategy is direct_byte
  5914  01BF  3ED0               	addlw	-48
  5915  01C0  1C03               	skipc
  5916  01C1  2A11               	goto	i1l340
  5917  01C2  0084               	movwf	4
  5918  01C3  300A               	movlw	10
  5919  01C4  0204               	subwf	4,w
  5920  01C5  1803               	skipnc
  5921  01C6  2A11               	goto	i1l340
  5922  01C7  3188               	movlp	high i1S4738
  5923  01C8  3504               	lslf	4,w
  5924  01C9  3EA0               	addlw	low i1S4738
  5925  01CA  0082               	movwf	2
  5926                           
  5927                           ;megaonoff.c: 773: break;
  5928  01CB  2A11               	goto	i1l340
  5929  01CC                     i1l3106:	
  5930                           ;megaonoff.c: 777: {
  5931                           ;megaonoff.c: 778: case '0':
  5932                           
  5933                           ;megaonoff.c: 776: switch(levelofDimmer_LSB)
  5934                           
  5935                           ;megaonoff.c: 774: case '9':
  5936                           
  5937                           
  5938                           ;megaonoff.c: 779: TMR1H=0xEE;
  5939  01CC  30EE               	movlw	238
  5940  01CD                     L40:	
  5941  01CD  0097               	movwf	23	;volatile
  5942                           
  5943                           ;megaonoff.c: 780: TMR1L=0xD0;
  5944  01CE  30D0               	movlw	208
  5945  01CF  29F3               	goto	L2
  5946  01D0                     i1l3110:	
  5947                           ;megaonoff.c: 783: case '1':
  5948                           
  5949                           ;megaonoff.c: 782: break;
  5950                           
  5951                           ;megaonoff.c: 781: T1CONbits.TMR1ON = 1;
  5952                           
  5953                           
  5954                           ;megaonoff.c: 784: TMR1H=0xF0;
  5955  01D0  30F0               	movlw	240
  5956  01D1                     L41:	
  5957  01D1  0097               	movwf	23	;volatile
  5958                           
  5959                           ;megaonoff.c: 785: TMR1L=0x60;
  5960  01D2  3060               	movlw	96
  5961  01D3  29F3               	goto	L2
  5962  01D4                     i1l3114:	
  5963                           ;megaonoff.c: 788: case '2':
  5964                           
  5965                           ;megaonoff.c: 787: break;
  5966                           
  5967                           ;megaonoff.c: 786: T1CONbits.TMR1ON = 1;
  5968                           
  5969                           
  5970                           ;megaonoff.c: 789: TMR1H=0xF1;
  5971  01D4  30F1               	movlw	241
  5972  01D5                     L42:	
  5973  01D5  0097               	movwf	23	;volatile
  5974                           
  5975                           ;megaonoff.c: 790: TMR1L=0xF0;
  5976  01D6  30F0               	movlw	240
  5977  01D7  29F3               	goto	L2
  5978  01D8                     i1l3118:	
  5979                           ;megaonoff.c: 793: case '3':
  5980                           
  5981                           ;megaonoff.c: 792: break;
  5982                           
  5983                           ;megaonoff.c: 791: T1CONbits.TMR1ON = 1;
  5984                           
  5985                           
  5986                           ;megaonoff.c: 794: TMR1H=0xF3;
  5987  01D8  30F3               	movlw	243
  5988  01D9                     L43:	
  5989  01D9  0097               	movwf	23	;volatile
  5990                           
  5991                           ;megaonoff.c: 795: TMR1L=0x80;
  5992  01DA  3080               	movlw	128
  5993  01DB  29F3               	goto	L2
  5994  01DC                     i1l3122:	
  5995                           ;megaonoff.c: 798: case '4':
  5996                           
  5997                           ;megaonoff.c: 797: break;
  5998                           
  5999                           ;megaonoff.c: 796: T1CONbits.TMR1ON = 1;
  6000                           
  6001                           
  6002                           ;megaonoff.c: 799: TMR1H=0xF5;
  6003  01DC  30F5               	movlw	245
  6004  01DD                     L44:	
  6005  01DD  0097               	movwf	23	;volatile
  6006                           
  6007                           ;megaonoff.c: 800: TMR1L=0x10;
  6008  01DE  3010               	movlw	16
  6009  01DF  29F3               	goto	L2
  6010  01E0                     i1l3126:	
  6011                           ;megaonoff.c: 803: case '5':
  6012                           
  6013                           ;megaonoff.c: 802: break;
  6014                           
  6015                           ;megaonoff.c: 801: T1CONbits.TMR1ON = 1;
  6016                           
  6017                           
  6018                           ;megaonoff.c: 804: TMR1H=0xF6;
  6019  01E0  30F6               	movlw	246
  6020  01E1                     L45:	
  6021  01E1  0097               	movwf	23	;volatile
  6022                           
  6023                           ;megaonoff.c: 805: TMR1L=0xA0;
  6024  01E2  30A0               	movlw	160
  6025  01E3  29F3               	goto	L2
  6026  01E4                     i1l3130:	
  6027                           ;megaonoff.c: 808: case '6':
  6028                           
  6029                           ;megaonoff.c: 807: break;
  6030                           
  6031                           ;megaonoff.c: 806: T1CONbits.TMR1ON = 1;
  6032                           
  6033                           
  6034                           ;megaonoff.c: 809: TMR1H=0xF8;
  6035  01E4  30F8               	movlw	248
  6036  01E5                     L46:	
  6037  01E5  0097               	movwf	23	;volatile
  6038                           
  6039                           ;megaonoff.c: 810: TMR1L=0x30;
  6040  01E6  3030               	movlw	48
  6041  01E7  29F3               	goto	L2
  6042  01E8                     i1l3134:	
  6043                           ;megaonoff.c: 813: case '7':
  6044                           
  6045                           ;megaonoff.c: 812: break;
  6046                           
  6047                           ;megaonoff.c: 811: T1CONbits.TMR1ON = 1;
  6048                           
  6049                           
  6050                           ;megaonoff.c: 814: TMR1H=0xF9;
  6051  01E8  30F9               	movlw	249
  6052  01E9                     L47:	
  6053  01E9  0097               	movwf	23	;volatile
  6054                           
  6055                           ;megaonoff.c: 815: TMR1L=0xC0;
  6056  01EA  30C0               	movlw	192
  6057  01EB  29F3               	goto	L2
  6058  01EC                     i1l3138:	
  6059                           ;megaonoff.c: 818: case '8':
  6060                           
  6061                           ;megaonoff.c: 817: break;
  6062                           
  6063                           ;megaonoff.c: 816: T1CONbits.TMR1ON = 1;
  6064                           
  6065                           
  6066                           ;megaonoff.c: 819: TMR1H=0xFB;
  6067  01EC  30FB               	movlw	251
  6068  01ED                     L48:	
  6069  01ED  0097               	movwf	23	;volatile
  6070                           
  6071                           ;megaonoff.c: 820: TMR1L=0x50;
  6072  01EE  3050               	movlw	80
  6073  01EF  29F3               	goto	L2
  6074  01F0                     i1l3142:	
  6075                           ;megaonoff.c: 824: case '9':
  6076                           
  6077                           ;megaonoff.c: 823: break;
  6078                           
  6079                           ;megaonoff.c: 821: T1CONbits.TMR1ON = 1;
  6080                           
  6081                           
  6082                           ;megaonoff.c: 825: TMR1H=0xFC;
  6083  01F0  30FC               	movlw	252
  6084  01F1                     L18:	
  6085  01F1  0097               	movwf	23	;volatile
  6086                           
  6087                           ;megaonoff.c: 826: TMR1L=0xE0;
  6088  01F2  30E0               	movlw	224
  6089  01F3                     L2:	
  6090  01F3  0096               	movwf	22	;volatile
  6091  01F4                     i1l3144:	
  6092                           
  6093                           ;megaonoff.c: 827: T1CONbits.TMR1ON = 1;
  6094  01F4  1418               	bsf	24,0	;volatile
  6095                           
  6096                           ;megaonoff.c: 832: }
  6097                           
  6098                           ;megaonoff.c: 831: break;
  6099                           
  6100                           ;megaonoff.c: 830: default:
  6101                           
  6102                           ;megaonoff.c: 829: break;
  6103  01F5  2A11               	goto	i1l340
  6104  01F6                     i1l3148:	
  6105  01F6  0877               	movf	_levelofDimmer_LSB,w
  6106                           
  6107                           ; Switch size 1, requested type "space"
  6108                           ; Number of cases is 10, Range of values is 48 to 57
  6109                           ; switch strategies available:
  6110                           ; Name         Instructions Cycles
  6111                           ; direct_byte           29     9 (fixed)
  6112                           ; simple_byte           31    16 (average)
  6113                           ; jumptable            263     9 (fixed)
  6114                           ;	Chosen strategy is direct_byte
  6115  01F7  3ED0               	addlw	-48
  6116  01F8  1C03               	skipc
  6117  01F9  2A11               	goto	i1l340
  6118  01FA  0084               	movwf	4
  6119  01FB  300A               	movlw	10
  6120  01FC  0204               	subwf	4,w
  6121  01FD  1803               	skipnc
  6122  01FE  2A11               	goto	i1l340
  6123  01FF  3188               	movlp	high i1S4740
  6124  0200  3504               	lslf	4,w
  6125  0201  3EB4               	addlw	low i1S4740
  6126  0202  0082               	movwf	2
  6127                           
  6128                           ;megaonoff.c: 836: }
  6129                           
  6130                           ;megaonoff.c: 835: break;
  6131                           
  6132                           ;megaonoff.c: 834: default:
  6133                           
  6134                           ;megaonoff.c: 833: break;
  6135  0203  2A11               	goto	i1l340
  6136  0204                     i1l3152:	
  6137  0204  0878               	movf	_levelofDimmer_MSB,w
  6138                           
  6139                           ; Switch size 1, requested type "space"
  6140                           ; Number of cases is 10, Range of values is 48 to 57
  6141                           ; switch strategies available:
  6142                           ; Name         Instructions Cycles
  6143                           ; direct_byte           29     9 (fixed)
  6144                           ; simple_byte           31    16 (average)
  6145                           ; jumptable            263     9 (fixed)
  6146                           ;	Chosen strategy is direct_byte
  6147  0205  3ED0               	addlw	-48
  6148  0206  1C03               	skipc
  6149  0207  2A11               	goto	i1l340
  6150  0208  0084               	movwf	4
  6151  0209  300A               	movlw	10
  6152  020A  0204               	subwf	4,w
  6153  020B  1803               	skipnc
  6154  020C  2A11               	goto	i1l340
  6155  020D  3188               	movlp	high i1S4742
  6156  020E  3504               	lslf	4,w
  6157  020F  3EC8               	addlw	low i1S4742
  6158  0210  0082               	movwf	2
  6159  0211                     i1l340:	
  6160  0211  0874               	movf	??_isr+1,w
  6161  0212  00FF               	movwf	127
  6162  0213  107E               	bcf	126,0	;clear compiler interrupt flag (level 1)
  6163  0214  0009               	retfie
  6164  0215                     __end_of_isr:	
  6165                           
  6166                           	psect	swtext2
  6167  0800                     __pswtext2:	
  6168  0800                     i1S4722:	
  6169  0800  3180  286F         	ljmp	i1l2700
  6170  0802  3180  2871         	ljmp	i1l2704
  6171  0804  3180  2873         	ljmp	i1l2708
  6172  0806  3180  2877         	ljmp	i1l2712
  6173  0808  3180  287B         	ljmp	i1l2716
  6174  080A  3180  287D         	ljmp	i1l2720
  6175  080C  3180  287F         	ljmp	i1l2724
  6176  080E  3180  2881         	ljmp	i1l2730
  6177  0810  3180  2885         	ljmp	i1l2734
  6178  0812  3180  2886         	ljmp	i1l2738
  6179                           
  6180                           	psect	swtext3
  6181  0814                     __pswtext3:	
  6182  0814                     i1S4724:	
  6183  0814  3180  2898         	ljmp	i1l2746
  6184  0816  3180  289A         	ljmp	i1l2750
  6185  0818  3180  289E         	ljmp	i1l2754
  6186  081A  3180  28A0         	ljmp	i1l2758
  6187  081C  3180  28A2         	ljmp	i1l2762
  6188  081E  3180  28A4         	ljmp	i1l2766
  6189  0820  3180  28A8         	ljmp	i1l2770
  6190  0822  3180  28AA         	ljmp	i1l2774
  6191  0824  3180  28AE         	ljmp	i1l2778
  6192  0826  3180  28B0         	ljmp	i1l2782
  6193                           
  6194                           	psect	swtext4
  6195  0828                     __pswtext4:	
  6196  0828                     i1S4726:	
  6197  0828  3180  28C2         	ljmp	i1l2790
  6198  082A  3180  28C4         	ljmp	i1l2794
  6199  082C  3180  28C8         	ljmp	i1l2798
  6200  082E  3180  28CA         	ljmp	i1l2802
  6201  0830  3180  28CE         	ljmp	i1l2806
  6202  0832  3180  28D0         	ljmp	i1l2810
  6203  0834  3180  28D4         	ljmp	i1l2814
  6204  0836  3180  28D6         	ljmp	i1l2818
  6205  0838  3180  28DA         	ljmp	i1l2822
  6206  083A  3180  28DC         	ljmp	i1l2826
  6207                           
  6208                           	psect	swtext5
  6209  083C                     __pswtext5:	
  6210  083C                     i1S4728:	
  6211  083C  3180  28EE         	ljmp	i1l2834
  6212  083E  3180  28F0         	ljmp	i1l2838
  6213  0840  3180  28F2         	ljmp	i1l2842
  6214  0842  3180  28F4         	ljmp	i1l2846
  6215  0844  3180  28F6         	ljmp	i1l2850
  6216  0846  3180  28F8         	ljmp	i1l2856
  6217  0848  3180  28FA         	ljmp	i1l2860
  6218  084A  3180  28FC         	ljmp	i1l2864
  6219  084C  3180  28FE         	ljmp	i1l2868
  6220  084E  3181  2900         	ljmp	i1l2872
  6221                           
  6222                           	psect	swtext6
  6223  0850                     __pswtext6:	
  6224  0850                     i1S4730:	
  6225  0850  3181  2910         	ljmp	i1l2880
  6226  0852  3181  2912         	ljmp	i1l2884
  6227  0854  3181  2914         	ljmp	i1l2888
  6228  0856  3181  2916         	ljmp	i1l2892
  6229  0858  3181  2918         	ljmp	i1l2896
  6230  085A  3181  291A         	ljmp	i1l2900
  6231  085C  3181  291C         	ljmp	i1l2904
  6232  085E  3181  291E         	ljmp	i1l2908
  6233  0860  3181  2920         	ljmp	i1l2912
  6234  0862  3181  2922         	ljmp	i1l2916
  6235                           
  6236                           	psect	swtext7
  6237  0864                     __pswtext7:	
  6238  0864                     i1S4732:	
  6239  0864  3181  2932         	ljmp	i1l2924
  6240  0866  3181  2934         	ljmp	i1l2930
  6241  0868  3181  2936         	ljmp	i1l2934
  6242  086A  3181  2938         	ljmp	i1l2938
  6243  086C  3181  293A         	ljmp	i1l2942
  6244  086E  3181  293C         	ljmp	i1l2946
  6245  0870  3181  293E         	ljmp	i1l2950
  6246  0872  3181  2940         	ljmp	i1l2954
  6247  0874  3181  2942         	ljmp	i1l2958
  6248  0876  3181  2944         	ljmp	i1l2962
  6249                           
  6250                           	psect	swtext8
  6251  0878                     __pswtext8:	
  6252  0878                     i1S4734:	
  6253  0878  3181  2954         	ljmp	i1l2970
  6254  087A  3181  2956         	ljmp	i1l2974
  6255  087C  3181  2958         	ljmp	i1l2978
  6256  087E  3181  295A         	ljmp	i1l2982
  6257  0880  3181  295C         	ljmp	i1l2986
  6258  0882  3181  295E         	ljmp	i1l2990
  6259  0884  3181  2960         	ljmp	i1l2994
  6260  0886  3181  2962         	ljmp	i1l3000
  6261  0888  3181  2964         	ljmp	i1l3004
  6262  088A  3181  2966         	ljmp	i1l3008
  6263                           
  6264                           	psect	swtext9
  6265  088C                     __pswtext9:	
  6266  088C                     i1S4736:	
  6267  088C  3181  2976         	ljmp	i1l3016
  6268  088E  3181  2978         	ljmp	i1l3020
  6269  0890  3181  297A         	ljmp	i1l3024
  6270  0892  3181  297C         	ljmp	i1l3028
  6271  0894  3181  297E         	ljmp	i1l3032
  6272  0896  3181  2980         	ljmp	i1l3036
  6273  0898  3181  2982         	ljmp	i1l3040
  6274  089A  3181  2984         	ljmp	i1l3044
  6275  089C  3181  2986         	ljmp	i1l3048
  6276  089E  3181  2988         	ljmp	i1l3052
  6277                           
  6278                           	psect	swtext10
  6279  08A0                     __pswtext10:	
  6280  08A0                     i1S4738:	
  6281  08A0  3181  2998         	ljmp	i1l3060
  6282  08A2  3181  299A         	ljmp	i1l3064
  6283  08A4  3181  299E         	ljmp	i1l3068
  6284  08A6  3181  29A2         	ljmp	i1l3072
  6285  08A8  3181  29A6         	ljmp	i1l3076
  6286  08AA  3181  29AA         	ljmp	i1l3082
  6287  08AC  3181  29AE         	ljmp	i1l3086
  6288  08AE  3181  29B2         	ljmp	i1l3090
  6289  08B0  3181  29B6         	ljmp	i1l3094
  6290  08B2  3181  29BA         	ljmp	i1l3098
  6291                           
  6292                           	psect	swtext11
  6293  08B4                     __pswtext11:	
  6294  08B4                     i1S4740:	
  6295  08B4  3181  29CC         	ljmp	i1l3106
  6296  08B6  3181  29D0         	ljmp	i1l3110
  6297  08B8  3181  29D4         	ljmp	i1l3114
  6298  08BA  3181  29D8         	ljmp	i1l3118
  6299  08BC  3181  29DC         	ljmp	i1l3122
  6300  08BE  3181  29E0         	ljmp	i1l3126
  6301  08C0  3181  29E4         	ljmp	i1l3130
  6302  08C2  3181  29E8         	ljmp	i1l3134
  6303  08C4  3181  29EC         	ljmp	i1l3138
  6304  08C6  3181  29F0         	ljmp	i1l3142
  6305                           
  6306                           	psect	swtext12
  6307  08C8                     __pswtext12:	
  6308  08C8                     i1S4742:	
  6309  08C8  3180  288A         	ljmp	i1l2744
  6310  08CA  3180  28B4         	ljmp	i1l2788
  6311  08CC  3180  28E0         	ljmp	i1l2832
  6312  08CE  3181  2902         	ljmp	i1l2878
  6313  08D0  3181  2924         	ljmp	i1l2922
  6314  08D2  3181  2946         	ljmp	i1l2968
  6315  08D4  3181  2968         	ljmp	i1l3014
  6316  08D6  3181  298A         	ljmp	i1l3058
  6317  08D8  3181  29BE         	ljmp	i1l3104
  6318  08DA  3181  29F6         	ljmp	i1l3148
  6319                           
  6320                           	psect	text21
  6321  0F6D                     __ptext21:	
  6322 ;; *************** function _errorsISR *****************
  6323 ;; Defined at:
  6324 ;;		line 1446 in file "megaonoff.c"
  6325 ;; Parameters:    Size  Location     Type
  6326 ;;  errNum          2    0[COMMON] PTR const unsigned char 
  6327 ;;		 -> STR_2(5), STR_1(5), 
  6328 ;; Auto vars:     Size  Location     Type
  6329 ;;		None
  6330 ;; Return value:  Size  Location     Type
  6331 ;;                  1    wreg      void 
  6332 ;; Registers used:
  6333 ;;		wreg, fsr0l, fsr0h, status,2, status,0, pclath
  6334 ;; Tracked objects:
  6335 ;;		On entry : 0/0
  6336 ;;		On exit  : 0/0
  6337 ;;		Unchanged: 0/0
  6338 ;; Data sizes:     COMMON   BANK0   BANK1   BANK2   BANK3   BANK4   BANK5   BANK6   BANK7   BANK8   BANK9
  6339 ;;      Params:         2       0       0       0       0       0       0       0       0       0       0
  6340 ;;      Locals:         0       0       0       0       0       0       0       0       0       0       0
  6341 ;;      Temps:          1       0       0       0       0       0       0       0       0       0       0
  6342 ;;      Totals:         3       0       0       0       0       0       0       0       0       0       0
  6343 ;;Total ram usage:        3 bytes
  6344 ;; Hardware stack levels used:    1
  6345 ;; This function calls:
  6346 ;;		Nothing
  6347 ;; This function is called by:
  6348 ;;		_isr
  6349 ;; This function uses a non-reentrant model
  6350 ;;
  6351                           
  6352                           
  6353                           ;psect for function _errorsISR
  6354  0F6D                     _errorsISR:	
  6355  0F6D                     i1l2472:	
  6356                           ;megaonoff.c: 1448: while(*errNum != (0))
  6357                           
  6358                           ;incstack = 0
  6359                           ; Regs used in _errorsISR: [wreg-fsr0h+status,2+status,0+pclath]
  6360                           
  6361  0F6D  0870               	movf	errorsISR@errNum,w
  6362  0F6E  0084               	movwf	4
  6363  0F6F  0871               	movf	errorsISR@errNum+1,w
  6364  0F70  0085               	movwf	5
  6365  0F71  0012               	moviw fsr0++
  6366  0F72  1903               	btfsc	3,2
  6367  0F73  0008               	return
  6368  0F74                     i1l437:	
  6369                           ;megaonoff.c: 1449: {
  6370                           ;megaonoff.c: 1450: while (!TX1STAbits.TRMT);
  6371                           
  6372  0F74  0023               	movlb	3	; select bank3
  6373  0F75  1C9E               	btfss	30,1	;volatile
  6374  0F76  2F74               	goto	i1l437
  6375                           
  6376                           ;megaonoff.c: 1451: TX1REG = *errNum;
  6377  0F77  0870               	movf	errorsISR@errNum,w
  6378  0F78  0084               	movwf	4
  6379  0F79  0871               	movf	errorsISR@errNum+1,w
  6380  0F7A  0085               	movwf	5
  6381  0F7B  0800               	movf	0,w	;code access
  6382  0F7C  009A               	movwf	26	;volatile
  6383                           
  6384                           ;megaonoff.c: 1452: *errNum++;
  6385  0F7D  3001               	movlw	1
  6386  0F7E  07F0               	addwf	errorsISR@errNum,f
  6387  0F7F  3000               	movlw	0
  6388  0F80  3DF1               	addwfc	errorsISR@errNum+1,f
  6389  0F81  2F6D               	goto	i1l2472
  6390  0F82                     __end_of_errorsISR:	
  6391  007E                     btemp	set	126	;btemp
  6392  007E                     int$flags	set	126
  6393  007E                     wtemp0	set	126


Data Sizes:
    Strings     15
    Constant    0
    Data        120
    BSS         24
    Persistent  0
    Stack       0

Auto Spaces:
    Space          Size  Autos    Used
    COMMON           14      5       9
    BANK0            80     41      77
    BANK1            80      4      50
    BANK2            80      0      58
    BANK3            80      0       0
    BANK4            80      0       0
    BANK5            80      0       0
    BANK6            80      0       0
    BANK7            80      0       0
    BANK8            80      0       0
    BANK9            32      0       0

Pointer List with Targets:

    atoi@s	PTR const unsigned char  size(1) Largest target is 2
		 -> applianceControl@dimmerSpeedStringBuffer(BANK0[2]), applianceControl@switchNumberStringBuffer(BANK0[2]), 

    sendAcknowledgment@currentStateBuffer	PTR unsigned char  size(1) Largest target is 58
		 -> currentStateBuffer(BANK2[58]), 

    errorsMain@errNum	PTR const unsigned char  size(2) Largest target is 5
		 -> STR_3(CODE[5]), 

    errorsISR@errNum	PTR const unsigned char  size(2) Largest target is 5
		 -> STR_2(CODE[5]), STR_1(CODE[5]), 


Critical Paths under _main in COMMON

    None.

Critical Paths under _isr in COMMON

    _isr->_errorsISR

Critical Paths under _main in BANK0

    _main->_applianceControl
    _applianceControl->_atoi
    _atoi->___wmul

Critical Paths under _isr in BANK0

    None.

Critical Paths under _main in BANK1

    None.

Critical Paths under _isr in BANK1

    None.

Critical Paths under _main in BANK2

    None.

Critical Paths under _isr in BANK2

    None.

Critical Paths under _main in BANK3

    None.

Critical Paths under _isr in BANK3

    None.

Critical Paths under _main in BANK4

    None.

Critical Paths under _isr in BANK4

    None.

Critical Paths under _main in BANK5

    None.

Critical Paths under _isr in BANK5

    None.

Critical Paths under _main in BANK6

    None.

Critical Paths under _isr in BANK6

    None.

Critical Paths under _main in BANK7

    None.

Critical Paths under _isr in BANK7

    None.

Critical Paths under _main in BANK8

    None.

Critical Paths under _isr in BANK8

    None.

Critical Paths under _main in BANK9

    None.

Critical Paths under _isr in BANK9

    None.

Call Graph Tables:

 ---------------------------------------------------------------------------------
 (Depth) Function   	        Calls       Base Space   Used Autos Params    Refs
 ---------------------------------------------------------------------------------
 (0) _main                                                10    10      0    3649
                                             35 BANK0      6     6      0
                                              0 BANK1      4     4      0
                _GPIO_pin_Initialize
     _ReceivingIndicationLedBlinking
           _SwitchOffStatustToGatway
            _SwitchOnStatustToGatway
  _TransmissionIndicationLedBlinking
                  _allPeripheralInit
                   _applianceControl
             _copyReceivedDataBuffer
                         _errorsMain
 ---------------------------------------------------------------------------------
 (1) _errorsMain                                           3     1      2     142
                                              0 BANK0      3     1      2
 ---------------------------------------------------------------------------------
 (1) _copyReceivedDataBuffer                               3     3      0     164
                                              0 BANK0      3     3      0
 ---------------------------------------------------------------------------------
 (1) _applianceControl                                    21    15      6    2567
                                             14 BANK0     21    15      6
                               _atoi
                 _sendAcknowledgment
 ---------------------------------------------------------------------------------
 (2) _sendAcknowledgment                                   4     4      0     104
                                              0 BANK0      4     4      0
 ---------------------------------------------------------------------------------
 (2) _atoi                                                 8     6      2     789
                                              6 BANK0      8     6      2
                             ___wmul
                            _isdigit
 ---------------------------------------------------------------------------------
 (3) _isdigit                                              2     2      0      99
                                              0 BANK0      2     2      0
 ---------------------------------------------------------------------------------
 (3) ___wmul                                               6     2      4     290
                                              0 BANK0      6     2      4
 ---------------------------------------------------------------------------------
 (1) _allPeripheralInit                                    0     0      0       0
                    _CCP9_Initialize
                  _EUSART_Initialize
                    _TMR1_Initialize
                    _TMR3_Initialize
 ---------------------------------------------------------------------------------
 (2) _TMR3_Initialize                                      0     0      0       0
 ---------------------------------------------------------------------------------
 (2) _TMR1_Initialize                                      0     0      0       0
 ---------------------------------------------------------------------------------
 (2) _EUSART_Initialize                                    0     0      0       0
 ---------------------------------------------------------------------------------
 (2) _CCP9_Initialize                                      0     0      0       0
 ---------------------------------------------------------------------------------
 (1) _TransmissionIndicationLedBlinking                    2     2      0       0
                                              0 BANK0      2     2      0
 ---------------------------------------------------------------------------------
 (1) _SwitchOnStatustToGatway                              2     2      0      31
                                              0 BANK0      2     2      0
 ---------------------------------------------------------------------------------
 (1) _SwitchOffStatustToGatway                             2     2      0      31
                                              0 BANK0      2     2      0
 ---------------------------------------------------------------------------------
 (1) _ReceivingIndicationLedBlinking                       2     2      0       0
                                              0 BANK0      2     2      0
 ---------------------------------------------------------------------------------
 (1) _GPIO_pin_Initialize                                  0     0      0       0
                      _clearAllPorts
                      _pinINIT_extra
 ---------------------------------------------------------------------------------
 (2) _pinINIT_extra                                        0     0      0       0
 ---------------------------------------------------------------------------------
 (2) _clearAllPorts                                        0     0      0       0
 ---------------------------------------------------------------------------------
 Estimated maximum stack depth 3
 ---------------------------------------------------------------------------------
 (Depth) Function   	        Calls       Base Space   Used Autos Params    Refs
 ---------------------------------------------------------------------------------
 (4) _isr                                                  2     2      0     173
                                              3 COMMON     2     2      0
                          _errorsISR
 ---------------------------------------------------------------------------------
 (5) _errorsISR                                            3     1      2     173
                                              0 COMMON     3     1      2
 ---------------------------------------------------------------------------------
 Estimated maximum stack depth 5
 ---------------------------------------------------------------------------------

 Call Graph Graphs:

 _main (ROOT)
   _GPIO_pin_Initialize
     _clearAllPorts
     _pinINIT_extra
   _ReceivingIndicationLedBlinking
   _SwitchOffStatustToGatway
   _SwitchOnStatustToGatway
   _TransmissionIndicationLedBlinking
   _allPeripheralInit
     _CCP9_Initialize
     _EUSART_Initialize
     _TMR1_Initialize
     _TMR3_Initialize
   _applianceControl
     _atoi
       ___wmul
       _isdigit
     _sendAcknowledgment
   _copyReceivedDataBuffer
   _errorsMain

 _isr (ROOT)
   _errorsISR

 Address spaces:
Name               Size   Autos  Total    Cost      Usage
BIGRAM             2F0      0       0       0        0.0%
NULL                 0      0       0       0        0.0%
CODE                 0      0       0       0        0.0%
BITCOMMON            E      0       0       1        0.0%
BITSFR0              0      0       0       1        0.0%
SFR0                 0      0       0       1        0.0%
COMMON               E      5       9       2       64.3%
BITSFR1              0      0       0       2        0.0%
SFR1                 0      0       0       2        0.0%
BITSFR2              0      0       0       3        0.0%
SFR2                 0      0       0       3        0.0%
STACK                0      0       0       3        0.0%
BITSFR3              0      0       0       4        0.0%
SFR3                 0      0       0       4        0.0%
ABS                  0      0      C2       4        0.0%
BITBANK0            50      0       0       5        0.0%
BITSFR4              0      0       0       5        0.0%
SFR4                 0      0       0       5        0.0%
BANK0               50     29      4D       6       96.3%
BITSFR5              0      0       0       6        0.0%
SFR5                 0      0       0       6        0.0%
BITBANK1            50      0       0       7        0.0%
BITSFR6              0      0       0       7        0.0%
SFR6                 0      0       0       7        0.0%
BANK1               50      4      32       8       62.5%
BITSFR7              0      0       0       8        0.0%
SFR7                 0      0       0       8        0.0%
BITBANK2            50      0       0       9        0.0%
BITSFR8              0      0       0       9        0.0%
SFR8                 0      0       0       9        0.0%
BANK2               50      0      3A      10       72.5%
BITSFR9              0      0       0      10        0.0%
SFR9                 0      0       0      10        0.0%
BITBANK3            50      0       0      11        0.0%
BITSFR10             0      0       0      11        0.0%
SFR10                0      0       0      11        0.0%
BANK3               50      0       0      12        0.0%
BITSFR11             0      0       0      12        0.0%
SFR11                0      0       0      12        0.0%
BITBANK4            50      0       0      13        0.0%
BITSFR12             0      0       0      13        0.0%
SFR12                0      0       0      13        0.0%
BANK4               50      0       0      14        0.0%
BITSFR13             0      0       0      14        0.0%
SFR13                0      0       0      14        0.0%
BITBANK5            50      0       0      15        0.0%
BITSFR14             0      0       0      15        0.0%
SFR14                0      0       0      15        0.0%
BANK5               50      0       0      16        0.0%
BITSFR15             0      0       0      16        0.0%
SFR15                0      0       0      16        0.0%
BITBANK6            50      0       0      17        0.0%
BITSFR16             0      0       0      17        0.0%
SFR16                0      0       0      17        0.0%
BANK6               50      0       0      18        0.0%
BITSFR17             0      0       0      18        0.0%
SFR17                0      0       0      18        0.0%
BITBANK7            50      0       0      19        0.0%
BITSFR18             0      0       0      19        0.0%
SFR18                0      0       0      19        0.0%
BANK7               50      0       0      20        0.0%
BITSFR19             0      0       0      20        0.0%
SFR19                0      0       0      20        0.0%
BITBANK8            50      0       0      21        0.0%
BITSFR20             0      0       0      21        0.0%
SFR20                0      0       0      21        0.0%
BANK8               50      0       0      22        0.0%
BITSFR21             0      0       0      22        0.0%
SFR21                0      0       0      22        0.0%
BITBANK9            20      0       0      23        0.0%
BITSFR22             0      0       0      23        0.0%
SFR22                0      0       0      23        0.0%
BANK9               20      0       0      24        0.0%
BITSFR23             0      0       0      24        0.0%
SFR23                0      0       0      24        0.0%
BITSFR24             0      0       0      25        0.0%
SFR24                0      0       0      25        0.0%
DATA                 0      0      C2      25        0.0%
BITSFR25             0      0       0      26        0.0%
SFR25                0      0       0      26        0.0%
BITSFR26             0      0       0      27        0.0%
SFR26                0      0       0      27        0.0%
BITSFR27             0      0       0      28        0.0%
SFR27                0      0       0      28        0.0%
BITSFR28             0      0       0      29        0.0%
SFR28                0      0       0      29        0.0%
BITSFR29             0      0       0      30        0.0%
SFR29                0      0       0      30        0.0%
BITSFR30             0      0       0      31        0.0%
SFR30                0      0       0      31        0.0%
BITSFR31             0      0       0      32        0.0%
SFR31                0      0       0      32        0.0%


Microchip Technology PIC Macro Assembler V1.45 build -152302408 
Symbol Table                                                                                   Wed Jan 30 16:53:26 2019

                 __size_of_allPeripheralInit 000C                                            pc 0002  
                                __CFG_CP$OFF 0000                                           _M1 005B  
                                         _M2 0059                                           _M3 0057  
                                         _M4 0055                                           _M5 0053  
                                         _M6 0051                                           _M7 004F  
                                         _M8 004D                                           _M9 004B  
                        ___wmul@multiplicand 0022                 applianceControl@integerSpeed 0036  
                                        l414 0663                                          l350 02FB  
                                        l409 0635                                          l461 0FEB  
                                        l446 0FB5                                          l384 052F  
                                        l486 0FCF                                          _GIE 005F  
                  __size_of_applianceControl 010C                                          _isr 0004  
                               __CFG_BORV$LO 0000                                          wreg 0009  
                               __CFG_FOSC$HS 0000                                         S4720 08DC  
                               __CFG_LVP$OFF 0000                                         l4050 0600  
                                       l4210 0386                                         l4060 0627  
                                       l4052 0607                                         l4108 0287  
                                       l4062 062F                                         l4054 060F  
                                       l4046 05F3                                         l4302 0446  
                                       l4222 03A0                                         l4206 0380  
                                       l4126 02C3                                         l4064 0638  
                                       l4056 0617                                         l4048 05FA  
                                       l4072 0650                                         l4144 02FE  
                                       l4058 061F                                         l4402 0512  
                                       l4322 046E                                         l4306 044C  
                                       l4242 03C8                                         l4226 03A8  
                                       l4162 0324                                         l4138 02DE  
                                       l4068 0642                                         l4092 0FAD  
                                       l4420 0537                                         l4350 04A8  
                                       l4334 0488                                         l4318 0466  
                                       l4270 0404                                         l4254 03E2  
                                       l4238 03C2                                         l4190 035E  
                                       l4174 033E                                         l4158 031C  
                                       l4432 0551                                         l4370 04D0  
                                       l4354 04B0                                         l4338 048E  
                                       l4290 042C                                         l4274 040A  
                                       l4258 03EA                                         l4194 0366  
                                       l4178 0344                                         l3812 0FC9  
                                       l4382 04EA                                         l4366 04CA  
                                       l4286 0424                                         l3832 0F49  
                                       l3840 0666                                         l3850 0688  
                                       l3842 0672                                         l4386 04F2  
                                       l3860 06BA                                         l4716 0647  
                                       l3838 066D                                         l4718 0656  
                                       l4398 050C                                         l3856 068F  
                                       l3866 06CA                                         l3858 0693  
                                       l3878 0FE6                                         ?_isr 0070  
                                       STR_1 1005                                         STR_2 100A  
                                       STR_3 1000                                         u2245 0FD0  
                                       u2255 0FD5                                         u3217 0256  
                                       u3307 076B                                         u3227 0F64  
                                       u3317 0F53                                         u3237 0712  
                                       u3247 071E                                         u2375 0783  
                                       u3257 072A                                         u3267 0737  
                                       u2475 02DC                                         u3277 0746  
                                       u2485 02F9                                         u3287 0752  
                                       u3297 075E                                         _PEIE 005E  
                                       _WPUB 020D                                         _WPUD 020F  
                                       _WPUE 0210                                         _WPUG 048D  
                               __CFG_WRT$OFF 0000                                         _atoi 0664  
                                       _main 0250                                         fsr0h 0005  
                                       fsr1h 0007                                         indf0 0000  
                                       fsr0l 0004                                         indf1 0001  
                                       fsr1l 0006                                         btemp 007E  
                    _copy_parentalLockBuffer 00B2                                         start 0215  
                              __CFG_IESO$OFF 0000                              _TMR3_Initialize 0F13  
                     __size_of_pinINIT_extra 0015                                        ??_isr 0073  
        applianceControl@charParentalControl 0032                                        ?_atoi 0026  
                                      ?_main 0070                                __CFG_WDTE$OFF 0000  
                                      _T1CON 0018                                        _T3CON 0413  
                                      _RC1IF 008D                                        i1l340 0211  
                                      i1l192 0054                                        i1l437 0F74  
                                      i1l189 003D                                        _TMR1H 0017  
                                      _TMR3H 0412                                        _TMR1L 0016  
                                      _TMR3L 0411                               __CFG_FCMEN$OFF 0000  
                            __end_of_isdigit 0F4B                                        atoi@a 002B  
                                      atoi@s 002D                      __end_of_TMR1_Initialize 0F13  
                             __CFG_BOREN$OFF 0000                                        status 0003  
                                      wtemp0 007E                        __end_of_clearAllPorts 0F3C  
                        _GPIO_pin_Initialize 07CE                               __CFG_MCLRE$OFF 0000  
                            __initialization 0217                      ?_copyReceivedDataBuffer 0070  
                               __end_of_atoi 06CF                                 __end_of_main 0558  
                             __CFG_LPBOR$OFF 0000                                       ??_atoi 0028  
                                     ??_main 0043                         ?_GPIO_pin_Initialize 0070  
  __end_of_TransmissionIndicationLedBlinking 0F6D   __size_of_TransmissionIndicationLedBlinking 0011  
        ??_TransmissionIndicationLedBlinking 0020           ?_TransmissionIndicationLedBlinking 0070  
          _TransmissionIndicationLedBlinking 0F5C                                _pinINIT_extra 0F82  
                            _CCP9_Initialize 0EFE                                       _CCP9IF 00A6  
                                     i1S4730 0850                                       i1S4722 0800  
                                     i1S4740 08B4                                       i1S4732 0864  
                                     i1S4724 0814                                       i1S4742 08C8  
                                     i1S4734 0878                                       i1S4726 0828  
                                     i1S4736 088C                                       i1S4728 083C  
                                     i1S4738 08A0                                       _CCPR9H 061B  
                                     _CCPR9L 061A                                       _ANSELA 018C  
                                     _ANSELB 018D                                       _ANSELD 018F  
                                     _ANSELE 0190                                       _ANSELF 040C  
                                     _ANSELG 040D                                       _T1GCON 0019  
                                     _T3GCON 0414                                       _RC1REG 0199  
                                     _RC1STA 019D                                       i1l3000 0162  
                                     i1l3020 0178                                       i1l3004 0164  
                                     i1l3110 01D0                                       i1l3014 0168  
                                     i1l3104 01BE                                       i1l3040 0182  
                                     i1l3032 017E                                       i1l3024 017A  
                                     i1l3016 0176                                       i1l3008 0166  
                                     i1l3130 01E4                                       i1l3122 01DC  
                                     i1l3114 01D4                                       i1l3106 01CC  
                                     i1l3060 0198                                       i1l3052 0188  
                                     i1l3044 0184                                       i1l3036 0180  
                                     i1l3028 017C                                       i1l3142 01F0  
                                     i1l3134 01E8                                       i1l3126 01E0  
                                     i1l3118 01D8                                       i1l3144 01F4  
                                     i1l3072 01A2                                       i1l3064 019A  
                                     i1l3048 0186                                       i1l3152 0204  
                                     i1l3138 01EC                                       i1l3090 01B2  
                                     i1l3082 01AA                                       i1l3058 018A  
                                     i1l3148 01F6                                       i1l3076 01A6  
                                     i1l3068 019E                                       i1l2700 006F  
                                     i1l3094 01B6                                       i1l3086 01AE  
                                     i1l2472 0F6D                                       i1l2720 007D  
                                     i1l2712 0077                                       i1l2704 0071  
                                     i1l3098 01BA                                       i1l2810 00D0  
                                     i1l2802 00CA                                       i1l2730 0081  
                                     i1l2900 011A                                       i1l2724 007F  
                                     i1l2716 007B                                       i1l2708 0073  
                    __end_of_TMR3_Initialize 0F1F                                       i1l2822 00DA  
                                     i1l2814 00D4                                       i1l2806 00CE  
                                     i1l2750 009A                                       i1l2734 0085  
                                     i1l2912 0120                                       i1l2904 011C  
                                     i1l2832 00E0                                       i1l2744 008A  
                                     i1l2930 0134                                       i1l2922 0124  
                                     i1l2850 00F6                                       i1l2842 00F2  
                                     i1l2834 00EE                                       i1l2826 00DC  
                                     i1l2818 00D6                                       i1l2770 00A8  
                                     i1l2762 00A2                                       i1l2754 009E  
                                     i1l2746 0098                                       i1l2738 0086  
                                     i1l2690 0065                                       i1l2658 0017  
                                     i1l2674 0049                                       i1l2924 0132  
                                     i1l2916 0122                                       i1l2908 011E  
                                     i1l2860 00FA                                       i1l2950 013E  
                                     i1l2942 013A                                       i1l2934 0136  
                                     i1l2846 00F4                                       i1l2838 00F0  
                                     i1l2790 00C2                                       i1l2782 00B0  
                                     i1l2774 00AA                                       i1l2766 00A4  
                                     i1l2758 00A0                                       i1l2880 0110  
                                     i1l2872 0100                                       i1l2864 00FC  
                                     i1l2856 00F8                                       i1l2970 0154  
                                     i1l2962 0144                                       i1l2954 0140  
                                     i1l2946 013C                                       i1l2938 0138  
                                     i1l2794 00C4                                       i1l2778 00AE  
                                     i1l2892 0116                                       i1l2884 0112  
                                     i1l2868 00FE                                       i1l2788 00B4  
                                     i1l2990 015E                                       i1l2982 015A  
                                     i1l2974 0156                                       i1l2958 0142  
                                     i1l2878 0102                                       i1l2798 00C8  
                                     i1l2968 0146                                       i1l2896 0118  
                                     i1l2888 0114                                       i1l2994 0160  
                                     i1l2986 015C                                       i1l2978 0158  
                                     u136_25 0032                                       _TX1REG 019A  
                                     _TX1STA 019E                               __CFG_PWRTE$OFF 0000  
             __end_of_copyReceivedDataBuffer 07A0                  __size_of_sendAcknowledgment 001E  
                                     ___wmul 0FC6                        ??_GPIO_pin_Initialize 0075  
                   _mainReceivedDataPosition 0075                             _applianceControl 0558  
                               __pdataCOMMON 0077                                    ??_isdigit 0075  
                             ?_pinINIT_extra 0070                   ??_SwitchOffStatustToGatway 0020  
                           ?_TMR1_Initialize 0070                      __end_of__initialization 024C  
                             __pcstackCOMMON 0070             __size_of_SwitchOnStatustToGatway 0034  
                               __pidataBANK0 0F1F                                 __pidataBANK1 07A0  
                               __pidataBANK2 06CF                      __end_of_CCP9_Initialize 0F08  
                                 __pbssBANK0 0049                             ?_TMR3_Initialize 0070  
                            __CFG_VCAPEN$OFF 0000                           __size_of_errorsISR 0015  
                                 __pmaintext 0250                                      ?___wmul 0020  
                                 __pintentry 0004                   sendAcknowledgment@Tx_count 0021  
                                    _CCP9CON 061C                              ??_pinINIT_extra 0075  
                                    _SP1BRGH 019C                                      _SP1BRGL 019B  
                                 __pswtext10 08A0                                   __pswtext11 08B4  
                                 __pswtext12 08C8  applianceControl@currentStateBufferPositions 003F  
           applianceControl@chDimmerSpeedLSB 0031             applianceControl@chDimmerSpeedMSB 0030  
                            __size_of___wmul 001C                              __CFG_STVREN$OFF 0000  
                                 _errorsMain 0FAD                                      __ptext1 0FAD  
                                    __ptext2 0771                                      __ptext3 0558  
                                    __ptext4 0FE2                                      __ptext5 0664  
                                    __ptext6 0F3C                                      __ptext7 0FC6  
                                    __ptext8 07F4                                      __ptext9 0F13  
                                  _T1CONbits 0018                             ?_CCP9_Initialize 0070  
                                    _isdigit 0F3C                                 __size_of_isr 0211  
                                  _T3CONbits 0413                            __end_of_errorsISR 0F82  
       sendAcknowledgment@currentStateBuffer 0023             __end_of_SwitchOffStatustToGatway 0771  
                                    main@man 00D0                                      clrloop0 0EF3  
                       end_of_initialization 024C                                      init_ram 0EF8  
                                    initloop 0EF9                            _EUSART_Initialize 0F97  
                          _levelofDimmer_LSB 0077                            _levelofDimmer_MSB 0078  
                   __end_of_applianceControl 0664           applianceControl@integerSwitchState 0041  
                    _SwitchOnStatustToGatway 0709                           ?_EUSART_Initialize 0070  
                        ??_EUSART_Initialize 0075                                    _PORTBbits 000D  
                                  _PORTDbits 000F                                    _PORTEbits 0010  
                                  _PORTFbits 028C                                    _PORTGbits 028D  
     __end_of_ReceivingIndicationLedBlinking 0F5C      __size_of_ReceivingIndicationLedBlinking 0011  
             _ReceivingIndicationLedBlinking 0F4B                       __size_of_clearAllPorts 000F  
                                  _TRISBbits 008D                                    _TRISCbits 008E  
                                  _TRISDbits 008F                                    _TRISEbits 0090  
                                  _TRISFbits 030C                                    _TRISGbits 030D  
    SwitchOffStatustToGatway@SwitchOffNumber 0021                    __end_of_EUSART_Initialize 0FAD  
   applianceControl@switchNumberStringBuffer 0039                   __end_of_sendAcknowledgment 1000  
                __end_of_GPIO_pin_Initialize 07F4                               __end_of___wmul 0FE2  
                     _mainReceivedDataBuffer 00A0                                __pidataCOMMON 0002  
                                ?_errorsMain 0020                          start_initialization 0217  
                                __end_of_isr 0215                        applianceControl@F3725 006B  
                      applianceControl@F3727 0069                    ??_SwitchOnStatustToGatway 0020  
                              _clearAllPorts 0F2D                     __size_of_TMR1_Initialize 000B  
    copyReceivedDataBuffer@dataBufferCounter 0021                                     ??___wmul 0075  
          __size_of_SwitchOffStatustToGatway 0034                    ?_SwitchOffStatustToGatway 0070  
                                __pdataBANK0 005F                                  __pdataBANK1 00A0  
                                __pdataBANK2 0120                             _mainDataReceived 005D  
                                __pbssCOMMON 0075                                    ___latbits 0002  
                              __pcstackBANK0 0020                                __pcstackBANK1 00CE  
                   ??_copyReceivedDataBuffer 0020                   __size_of_EUSART_Initialize 0016  
                        __size_of_errorsMain 0019                               ?_clearAllPorts 0070  
                            errorsISR@errNum 0070                     __size_of_TMR3_Initialize 000C  
                           errorsMain@errNum 0020              __end_of_SwitchOnStatustToGatway 073D  
                                  __pswtext1 08DC                                    __pswtext2 0800  
                                  __pswtext3 0814                                    __pswtext4 0828  
                                  __pswtext5 083C                                    __pswtext6 0850  
                                  __pswtext7 0864                                    __pswtext8 0878  
                                  __pswtext9 088C                                     _BAUD1CON 019F  
                      __end_of_pinINIT_extra 0F97                                     ?_isdigit 0070  
        applianceControl@charFinalFrameState 0033                                    _errorsISR 0F6D  
    applianceControl@dimmerSpeedStringBuffer 003B                               ___wmul@product 0024  
                                  clear_ram0 0EF2                                     _PIE1bits 0091  
                                   _PIE3bits 0093                                     _PIE4bits 0094  
                          ?_applianceControl 002E                                     _PIR1bits 0011  
                                   _PIR3bits 0013                                     _PIR4bits 0014  
                         ??_applianceControl 0034                            ??_TMR1_Initialize 0075  
                          ___wmul@multiplier 0020        SwitchOnStatustToGatway@SwitchOnNumber 0021  
              applianceControl@charSwitchLSB 002E                applianceControl@charSwitchMSB 0038  
                                 ?_errorsISR 0070                     __size_of_CCP9_Initialize 000A  
            __size_of_copyReceivedDataBuffer 002F                              ??_clearAllPorts 0075  
           ??_ReceivingIndicationLedBlinking 0020              ?_ReceivingIndicationLedBlinking 0070  
           _start_PWM_Generation_in_ISR_FLAG 0049                            _allPeripheralInit 07F4  
                               ??_errorsMain 0022                           _sendAcknowledgment 0FE2  
                          ??_TMR3_Initialize 0075                                  _isdigit$987 0020  
                         ?_allPeripheralInit 0070                             __size_of_isdigit 000F  
                        ?_sendAcknowledgment 0070                                     __ptext10 0F08  
                                   __ptext11 0F97                                     __ptext12 0EFE  
                                   __ptext21 0F6D                                     __ptext13 0F5C  
                                   __ptext14 0709                                     __ptext15 073D  
                                   __ptext16 0F4B                                     __ptext17 07CE  
                                   __ptext18 0F82                                     __ptext19 0F2D  
                        ??_allPeripheralInit 0075              applianceControl@charSwitchSTATE 002F  
                      main@dataBufferCounter 00CE                                __size_of_atoi 006B  
                              __size_of_main 0308                           __end_of_errorsMain 0FC6  
                         _currentStateBuffer 0120                                   _RC1STAbits 019D  
                       ??_sendAcknowledgment 0020                    __end_of_allPeripheralInit 0800  
                                   int$flags 007E                                     atoi@sign 002A  
                     _copyReceivedDataBuffer 0771                       _tempReceivedDataBuffer 005F  
               __size_of_GPIO_pin_Initialize 0026                                     isdigit@c 0021  
                                ??_errorsISR 0072                                     intlevel1 0000  
                          __CFG_CLKOUTEN$OFF 0000          applianceControl@integerSwitchNumber 003D  
                          ??_CCP9_Initialize 0075                           _parentalLockBuffer 00C0  
                              __pstringtext1 1000                                __pstringtext2 1005  
                              __pstringtext3 100A                                __pstringtext4 0000  
                                 _TX1STAbits 019E                     ?_SwitchOnStatustToGatway 0070  
                            _TMR1_Initialize 0F08                     _SwitchOffStatustToGatway 073D  
